
wear_detector.elf:     file format elf32-avr

Sections:
Idx Name          Size      VMA       LMA       File off  Algn
  0 .data         000001d4  00800100  000049ce  00004a62  2**0
                  CONTENTS, ALLOC, LOAD, DATA
  1 .text         000049ce  00000000  00000000  00000094  2**1
                  CONTENTS, ALLOC, LOAD, READONLY, CODE
  2 .bss          000004c1  008002d4  008002d4  00004c36  2**0
                  ALLOC
  3 .comment      0000005c  00000000  00000000  00004c36  2**0
                  CONTENTS, READONLY
  4 .note.gnu.avr.deviceinfo 00000040  00000000  00000000  00004c94  2**2
                  CONTENTS, READONLY
  5 .debug_aranges 000008c0  00000000  00000000  00004cd4  2**0
                  CONTENTS, READONLY, DEBUGGING
  6 .debug_info   0000af0e  00000000  00000000  00005594  2**0
                  CONTENTS, READONLY, DEBUGGING
  7 .debug_abbrev 00002091  00000000  00000000  000104a2  2**0
                  CONTENTS, READONLY, DEBUGGING
  8 .debug_line   0000584c  00000000  00000000  00012533  2**0
                  CONTENTS, READONLY, DEBUGGING
  9 .debug_frame  00001840  00000000  00000000  00017d80  2**2
                  CONTENTS, READONLY, DEBUGGING
 10 .debug_str    000038b8  00000000  00000000  000195c0  2**0
                  CONTENTS, READONLY, DEBUGGING
 11 .debug_loc    00007118  00000000  00000000  0001ce78  2**0
                  CONTENTS, READONLY, DEBUGGING
 12 .debug_ranges 000007c0  00000000  00000000  00023f90  2**0
                  CONTENTS, READONLY, DEBUGGING

Disassembly of section .text:

00000000 <__vectors>:
       0:	0c 94 9a 01 	jmp	0x334	; 0x334 <__ctors_end>
       4:	0c 94 d6 12 	jmp	0x25ac	; 0x25ac <__vector_1>
       8:	0c 94 ed 12 	jmp	0x25da	; 0x25da <__vector_2>
       c:	0c 94 b7 01 	jmp	0x36e	; 0x36e <__bad_interrupt>
      10:	0c 94 b7 01 	jmp	0x36e	; 0x36e <__bad_interrupt>
      14:	0c 94 b7 01 	jmp	0x36e	; 0x36e <__bad_interrupt>
      18:	0c 94 b7 01 	jmp	0x36e	; 0x36e <__bad_interrupt>
      1c:	0c 94 b7 01 	jmp	0x36e	; 0x36e <__bad_interrupt>
      20:	0c 94 b7 01 	jmp	0x36e	; 0x36e <__bad_interrupt>
      24:	0c 94 b7 01 	jmp	0x36e	; 0x36e <__bad_interrupt>
      28:	0c 94 b7 01 	jmp	0x36e	; 0x36e <__bad_interrupt>
      2c:	0c 94 fe 11 	jmp	0x23fc	; 0x23fc <__vector_11>
      30:	0c 94 b7 01 	jmp	0x36e	; 0x36e <__bad_interrupt>
      34:	0c 94 b7 01 	jmp	0x36e	; 0x36e <__bad_interrupt>
      38:	0c 94 ad 11 	jmp	0x235a	; 0x235a <__vector_14>
      3c:	0c 94 b7 01 	jmp	0x36e	; 0x36e <__bad_interrupt>
      40:	0c 94 b7 01 	jmp	0x36e	; 0x36e <__bad_interrupt>
      44:	0c 94 b7 01 	jmp	0x36e	; 0x36e <__bad_interrupt>
      48:	0c 94 3a 12 	jmp	0x2474	; 0x2474 <__vector_18>
      4c:	0c 94 b7 01 	jmp	0x36e	; 0x36e <__bad_interrupt>
      50:	0c 94 b7 01 	jmp	0x36e	; 0x36e <__bad_interrupt>
      54:	0c 94 b7 01 	jmp	0x36e	; 0x36e <__bad_interrupt>
      58:	0c 94 b7 01 	jmp	0x36e	; 0x36e <__bad_interrupt>
      5c:	0c 94 b7 01 	jmp	0x36e	; 0x36e <__bad_interrupt>
      60:	0c 94 b7 01 	jmp	0x36e	; 0x36e <__bad_interrupt>
      64:	0c 94 b7 01 	jmp	0x36e	; 0x36e <__bad_interrupt>
      68:	0c 94 b7 01 	jmp	0x36e	; 0x36e <__bad_interrupt>
      6c:	0c 94 b7 01 	jmp	0x36e	; 0x36e <__bad_interrupt>
      70:	0c 94 88 12 	jmp	0x2510	; 0x2510 <__vector_28>
      74:	0c 94 b7 01 	jmp	0x36e	; 0x36e <__bad_interrupt>
      78:	0c 94 b7 01 	jmp	0x36e	; 0x36e <__bad_interrupt>
      7c:	0c 94 b7 01 	jmp	0x36e	; 0x36e <__bad_interrupt>
      80:	0c 94 b7 01 	jmp	0x36e	; 0x36e <__bad_interrupt>
      84:	0c 94 b7 01 	jmp	0x36e	; 0x36e <__bad_interrupt>
      88:	0c 94 b7 01 	jmp	0x36e	; 0x36e <__bad_interrupt>
      8c:	0c 94 b7 01 	jmp	0x36e	; 0x36e <__bad_interrupt>
      90:	0c 94 b7 01 	jmp	0x36e	; 0x36e <__bad_interrupt>
      94:	0c 94 b7 01 	jmp	0x36e	; 0x36e <__bad_interrupt>
      98:	0c 94 b7 01 	jmp	0x36e	; 0x36e <__bad_interrupt>
      9c:	0c 94 b7 01 	jmp	0x36e	; 0x36e <__bad_interrupt>
      a0:	0c 94 b7 01 	jmp	0x36e	; 0x36e <__bad_interrupt>
      a4:	0c 94 b7 01 	jmp	0x36e	; 0x36e <__bad_interrupt>
      a8:	0c 94 b7 01 	jmp	0x36e	; 0x36e <__bad_interrupt>
      ac:	0c 94 b7 01 	jmp	0x36e	; 0x36e <__bad_interrupt>
      b0:	0c 94 b7 01 	jmp	0x36e	; 0x36e <__bad_interrupt>

000000b4 <__trampolines_end>:
      b4:	41 49       	sbci	r20, 0x91	; 145
      b6:	32 2b       	or	r19, r18
      b8:	53 45       	sbci	r21, 0x53	; 83
      ba:	52 56       	subi	r21, 0x62	; 98
      bc:	4f 3d       	cpi	r20, 0xDF	; 223
	...

000000bf <bt_number_of_sensors_set_cmd_header>:
      bf:	41 49 32 2b 4e 53 45 4e 53 4f 52 53 3d 00           AI2+NSENSORS=.

000000cd <bt_date_time_set_cmd_header>:
      cd:	41 49 32 2b 44 41 54 45 54 49 4d 45 3d 00           AI2+DATETIME=.

000000db <bt_receiver_id_set_cmd_header>:
      db:	41 49 32 2b 49 44 52 45 43 3d 00                    AI2+IDREC=.

000000e6 <bt_emitter_id_set_cmd_header>:
      e6:	41 49 32 2b 49 44 44 45 54 3d 00                    AI2+IDDET=.

000000f1 <bt_measure_period_set_cmd_header>:
      f1:	41 49 32 2b 50 45 52 49 4f 44 3d 00                 AI2+PERIOD=.

000000fd <bt_disconnect_cmd>:
      fd:	41 49 32 2b 42 54 4f 46 46 0d 0a 0a 00              AI2+BTOFF....

0000010a <bt_eeprom_data_request_cmd>:
     10a:	41 49 32 2b 45 45 50 52 4f 4d 52 45 41 44 3f 0d     AI2+EEPROMREAD?.
     11a:	0a 0a 00                                            ...

0000011d <bt_eeprom_reset_cmd>:
     11d:	41 49 32 2b 45 45 50 52 4f 4d 52 45 53 45 54 0d     AI2+EEPROMRESET.
     12d:	0a 0a 00                                            ...

00000130 <bt_date_time_request_cmd>:
     130:	41 49 32 2b 44 41 54 45 54 49 4d 45 3f 0d 0a 0a     AI2+DATETIME?...
	...

00000141 <bt_measure_data_request_cmd>:
     141:	41 49 32 2b 44 41 54 41 3f 0d 0a 0a 00              AI2+DATA?....

0000014e <bt_part_number_request_cmd>:
     14e:	41 49 32 2b 50 4e 3f 0d 0a 0a 00                    AI2+PN?....

00000159 <bt_receiver_id_request_cmd>:
     159:	41 49 32 2b 49 44 52 45 43 3f 0d 0a 0a 00           AI2+IDREC?....

00000167 <bt_emitter_id_request_cmd>:
     167:	41 49 32 2b 49 44 44 45 54 3f 0d 0a 0a 00           AI2+IDDET?....

00000175 <bluetooth_emitter_resistance_2_header>:
     175:	22 4f 68 6d 69 61 6a 65 20 32 20 45 6d 69 73 6f     "Ohmiaje 2 Emiso
     185:	72 22 00                                            r".

00000188 <bluetooth_emitter_resistance_1_header>:
     188:	22 4f 68 6d 69 61 6a 65 20 31 20 45 6d 69 73 6f     "Ohmiaje 1 Emiso
     198:	72 22 00                                            r".

0000019b <bluetooth_battery_level_header>:
     19b:	22 4e 69 76 65 6c 20 64 65 20 42 61 74 65 72 69     "Nivel de Bateri
     1ab:	61 22 00                                            a".

000001ae <bluetooth_wear_out_state_header>:
     1ae:	22 45 73 74 61 64 6f 20 64 65 20 64 65 73 67 61     "Estado de desga
     1be:	73 74 65 22 00                                      ste".

000001c3 <bluetooth_data_frame_time_header>:
     1c3:	22 68 6f 72 61 20 64 65 20 64 61 74 61 20 28 68     "hora de data (h
     1d3:	68 3a 6d 6d 20 61 2e 6d 2e 2f 70 2e 6d 2e 29 22     h:mm a.m./p.m.)"
	...

000001e4 <bluetooth_data_frame_date_header>:
     1e4:	22 66 65 63 68 61 20 64 65 20 64 61 74 61 28 64     "fecha de data(d
     1f4:	64 2f 6d 6d 2f 79 79 79 79 29 22 00                 d/mm/yyyy)".

00000200 <bluetooth_emitter_measure_period_header>:
     200:	22 50 65 72 69 6f 64 6f 20 28 64 69 61 73 29 22     "Periodo (dias)"
	...

00000211 <bluetooth_receiver_central_id_header>:
     211:	22 69 64 20 64 65 6c 20 72 65 63 65 70 74 6f 72     "id del receptor
     221:	28 61 6c 66 61 6e 75 6d 65 72 69 63 6f 29 22 00     (alfanumerico)".

00000231 <bluetooth_emitter_node_id_header>:
     231:	22 69 64 20 64 65 6c 20 65 6d 69 73 6f 72 22 00     "id del emisor".

00000241 <bluetooth_part_number_header>:
     241:	22 70 61 72 74 20 6e 75 6d 62 65 72 20 57 65 69     "part number Wei
     251:	72 22 00                                            r".

00000254 <xbee_emitter_resistance_2_header>:
     254:	22 4f 68 6d 69 61 6a 65 20 32 20 45 6d 69 73 6f     "Ohmiaje 2 Emiso
     264:	72 22 00                                            r".

00000267 <xbee_emitter_resistance_1_header>:
     267:	22 4f 68 6d 69 61 6a 65 20 31 20 45 6d 69 73 6f     "Ohmiaje 1 Emiso
     277:	72 22 00                                            r".

0000027a <xbee_battery_level_header>:
     27a:	22 4e 69 76 65 6c 20 64 65 20 42 61 74 65 72 69     "Nivel de Bateri
     28a:	61 22 00                                            a".

0000028d <xbee_wear_out_state_header>:
     28d:	22 45 73 74 61 64 6f 20 64 65 20 64 65 73 67 61     "Estado de desga
     29d:	73 74 65 22 00                                      ste".

000002a2 <xbee_data_frame_time_header>:
     2a2:	22 68 6f 72 61 20 64 65 20 64 61 74 61 20 28 68     "hora de data (h
     2b2:	68 3a 6d 6d 20 61 2e 6d 2e 2f 70 2e 6d 2e 29 22     h:mm a.m./p.m.)"
	...

000002c3 <xbee_data_frame_date_header>:
     2c3:	22 66 65 63 68 61 20 64 65 20 64 61 74 61 28 64     "fecha de data(d
     2d3:	64 2f 6d 6d 2f 79 79 79 79 29 22 00                 d/mm/yyyy)".

000002df <xbee_emitter_measure_period_header>:
     2df:	22 50 65 72 69 6f 64 6f 20 28 64 69 61 73 29 22     "Periodo (dias)"
	...

000002f0 <xbee_receiver_central_id_header>:
     2f0:	22 69 64 20 64 65 6c 20 72 65 63 65 70 74 6f 72     "id del receptor
     300:	28 61 6c 66 61 6e 75 6d 65 72 69 63 6f 29 22 00     (alfanumerico)".

00000310 <xbee_emitter_node_id_header>:
     310:	22 69 64 20 64 65 6c 20 65 6d 69 73 6f 72 22 00     "id del emisor".

00000320 <xbee_part_number_header>:
     320:	22 70 61 72 74 20 6e 75 6d 62 65 72 20 57 65 69     "part number Wei
     330:	72 22 00 00                                         r"..

00000334 <__ctors_end>:
     334:	11 24       	eor	r1, r1
     336:	1f be       	out	0x3f, r1	; 63
     338:	cf ef       	ldi	r28, 0xFF	; 255
     33a:	d8 e0       	ldi	r29, 0x08	; 8
     33c:	de bf       	out	0x3e, r29	; 62
     33e:	cd bf       	out	0x3d, r28	; 61

00000340 <__do_copy_data>:
     340:	12 e0       	ldi	r17, 0x02	; 2
     342:	a0 e0       	ldi	r26, 0x00	; 0
     344:	b1 e0       	ldi	r27, 0x01	; 1
     346:	ee ec       	ldi	r30, 0xCE	; 206
     348:	f9 e4       	ldi	r31, 0x49	; 73
     34a:	02 c0       	rjmp	.+4      	; 0x350 <__do_copy_data+0x10>
     34c:	05 90       	lpm	r0, Z+
     34e:	0d 92       	st	X+, r0
     350:	a4 3d       	cpi	r26, 0xD4	; 212
     352:	b1 07       	cpc	r27, r17
     354:	d9 f7       	brne	.-10     	; 0x34c <__do_copy_data+0xc>

00000356 <__do_clear_bss>:
     356:	27 e0       	ldi	r18, 0x07	; 7
     358:	a4 ed       	ldi	r26, 0xD4	; 212
     35a:	b2 e0       	ldi	r27, 0x02	; 2
     35c:	01 c0       	rjmp	.+2      	; 0x360 <.do_clear_bss_start>

0000035e <.do_clear_bss_loop>:
     35e:	1d 92       	st	X+, r1

00000360 <.do_clear_bss_start>:
     360:	a5 39       	cpi	r26, 0x95	; 149
     362:	b2 07       	cpc	r27, r18
     364:	e1 f7       	brne	.-8      	; 0x35e <.do_clear_bss_loop>
     366:	0e 94 63 11 	call	0x22c6	; 0x22c6 <main>
     36a:	0c 94 e5 24 	jmp	0x49ca	; 0x49ca <_exit>

0000036e <__bad_interrupt>:
     36e:	0c 94 00 00 	jmp	0	; 0x0 <__vectors>

00000372 <Analog_Measures_On>:
}


float Get_Battery_Volt(void){
	return battery_val_voltage;
}
     372:	88 b1       	in	r24, 0x08	; 8
     374:	82 60       	ori	r24, 0x02	; 2
     376:	88 b9       	out	0x08, r24	; 8
     378:	08 95       	ret

0000037a <Analog_Measures_Off>:
     37a:	88 b1       	in	r24, 0x08	; 8
     37c:	8d 7f       	andi	r24, 0xFD	; 253
     37e:	88 b9       	out	0x08, r24	; 8
     380:	08 95       	ret

00000382 <ADC_Initialize>:
     382:	cf 93       	push	r28
     384:	df 93       	push	r29
     386:	00 d0       	rcall	.+0      	; 0x388 <ADC_Initialize+0x6>
     388:	00 d0       	rcall	.+0      	; 0x38a <ADC_Initialize+0x8>
     38a:	00 d0       	rcall	.+0      	; 0x38c <ADC_Initialize+0xa>
     38c:	cd b7       	in	r28, 0x3d	; 61
     38e:	de b7       	in	r29, 0x3e	; 62
     390:	85 e0       	ldi	r24, 0x05	; 5
     392:	89 83       	std	Y+1, r24	; 0x01
     394:	1b 82       	std	Y+3, r1	; 0x03
     396:	83 e0       	ldi	r24, 0x03	; 3
     398:	8a 83       	std	Y+2, r24	; 0x02
     39a:	1d 82       	std	Y+5, r1	; 0x05
     39c:	1c 82       	std	Y+4, r1	; 0x04
     39e:	1e 82       	std	Y+6, r1	; 0x06
     3a0:	ce 01       	movw	r24, r28
     3a2:	01 96       	adiw	r24, 0x01	; 1
     3a4:	0e 94 ed 14 	call	0x29da	; 0x29da <ADC_Configurar>
     3a8:	ee e7       	ldi	r30, 0x7E	; 126
     3aa:	f0 e0       	ldi	r31, 0x00	; 0
     3ac:	80 81       	ld	r24, Z
     3ae:	85 64       	ori	r24, 0x45	; 69
     3b0:	80 83       	st	Z, r24
     3b2:	80 81       	ld	r24, Z
     3b4:	88 68       	ori	r24, 0x88	; 136
     3b6:	80 83       	st	Z, r24
     3b8:	ea e7       	ldi	r30, 0x7A	; 122
     3ba:	f0 e0       	ldi	r31, 0x00	; 0
     3bc:	80 81       	ld	r24, Z
     3be:	80 64       	ori	r24, 0x40	; 64
     3c0:	80 83       	st	Z, r24
     3c2:	80 91 7a 00 	lds	r24, 0x007A	; 0x80007a <__TEXT_REGION_LENGTH__+0x7f807a>
     3c6:	84 ff       	sbrs	r24, 4
     3c8:	fc cf       	rjmp	.-8      	; 0x3c2 <ADC_Initialize+0x40>
     3ca:	ea e7       	ldi	r30, 0x7A	; 122
     3cc:	f0 e0       	ldi	r31, 0x00	; 0
     3ce:	80 81       	ld	r24, Z
     3d0:	80 61       	ori	r24, 0x10	; 16
     3d2:	80 83       	st	Z, r24
     3d4:	26 96       	adiw	r28, 0x06	; 6
     3d6:	0f b6       	in	r0, 0x3f	; 63
     3d8:	f8 94       	cli
     3da:	de bf       	out	0x3e, r29	; 62
     3dc:	0f be       	out	0x3f, r0	; 63
     3de:	cd bf       	out	0x3d, r28	; 61
     3e0:	df 91       	pop	r29
     3e2:	cf 91       	pop	r28
     3e4:	08 95       	ret

000003e6 <Analog_Measures_Initialize>:
     3e6:	87 b1       	in	r24, 0x07	; 7
     3e8:	82 60       	ori	r24, 0x02	; 2
     3ea:	87 b9       	out	0x07, r24	; 7
     3ec:	88 b1       	in	r24, 0x08	; 8
     3ee:	8d 7f       	andi	r24, 0xFD	; 253
     3f0:	88 b9       	out	0x08, r24	; 8
     3f2:	0e 94 c1 01 	call	0x382	; 0x382 <ADC_Initialize>
     3f6:	08 95       	ret

000003f8 <ADC_Channel_Index_Reset>:
     3f8:	10 92 e6 02 	sts	0x02E6, r1	; 0x8002e6 <adc_channel_index>
     3fc:	08 95       	ret

000003fe <Analog_Accumulator_Reset>:
     3fe:	80 e0       	ldi	r24, 0x00	; 0
     400:	0d c0       	rjmp	.+26     	; 0x41c <__EEPROM_REGION_LENGTH__+0x1c>
     402:	e8 2f       	mov	r30, r24
     404:	f0 e0       	ldi	r31, 0x00	; 0
     406:	ee 0f       	add	r30, r30
     408:	ff 1f       	adc	r31, r31
     40a:	ee 0f       	add	r30, r30
     40c:	ff 1f       	adc	r31, r31
     40e:	e3 51       	subi	r30, 0x13	; 19
     410:	fd 4f       	sbci	r31, 0xFD	; 253
     412:	10 82       	st	Z, r1
     414:	11 82       	std	Z+1, r1	; 0x01
     416:	12 82       	std	Z+2, r1	; 0x02
     418:	13 82       	std	Z+3, r1	; 0x03
     41a:	8f 5f       	subi	r24, 0xFF	; 255
     41c:	83 30       	cpi	r24, 0x03	; 3
     41e:	88 f3       	brcs	.-30     	; 0x402 <__EEPROM_REGION_LENGTH__+0x2>
     420:	08 95       	ret

00000422 <Analog_Measures_Start>:
     422:	0e 94 fc 01 	call	0x3f8	; 0x3f8 <ADC_Channel_Index_Reset>
     426:	0e 94 ff 01 	call	0x3fe	; 0x3fe <Analog_Accumulator_Reset>
     42a:	ea e7       	ldi	r30, 0x7A	; 122
     42c:	f0 e0       	ldi	r31, 0x00	; 0
     42e:	80 81       	ld	r24, Z
     430:	80 64       	ori	r24, 0x40	; 64
     432:	80 83       	st	Z, r24
     434:	80 91 7a 00 	lds	r24, 0x007A	; 0x80007a <__TEXT_REGION_LENGTH__+0x7f807a>
     438:	84 ff       	sbrs	r24, 4
     43a:	fc cf       	rjmp	.-8      	; 0x434 <Analog_Measures_Start+0x12>
     43c:	ea e7       	ldi	r30, 0x7A	; 122
     43e:	f0 e0       	ldi	r31, 0x00	; 0
     440:	80 81       	ld	r24, Z
     442:	80 61       	ori	r24, 0x10	; 16
     444:	80 83       	st	Z, r24
     446:	08 95       	ret

00000448 <Analog_Measure_Read_And_Channel_Update>:
     448:	cf 93       	push	r28
     44a:	20 91 78 00 	lds	r18, 0x0078	; 0x800078 <__TEXT_REGION_LENGTH__+0x7f8078>
     44e:	30 91 79 00 	lds	r19, 0x0079	; 0x800079 <__TEXT_REGION_LENGTH__+0x7f8079>
     452:	e0 91 e6 02 	lds	r30, 0x02E6	; 0x8002e6 <adc_channel_index>
     456:	f0 e0       	ldi	r31, 0x00	; 0
     458:	ee 0f       	add	r30, r30
     45a:	ff 1f       	adc	r31, r31
     45c:	ee 0f       	add	r30, r30
     45e:	ff 1f       	adc	r31, r31
     460:	e3 51       	subi	r30, 0x13	; 19
     462:	fd 4f       	sbci	r31, 0xFD	; 253
     464:	80 81       	ld	r24, Z
     466:	91 81       	ldd	r25, Z+1	; 0x01
     468:	a2 81       	ldd	r26, Z+2	; 0x02
     46a:	b3 81       	ldd	r27, Z+3	; 0x03
     46c:	82 0f       	add	r24, r18
     46e:	93 1f       	adc	r25, r19
     470:	a1 1d       	adc	r26, r1
     472:	b1 1d       	adc	r27, r1
     474:	80 83       	st	Z, r24
     476:	91 83       	std	Z+1, r25	; 0x01
     478:	a2 83       	std	Z+2, r26	; 0x02
     47a:	b3 83       	std	Z+3, r27	; 0x03
     47c:	80 91 e6 02 	lds	r24, 0x02E6	; 0x8002e6 <adc_channel_index>
     480:	8f 5f       	subi	r24, 0xFF	; 255
     482:	80 93 e6 02 	sts	0x02E6, r24	; 0x8002e6 <adc_channel_index>
     486:	80 91 e6 02 	lds	r24, 0x02E6	; 0x8002e6 <adc_channel_index>
     48a:	83 30       	cpi	r24, 0x03	; 3
     48c:	20 f0       	brcs	.+8      	; 0x496 <Analog_Measure_Read_And_Channel_Update+0x4e>
     48e:	10 92 e6 02 	sts	0x02E6, r1	; 0x8002e6 <adc_channel_index>
     492:	c1 e0       	ldi	r28, 0x01	; 1
     494:	01 c0       	rjmp	.+2      	; 0x498 <Analog_Measure_Read_And_Channel_Update+0x50>
     496:	c0 e0       	ldi	r28, 0x00	; 0
     498:	e0 91 e6 02 	lds	r30, 0x02E6	; 0x8002e6 <adc_channel_index>
     49c:	f0 e0       	ldi	r31, 0x00	; 0
     49e:	ef 5e       	subi	r30, 0xEF	; 239
     4a0:	fe 4f       	sbci	r31, 0xFE	; 254
     4a2:	80 81       	ld	r24, Z
     4a4:	0e 94 37 15 	call	0x2a6e	; 0x2a6e <ADC_Seleccionar_Canal>
     4a8:	8c 2f       	mov	r24, r28
     4aa:	cf 91       	pop	r28
     4ac:	08 95       	ret

000004ae <Analog_Measure_Calculate_Average>:
     4ae:	20 e0       	ldi	r18, 0x00	; 0
     4b0:	23 c0       	rjmp	.+70     	; 0x4f8 <Analog_Measure_Calculate_Average+0x4a>
     4b2:	82 2f       	mov	r24, r18
     4b4:	90 e0       	ldi	r25, 0x00	; 0
     4b6:	dc 01       	movw	r26, r24
     4b8:	aa 0f       	add	r26, r26
     4ba:	bb 1f       	adc	r27, r27
     4bc:	aa 0f       	add	r26, r26
     4be:	bb 1f       	adc	r27, r27
     4c0:	a3 51       	subi	r26, 0x13	; 19
     4c2:	bd 4f       	sbci	r27, 0xFD	; 253
     4c4:	4d 91       	ld	r20, X+
     4c6:	5d 91       	ld	r21, X+
     4c8:	6d 91       	ld	r22, X+
     4ca:	7c 91       	ld	r23, X
     4cc:	13 97       	sbiw	r26, 0x03	; 3
     4ce:	68 94       	set
     4d0:	14 f8       	bld	r1, 4
     4d2:	76 95       	lsr	r23
     4d4:	67 95       	ror	r22
     4d6:	57 95       	ror	r21
     4d8:	47 95       	ror	r20
     4da:	16 94       	lsr	r1
     4dc:	d1 f7       	brne	.-12     	; 0x4d2 <Analog_Measure_Calculate_Average+0x24>
     4de:	88 0f       	add	r24, r24
     4e0:	99 1f       	adc	r25, r25
     4e2:	fc 01       	movw	r30, r24
     4e4:	e9 51       	subi	r30, 0x19	; 25
     4e6:	fd 4f       	sbci	r31, 0xFD	; 253
     4e8:	51 83       	std	Z+1, r21	; 0x01
     4ea:	40 83       	st	Z, r20
     4ec:	1d 92       	st	X+, r1
     4ee:	1d 92       	st	X+, r1
     4f0:	1d 92       	st	X+, r1
     4f2:	1c 92       	st	X, r1
     4f4:	13 97       	sbiw	r26, 0x03	; 3
     4f6:	2f 5f       	subi	r18, 0xFF	; 255
     4f8:	23 30       	cpi	r18, 0x03	; 3
     4fa:	d8 f2       	brcs	.-74     	; 0x4b2 <Analog_Measure_Calculate_Average+0x4>
     4fc:	08 95       	ret

000004fe <Analog_Measure_New_Sample>:
     4fe:	ea e7       	ldi	r30, 0x7A	; 122
     500:	f0 e0       	ldi	r31, 0x00	; 0
     502:	80 81       	ld	r24, Z
     504:	80 64       	ori	r24, 0x40	; 64
     506:	80 83       	st	Z, r24
     508:	80 91 7a 00 	lds	r24, 0x007A	; 0x80007a <__TEXT_REGION_LENGTH__+0x7f807a>
     50c:	84 ff       	sbrs	r24, 4
     50e:	fc cf       	rjmp	.-8      	; 0x508 <Analog_Measure_New_Sample+0xa>
     510:	08 95       	ret

00000512 <Analog_Measure_And_Accumulate>:
     512:	10 92 e5 02 	sts	0x02E5, r1	; 0x8002e5 <round_counter+0x1>
     516:	10 92 e4 02 	sts	0x02E4, r1	; 0x8002e4 <round_counter>
     51a:	15 c0       	rjmp	.+42     	; 0x546 <Analog_Measure_And_Accumulate+0x34>
     51c:	0e 94 7f 02 	call	0x4fe	; 0x4fe <Analog_Measure_New_Sample>
     520:	6a e0       	ldi	r22, 0x0A	; 10
     522:	70 e0       	ldi	r23, 0x00	; 0
     524:	80 e0       	ldi	r24, 0x00	; 0
     526:	90 e0       	ldi	r25, 0x00	; 0
     528:	0e 94 64 15 	call	0x2ac8	; 0x2ac8 <Delay_ms>
     52c:	0e 94 24 02 	call	0x448	; 0x448 <Analog_Measure_Read_And_Channel_Update>
     530:	88 23       	and	r24, r24
     532:	a1 f3       	breq	.-24     	; 0x51c <Analog_Measure_And_Accumulate+0xa>
     534:	80 91 e4 02 	lds	r24, 0x02E4	; 0x8002e4 <round_counter>
     538:	90 91 e5 02 	lds	r25, 0x02E5	; 0x8002e5 <round_counter+0x1>
     53c:	01 96       	adiw	r24, 0x01	; 1
     53e:	90 93 e5 02 	sts	0x02E5, r25	; 0x8002e5 <round_counter+0x1>
     542:	80 93 e4 02 	sts	0x02E4, r24	; 0x8002e4 <round_counter>
     546:	80 91 e4 02 	lds	r24, 0x02E4	; 0x8002e4 <round_counter>
     54a:	90 91 e5 02 	lds	r25, 0x02E5	; 0x8002e5 <round_counter+0x1>
     54e:	80 97       	sbiw	r24, 0x20	; 32
     550:	28 f3       	brcs	.-54     	; 0x51c <Analog_Measure_And_Accumulate+0xa>
     552:	08 95       	ret

00000554 <Calc_Res1_Ohm_From_Bin>:
     554:	8f 92       	push	r8
     556:	9f 92       	push	r9
     558:	af 92       	push	r10
     55a:	bf 92       	push	r11
     55c:	cf 92       	push	r12
     55e:	df 92       	push	r13
     560:	ef 92       	push	r14
     562:	ff 92       	push	r15
     564:	60 91 e7 02 	lds	r22, 0x02E7	; 0x8002e7 <analog_binary_value>
     568:	70 91 e8 02 	lds	r23, 0x02E8	; 0x8002e8 <analog_binary_value+0x1>
     56c:	80 e0       	ldi	r24, 0x00	; 0
     56e:	90 e0       	ldi	r25, 0x00	; 0
     570:	0e 94 9e 20 	call	0x413c	; 0x413c <__floatunsisf>
     574:	2d ec       	ldi	r18, 0xCD	; 205
     576:	3c ec       	ldi	r19, 0xCC	; 204
     578:	4c e8       	ldi	r20, 0x8C	; 140
     57a:	5f e3       	ldi	r21, 0x3F	; 63
     57c:	0e 94 55 21 	call	0x42aa	; 0x42aa <__mulsf3>
     580:	20 e0       	ldi	r18, 0x00	; 0
     582:	30 e0       	ldi	r19, 0x00	; 0
     584:	40 e8       	ldi	r20, 0x80	; 128
     586:	5a e3       	ldi	r21, 0x3A	; 58
     588:	0e 94 55 21 	call	0x42aa	; 0x42aa <__mulsf3>
     58c:	6b 01       	movw	r12, r22
     58e:	7c 01       	movw	r14, r24
     590:	20 e0       	ldi	r18, 0x00	; 0
     592:	30 e0       	ldi	r19, 0x00	; 0
     594:	4a e7       	ldi	r20, 0x7A	; 122
     596:	54 e4       	ldi	r21, 0x44	; 68
     598:	0e 94 55 21 	call	0x42aa	; 0x42aa <__mulsf3>
     59c:	4b 01       	movw	r8, r22
     59e:	5c 01       	movw	r10, r24
     5a0:	a7 01       	movw	r20, r14
     5a2:	96 01       	movw	r18, r12
     5a4:	6d ec       	ldi	r22, 0xCD	; 205
     5a6:	7c ec       	ldi	r23, 0xCC	; 204
     5a8:	8c e4       	ldi	r24, 0x4C	; 76
     5aa:	90 e4       	ldi	r25, 0x40	; 64
     5ac:	0e 94 8b 1f 	call	0x3f16	; 0x3f16 <__subsf3>
     5b0:	9b 01       	movw	r18, r22
     5b2:	ac 01       	movw	r20, r24
     5b4:	c5 01       	movw	r24, r10
     5b6:	b4 01       	movw	r22, r8
     5b8:	0e 94 fd 1f 	call	0x3ffa	; 0x3ffa <__divsf3>
     5bc:	6b 01       	movw	r12, r22
     5be:	7c 01       	movw	r14, r24
     5c0:	20 e0       	ldi	r18, 0x00	; 0
     5c2:	30 e0       	ldi	r19, 0x00	; 0
     5c4:	4a e7       	ldi	r20, 0x7A	; 122
     5c6:	54 e4       	ldi	r21, 0x44	; 68
     5c8:	0e 94 50 21 	call	0x42a0	; 0x42a0 <__gesf2>
     5cc:	18 16       	cp	r1, r24
     5ce:	6c f4       	brge	.+26     	; 0x5ea <Calc_Res1_Ohm_From_Bin+0x96>
     5d0:	80 e0       	ldi	r24, 0x00	; 0
     5d2:	90 e0       	ldi	r25, 0x00	; 0
     5d4:	aa e7       	ldi	r26, 0x7A	; 122
     5d6:	b4 e4       	ldi	r27, 0x44	; 68
     5d8:	80 93 e0 02 	sts	0x02E0, r24	; 0x8002e0 <res1_val_ohm>
     5dc:	90 93 e1 02 	sts	0x02E1, r25	; 0x8002e1 <res1_val_ohm+0x1>
     5e0:	a0 93 e2 02 	sts	0x02E2, r26	; 0x8002e2 <res1_val_ohm+0x2>
     5e4:	b0 93 e3 02 	sts	0x02E3, r27	; 0x8002e3 <res1_val_ohm+0x3>
     5e8:	1a c0       	rjmp	.+52     	; 0x61e <Calc_Res1_Ohm_From_Bin+0xca>
     5ea:	20 e0       	ldi	r18, 0x00	; 0
     5ec:	30 e0       	ldi	r19, 0x00	; 0
     5ee:	a9 01       	movw	r20, r18
     5f0:	c7 01       	movw	r24, r14
     5f2:	b6 01       	movw	r22, r12
     5f4:	0e 94 f8 1f 	call	0x3ff0	; 0x3ff0 <__cmpsf2>
     5f8:	88 23       	and	r24, r24
     5fa:	4c f4       	brge	.+18     	; 0x60e <Calc_Res1_Ohm_From_Bin+0xba>
     5fc:	10 92 e0 02 	sts	0x02E0, r1	; 0x8002e0 <res1_val_ohm>
     600:	10 92 e1 02 	sts	0x02E1, r1	; 0x8002e1 <res1_val_ohm+0x1>
     604:	10 92 e2 02 	sts	0x02E2, r1	; 0x8002e2 <res1_val_ohm+0x2>
     608:	10 92 e3 02 	sts	0x02E3, r1	; 0x8002e3 <res1_val_ohm+0x3>
     60c:	08 c0       	rjmp	.+16     	; 0x61e <Calc_Res1_Ohm_From_Bin+0xca>
     60e:	c0 92 e0 02 	sts	0x02E0, r12	; 0x8002e0 <res1_val_ohm>
     612:	d0 92 e1 02 	sts	0x02E1, r13	; 0x8002e1 <res1_val_ohm+0x1>
     616:	e0 92 e2 02 	sts	0x02E2, r14	; 0x8002e2 <res1_val_ohm+0x2>
     61a:	f0 92 e3 02 	sts	0x02E3, r15	; 0x8002e3 <res1_val_ohm+0x3>
     61e:	ff 90       	pop	r15
     620:	ef 90       	pop	r14
     622:	df 90       	pop	r13
     624:	cf 90       	pop	r12
     626:	bf 90       	pop	r11
     628:	af 90       	pop	r10
     62a:	9f 90       	pop	r9
     62c:	8f 90       	pop	r8
     62e:	08 95       	ret

00000630 <Calc_Res2_Ohm_From_Bin>:
     630:	8f 92       	push	r8
     632:	9f 92       	push	r9
     634:	af 92       	push	r10
     636:	bf 92       	push	r11
     638:	cf 92       	push	r12
     63a:	df 92       	push	r13
     63c:	ef 92       	push	r14
     63e:	ff 92       	push	r15
     640:	60 91 e9 02 	lds	r22, 0x02E9	; 0x8002e9 <analog_binary_value+0x2>
     644:	70 91 ea 02 	lds	r23, 0x02EA	; 0x8002ea <analog_binary_value+0x3>
     648:	80 e0       	ldi	r24, 0x00	; 0
     64a:	90 e0       	ldi	r25, 0x00	; 0
     64c:	0e 94 9e 20 	call	0x413c	; 0x413c <__floatunsisf>
     650:	2d ec       	ldi	r18, 0xCD	; 205
     652:	3c ec       	ldi	r19, 0xCC	; 204
     654:	4c e8       	ldi	r20, 0x8C	; 140
     656:	5f e3       	ldi	r21, 0x3F	; 63
     658:	0e 94 55 21 	call	0x42aa	; 0x42aa <__mulsf3>
     65c:	20 e0       	ldi	r18, 0x00	; 0
     65e:	30 e0       	ldi	r19, 0x00	; 0
     660:	40 e8       	ldi	r20, 0x80	; 128
     662:	5a e3       	ldi	r21, 0x3A	; 58
     664:	0e 94 55 21 	call	0x42aa	; 0x42aa <__mulsf3>
     668:	6b 01       	movw	r12, r22
     66a:	7c 01       	movw	r14, r24
     66c:	20 e0       	ldi	r18, 0x00	; 0
     66e:	30 e0       	ldi	r19, 0x00	; 0
     670:	4a e7       	ldi	r20, 0x7A	; 122
     672:	54 e4       	ldi	r21, 0x44	; 68
     674:	0e 94 55 21 	call	0x42aa	; 0x42aa <__mulsf3>
     678:	4b 01       	movw	r8, r22
     67a:	5c 01       	movw	r10, r24
     67c:	a7 01       	movw	r20, r14
     67e:	96 01       	movw	r18, r12
     680:	6d ec       	ldi	r22, 0xCD	; 205
     682:	7c ec       	ldi	r23, 0xCC	; 204
     684:	8c e4       	ldi	r24, 0x4C	; 76
     686:	90 e4       	ldi	r25, 0x40	; 64
     688:	0e 94 8b 1f 	call	0x3f16	; 0x3f16 <__subsf3>
     68c:	9b 01       	movw	r18, r22
     68e:	ac 01       	movw	r20, r24
     690:	c5 01       	movw	r24, r10
     692:	b4 01       	movw	r22, r8
     694:	0e 94 fd 1f 	call	0x3ffa	; 0x3ffa <__divsf3>
     698:	6b 01       	movw	r12, r22
     69a:	7c 01       	movw	r14, r24
     69c:	20 e0       	ldi	r18, 0x00	; 0
     69e:	30 e0       	ldi	r19, 0x00	; 0
     6a0:	4a e7       	ldi	r20, 0x7A	; 122
     6a2:	54 e4       	ldi	r21, 0x44	; 68
     6a4:	0e 94 50 21 	call	0x42a0	; 0x42a0 <__gesf2>
     6a8:	18 16       	cp	r1, r24
     6aa:	6c f4       	brge	.+26     	; 0x6c6 <Calc_Res2_Ohm_From_Bin+0x96>
     6ac:	80 e0       	ldi	r24, 0x00	; 0
     6ae:	90 e0       	ldi	r25, 0x00	; 0
     6b0:	aa e7       	ldi	r26, 0x7A	; 122
     6b2:	b4 e4       	ldi	r27, 0x44	; 68
     6b4:	80 93 dc 02 	sts	0x02DC, r24	; 0x8002dc <res2_val_ohm>
     6b8:	90 93 dd 02 	sts	0x02DD, r25	; 0x8002dd <res2_val_ohm+0x1>
     6bc:	a0 93 de 02 	sts	0x02DE, r26	; 0x8002de <res2_val_ohm+0x2>
     6c0:	b0 93 df 02 	sts	0x02DF, r27	; 0x8002df <res2_val_ohm+0x3>
     6c4:	1a c0       	rjmp	.+52     	; 0x6fa <Calc_Res2_Ohm_From_Bin+0xca>
     6c6:	20 e0       	ldi	r18, 0x00	; 0
     6c8:	30 e0       	ldi	r19, 0x00	; 0
     6ca:	a9 01       	movw	r20, r18
     6cc:	c7 01       	movw	r24, r14
     6ce:	b6 01       	movw	r22, r12
     6d0:	0e 94 f8 1f 	call	0x3ff0	; 0x3ff0 <__cmpsf2>
     6d4:	88 23       	and	r24, r24
     6d6:	4c f4       	brge	.+18     	; 0x6ea <Calc_Res2_Ohm_From_Bin+0xba>
     6d8:	10 92 dc 02 	sts	0x02DC, r1	; 0x8002dc <res2_val_ohm>
     6dc:	10 92 dd 02 	sts	0x02DD, r1	; 0x8002dd <res2_val_ohm+0x1>
     6e0:	10 92 de 02 	sts	0x02DE, r1	; 0x8002de <res2_val_ohm+0x2>
     6e4:	10 92 df 02 	sts	0x02DF, r1	; 0x8002df <res2_val_ohm+0x3>
     6e8:	08 c0       	rjmp	.+16     	; 0x6fa <Calc_Res2_Ohm_From_Bin+0xca>
     6ea:	c0 92 dc 02 	sts	0x02DC, r12	; 0x8002dc <res2_val_ohm>
     6ee:	d0 92 dd 02 	sts	0x02DD, r13	; 0x8002dd <res2_val_ohm+0x1>
     6f2:	e0 92 de 02 	sts	0x02DE, r14	; 0x8002de <res2_val_ohm+0x2>
     6f6:	f0 92 df 02 	sts	0x02DF, r15	; 0x8002df <res2_val_ohm+0x3>
     6fa:	ff 90       	pop	r15
     6fc:	ef 90       	pop	r14
     6fe:	df 90       	pop	r13
     700:	cf 90       	pop	r12
     702:	bf 90       	pop	r11
     704:	af 90       	pop	r10
     706:	9f 90       	pop	r9
     708:	8f 90       	pop	r8
     70a:	08 95       	ret

0000070c <Calc_Battery_Percent_From_Bin>:
     70c:	cf 92       	push	r12
     70e:	df 92       	push	r13
     710:	ef 92       	push	r14
     712:	ff 92       	push	r15
     714:	60 91 eb 02 	lds	r22, 0x02EB	; 0x8002eb <analog_binary_value+0x4>
     718:	70 91 ec 02 	lds	r23, 0x02EC	; 0x8002ec <analog_binary_value+0x5>
     71c:	80 e0       	ldi	r24, 0x00	; 0
     71e:	90 e0       	ldi	r25, 0x00	; 0
     720:	0e 94 9e 20 	call	0x413c	; 0x413c <__floatunsisf>
     724:	2d ec       	ldi	r18, 0xCD	; 205
     726:	3c ec       	ldi	r19, 0xCC	; 204
     728:	4c e8       	ldi	r20, 0x8C	; 140
     72a:	5f e3       	ldi	r21, 0x3F	; 63
     72c:	0e 94 55 21 	call	0x42aa	; 0x42aa <__mulsf3>
     730:	20 e0       	ldi	r18, 0x00	; 0
     732:	30 e0       	ldi	r19, 0x00	; 0
     734:	40 e8       	ldi	r20, 0x80	; 128
     736:	5a e3       	ldi	r21, 0x3A	; 58
     738:	0e 94 55 21 	call	0x42aa	; 0x42aa <__mulsf3>
     73c:	29 e5       	ldi	r18, 0x59	; 89
     73e:	3a ef       	ldi	r19, 0xFA	; 250
     740:	40 e5       	ldi	r20, 0x50	; 80
     742:	5e e3       	ldi	r21, 0x3E	; 62
     744:	0e 94 fd 1f 	call	0x3ffa	; 0x3ffa <__divsf3>
     748:	60 93 d8 02 	sts	0x02D8, r22	; 0x8002d8 <battery_val_voltage>
     74c:	70 93 d9 02 	sts	0x02D9, r23	; 0x8002d9 <battery_val_voltage+0x1>
     750:	80 93 da 02 	sts	0x02DA, r24	; 0x8002da <battery_val_voltage+0x2>
     754:	90 93 db 02 	sts	0x02DB, r25	; 0x8002db <battery_val_voltage+0x3>
     758:	20 e0       	ldi	r18, 0x00	; 0
     75a:	30 e0       	ldi	r19, 0x00	; 0
     75c:	40 e4       	ldi	r20, 0x40	; 64
     75e:	50 e4       	ldi	r21, 0x40	; 64
     760:	0e 94 8b 1f 	call	0x3f16	; 0x3f16 <__subsf3>
     764:	20 e0       	ldi	r18, 0x00	; 0
     766:	30 e0       	ldi	r19, 0x00	; 0
     768:	48 ec       	ldi	r20, 0xC8	; 200
     76a:	52 e4       	ldi	r21, 0x42	; 66
     76c:	0e 94 55 21 	call	0x42aa	; 0x42aa <__mulsf3>
     770:	2c ec       	ldi	r18, 0xCC	; 204
     772:	3c ec       	ldi	r19, 0xCC	; 204
     774:	4c ec       	ldi	r20, 0xCC	; 204
     776:	5f e3       	ldi	r21, 0x3F	; 63
     778:	0e 94 fd 1f 	call	0x3ffa	; 0x3ffa <__divsf3>
     77c:	6b 01       	movw	r12, r22
     77e:	7c 01       	movw	r14, r24
     780:	20 e0       	ldi	r18, 0x00	; 0
     782:	30 e0       	ldi	r19, 0x00	; 0
     784:	48 ec       	ldi	r20, 0xC8	; 200
     786:	52 e4       	ldi	r21, 0x42	; 66
     788:	0e 94 50 21 	call	0x42a0	; 0x42a0 <__gesf2>
     78c:	18 16       	cp	r1, r24
     78e:	6c f4       	brge	.+26     	; 0x7aa <Calc_Battery_Percent_From_Bin+0x9e>
     790:	80 e0       	ldi	r24, 0x00	; 0
     792:	90 e0       	ldi	r25, 0x00	; 0
     794:	a8 ec       	ldi	r26, 0xC8	; 200
     796:	b2 e4       	ldi	r27, 0x42	; 66
     798:	80 93 d4 02 	sts	0x02D4, r24	; 0x8002d4 <__data_end>
     79c:	90 93 d5 02 	sts	0x02D5, r25	; 0x8002d5 <__data_end+0x1>
     7a0:	a0 93 d6 02 	sts	0x02D6, r26	; 0x8002d6 <__data_end+0x2>
     7a4:	b0 93 d7 02 	sts	0x02D7, r27	; 0x8002d7 <__data_end+0x3>
     7a8:	1a c0       	rjmp	.+52     	; 0x7de <Calc_Battery_Percent_From_Bin+0xd2>
     7aa:	20 e0       	ldi	r18, 0x00	; 0
     7ac:	30 e0       	ldi	r19, 0x00	; 0
     7ae:	a9 01       	movw	r20, r18
     7b0:	c7 01       	movw	r24, r14
     7b2:	b6 01       	movw	r22, r12
     7b4:	0e 94 f8 1f 	call	0x3ff0	; 0x3ff0 <__cmpsf2>
     7b8:	88 23       	and	r24, r24
     7ba:	4c f4       	brge	.+18     	; 0x7ce <Calc_Battery_Percent_From_Bin+0xc2>
     7bc:	10 92 d4 02 	sts	0x02D4, r1	; 0x8002d4 <__data_end>
     7c0:	10 92 d5 02 	sts	0x02D5, r1	; 0x8002d5 <__data_end+0x1>
     7c4:	10 92 d6 02 	sts	0x02D6, r1	; 0x8002d6 <__data_end+0x2>
     7c8:	10 92 d7 02 	sts	0x02D7, r1	; 0x8002d7 <__data_end+0x3>
     7cc:	08 c0       	rjmp	.+16     	; 0x7de <Calc_Battery_Percent_From_Bin+0xd2>
     7ce:	c0 92 d4 02 	sts	0x02D4, r12	; 0x8002d4 <__data_end>
     7d2:	d0 92 d5 02 	sts	0x02D5, r13	; 0x8002d5 <__data_end+0x1>
     7d6:	e0 92 d6 02 	sts	0x02D6, r14	; 0x8002d6 <__data_end+0x2>
     7da:	f0 92 d7 02 	sts	0x02D7, r15	; 0x8002d7 <__data_end+0x3>
     7de:	ff 90       	pop	r15
     7e0:	ef 90       	pop	r14
     7e2:	df 90       	pop	r13
     7e4:	cf 90       	pop	r12
     7e6:	08 95       	ret

000007e8 <Get_Res1_Ohm>:
     7e8:	60 91 e0 02 	lds	r22, 0x02E0	; 0x8002e0 <res1_val_ohm>
     7ec:	70 91 e1 02 	lds	r23, 0x02E1	; 0x8002e1 <res1_val_ohm+0x1>
     7f0:	80 91 e2 02 	lds	r24, 0x02E2	; 0x8002e2 <res1_val_ohm+0x2>
     7f4:	90 91 e3 02 	lds	r25, 0x02E3	; 0x8002e3 <res1_val_ohm+0x3>
     7f8:	08 95       	ret

000007fa <Get_Res2_Ohm>:
     7fa:	60 91 dc 02 	lds	r22, 0x02DC	; 0x8002dc <res2_val_ohm>
     7fe:	70 91 dd 02 	lds	r23, 0x02DD	; 0x8002dd <res2_val_ohm+0x1>
     802:	80 91 de 02 	lds	r24, 0x02DE	; 0x8002de <res2_val_ohm+0x2>
     806:	90 91 df 02 	lds	r25, 0x02DF	; 0x8002df <res2_val_ohm+0x3>
     80a:	08 95       	ret

0000080c <Get_Battery_Percent>:


float Get_Battery_Percent(void){
	return battery_val_percent;
     80c:	60 91 d4 02 	lds	r22, 0x02D4	; 0x8002d4 <__data_end>
     810:	70 91 d5 02 	lds	r23, 0x02D5	; 0x8002d5 <__data_end+0x1>
     814:	80 91 d6 02 	lds	r24, 0x02D6	; 0x8002d6 <__data_end+0x2>
     818:	90 91 d7 02 	lds	r25, 0x02D7	; 0x8002d7 <__data_end+0x3>
}
     81c:	08 95       	ret

0000081e <Bluetooth_Interface_Working_Mode_UART_Init>:
}


uint8_t *Bluetooth_Get_Data_Frame_Buffer_Pointer(void){
	return bluetooth_data_frame_buffer;
}
     81e:	cf 93       	push	r28
     820:	df 93       	push	r29
     822:	cd b7       	in	r28, 0x3d	; 61
     824:	de b7       	in	r29, 0x3e	; 62
     826:	2b 97       	sbiw	r28, 0x0b	; 11
     828:	0f b6       	in	r0, 0x3f	; 63
     82a:	f8 94       	cli
     82c:	de bf       	out	0x3e, r29	; 62
     82e:	0f be       	out	0x3f, r0	; 63
     830:	cd bf       	out	0x3d, r28	; 61
     832:	80 e0       	ldi	r24, 0x00	; 0
     834:	96 e9       	ldi	r25, 0x96	; 150
     836:	a0 e0       	ldi	r26, 0x00	; 0
     838:	b0 e0       	ldi	r27, 0x00	; 0
     83a:	8a 83       	std	Y+2, r24	; 0x02
     83c:	9b 83       	std	Y+3, r25	; 0x03
     83e:	ac 83       	std	Y+4, r26	; 0x04
     840:	bd 83       	std	Y+5, r27	; 0x05
     842:	83 e0       	ldi	r24, 0x03	; 3
     844:	88 87       	std	Y+8, r24	; 0x08
     846:	1a 86       	std	Y+10, r1	; 0x0a
     848:	19 86       	std	Y+9, r1	; 0x09
     84a:	81 e0       	ldi	r24, 0x01	; 1
     84c:	89 83       	std	Y+1, r24	; 0x01
     84e:	8e 83       	std	Y+6, r24	; 0x06
     850:	1f 82       	std	Y+7, r1	; 0x07
     852:	1b 86       	std	Y+11, r1	; 0x0b
     854:	ce 01       	movw	r24, r28
     856:	01 96       	adiw	r24, 0x01	; 1
     858:	0e 94 d7 1a 	call	0x35ae	; 0x35ae <UART1_Configurar>
     85c:	2b 96       	adiw	r28, 0x0b	; 11
     85e:	0f b6       	in	r0, 0x3f	; 63
     860:	f8 94       	cli
     862:	de bf       	out	0x3e, r29	; 62
     864:	0f be       	out	0x3f, r0	; 63
     866:	cd bf       	out	0x3d, r28	; 61
     868:	df 91       	pop	r29
     86a:	cf 91       	pop	r28
     86c:	08 95       	ret

0000086e <Bluetooth_Interface_Initialize>:
     86e:	84 b1       	in	r24, 0x04	; 4
     870:	81 60       	ori	r24, 0x01	; 1
     872:	84 b9       	out	0x04, r24	; 4
     874:	85 b1       	in	r24, 0x05	; 5
     876:	8e 7f       	andi	r24, 0xFE	; 254
     878:	85 b9       	out	0x05, r24	; 5
     87a:	8a b1       	in	r24, 0x0a	; 10
     87c:	80 64       	ori	r24, 0x40	; 64
     87e:	8a b9       	out	0x0a, r24	; 10
     880:	8b b1       	in	r24, 0x0b	; 11
     882:	8f 7b       	andi	r24, 0xBF	; 191
     884:	8b b9       	out	0x0b, r24	; 11
     886:	0e 94 0f 04 	call	0x81e	; 0x81e <Bluetooth_Interface_Working_Mode_UART_Init>
     88a:	08 95       	ret

0000088c <Bluetooth_Interface_On>:
     88c:	8b b1       	in	r24, 0x0b	; 11
     88e:	80 64       	ori	r24, 0x40	; 64
     890:	8b b9       	out	0x0b, r24	; 11
     892:	08 95       	ret

00000894 <Bluetooth_Interface_Off>:
     894:	8b b1       	in	r24, 0x0b	; 11
     896:	8f 7b       	andi	r24, 0xBF	; 191
     898:	8b b9       	out	0x0b, r24	; 11
     89a:	08 95       	ret

0000089c <Bluetooth_Send_String>:
     89c:	bc 01       	movw	r22, r24
     89e:	81 e0       	ldi	r24, 0x01	; 1
     8a0:	0e 94 6b 1b 	call	0x36d6	; 0x36d6 <UARTn_Tx_String>
     8a4:	08 95       	ret

000008a6 <Bluetooth_Build_Data_Frame>:
     8a6:	ef 92       	push	r14
     8a8:	ff 92       	push	r15
     8aa:	0f 93       	push	r16
     8ac:	1f 93       	push	r17
     8ae:	cf 93       	push	r28
     8b0:	df 93       	push	r29
     8b2:	ec 01       	movw	r28, r24
     8b4:	08 e7       	ldi	r16, 0x78	; 120
     8b6:	13 e0       	ldi	r17, 0x03	; 3
     8b8:	8b e7       	ldi	r24, 0x7B	; 123
     8ba:	f8 01       	movw	r30, r16
     8bc:	80 83       	st	Z, r24
     8be:	61 e4       	ldi	r22, 0x41	; 65
     8c0:	72 e0       	ldi	r23, 0x02	; 2
     8c2:	89 e7       	ldi	r24, 0x79	; 121
     8c4:	93 e0       	ldi	r25, 0x03	; 3
     8c6:	0e 94 e4 21 	call	0x43c8	; 0x43c8 <strcpy_P>
     8ca:	0f 2e       	mov	r0, r31
     8cc:	fa e3       	ldi	r31, 0x3A	; 58
     8ce:	ff 2e       	mov	r15, r31
     8d0:	f0 2d       	mov	r31, r0
     8d2:	f8 01       	movw	r30, r16
     8d4:	f3 8a       	std	Z+19, r15	; 0x13
     8d6:	68 81       	ld	r22, Y
     8d8:	79 81       	ldd	r23, Y+1	; 0x01
     8da:	8c e8       	ldi	r24, 0x8C	; 140
     8dc:	93 e0       	ldi	r25, 0x03	; 3
     8de:	0e 94 f4 21 	call	0x43e8	; 0x43e8 <strcpy>
     8e2:	e8 81       	ld	r30, Y
     8e4:	f9 81       	ldd	r31, Y+1	; 0x01
     8e6:	df 01       	movw	r26, r30
     8e8:	0d 90       	ld	r0, X+
     8ea:	00 20       	and	r0, r0
     8ec:	e9 f7       	brne	.-6      	; 0x8e8 <Bluetooth_Build_Data_Frame+0x42>
     8ee:	11 97       	sbiw	r26, 0x01	; 1
     8f0:	8d 01       	movw	r16, r26
     8f2:	0e 1b       	sub	r16, r30
     8f4:	1f 0b       	sbc	r17, r31
     8f6:	f8 01       	movw	r30, r16
     8f8:	e4 57       	subi	r30, 0x74	; 116
     8fa:	fc 4f       	sbci	r31, 0xFC	; 252
     8fc:	0f 2e       	mov	r0, r31
     8fe:	fc e2       	ldi	r31, 0x2C	; 44
     900:	ef 2e       	mov	r14, r31
     902:	f0 2d       	mov	r31, r0
     904:	e0 82       	st	Z, r14
     906:	61 e3       	ldi	r22, 0x31	; 49
     908:	72 e0       	ldi	r23, 0x02	; 2
     90a:	c8 01       	movw	r24, r16
     90c:	83 57       	subi	r24, 0x73	; 115
     90e:	9c 4f       	sbci	r25, 0xFC	; 252
     910:	0e 94 e4 21 	call	0x43c8	; 0x43c8 <strcpy_P>
     914:	f8 01       	movw	r30, r16
     916:	e4 56       	subi	r30, 0x64	; 100
     918:	fc 4f       	sbci	r31, 0xFC	; 252
     91a:	f0 82       	st	Z, r15
     91c:	0b 5d       	subi	r16, 0xDB	; 219
     91e:	1f 4f       	sbci	r17, 0xFF	; 255
     920:	6a 81       	ldd	r22, Y+2	; 0x02
     922:	7b 81       	ldd	r23, Y+3	; 0x03
     924:	c8 01       	movw	r24, r16
     926:	88 58       	subi	r24, 0x88	; 136
     928:	9c 4f       	sbci	r25, 0xFC	; 252
     92a:	0e 94 f4 21 	call	0x43e8	; 0x43e8 <strcpy>
     92e:	aa 81       	ldd	r26, Y+2	; 0x02
     930:	bb 81       	ldd	r27, Y+3	; 0x03
     932:	fd 01       	movw	r30, r26
     934:	01 90       	ld	r0, Z+
     936:	00 20       	and	r0, r0
     938:	e9 f7       	brne	.-6      	; 0x934 <__stack+0x35>
     93a:	31 97       	sbiw	r30, 0x01	; 1
     93c:	ea 1b       	sub	r30, r26
     93e:	fb 0b       	sbc	r31, r27
     940:	0e 0f       	add	r16, r30
     942:	1f 1f       	adc	r17, r31
     944:	f8 01       	movw	r30, r16
     946:	e8 58       	subi	r30, 0x88	; 136
     948:	fc 4f       	sbci	r31, 0xFC	; 252
     94a:	e0 82       	st	Z, r14
     94c:	61 e1       	ldi	r22, 0x11	; 17
     94e:	72 e0       	ldi	r23, 0x02	; 2
     950:	c8 01       	movw	r24, r16
     952:	87 58       	subi	r24, 0x87	; 135
     954:	9c 4f       	sbci	r25, 0xFC	; 252
     956:	0e 94 e4 21 	call	0x43c8	; 0x43c8 <strcpy_P>
     95a:	f8 01       	movw	r30, r16
     95c:	e8 56       	subi	r30, 0x68	; 104
     95e:	fc 4f       	sbci	r31, 0xFC	; 252
     960:	f0 82       	st	Z, r15
     962:	0f 5d       	subi	r16, 0xDF	; 223
     964:	1f 4f       	sbci	r17, 0xFF	; 255
     966:	6c 81       	ldd	r22, Y+4	; 0x04
     968:	7d 81       	ldd	r23, Y+5	; 0x05
     96a:	c8 01       	movw	r24, r16
     96c:	88 58       	subi	r24, 0x88	; 136
     96e:	9c 4f       	sbci	r25, 0xFC	; 252
     970:	0e 94 f4 21 	call	0x43e8	; 0x43e8 <strcpy>
     974:	ac 81       	ldd	r26, Y+4	; 0x04
     976:	bd 81       	ldd	r27, Y+5	; 0x05
     978:	fd 01       	movw	r30, r26
     97a:	01 90       	ld	r0, Z+
     97c:	00 20       	and	r0, r0
     97e:	e9 f7       	brne	.-6      	; 0x97a <__stack+0x7b>
     980:	31 97       	sbiw	r30, 0x01	; 1
     982:	ea 1b       	sub	r30, r26
     984:	fb 0b       	sbc	r31, r27
     986:	0e 0f       	add	r16, r30
     988:	1f 1f       	adc	r17, r31
     98a:	f8 01       	movw	r30, r16
     98c:	e8 58       	subi	r30, 0x88	; 136
     98e:	fc 4f       	sbci	r31, 0xFC	; 252
     990:	e0 82       	st	Z, r14
     992:	60 e0       	ldi	r22, 0x00	; 0
     994:	72 e0       	ldi	r23, 0x02	; 2
     996:	c8 01       	movw	r24, r16
     998:	87 58       	subi	r24, 0x87	; 135
     99a:	9c 4f       	sbci	r25, 0xFC	; 252
     99c:	0e 94 e4 21 	call	0x43c8	; 0x43c8 <strcpy_P>
     9a0:	f8 01       	movw	r30, r16
     9a2:	e7 57       	subi	r30, 0x77	; 119
     9a4:	fc 4f       	sbci	r31, 0xFC	; 252
     9a6:	f0 82       	st	Z, r15
     9a8:	0e 5e       	subi	r16, 0xEE	; 238
     9aa:	1f 4f       	sbci	r17, 0xFF	; 255
     9ac:	6e 81       	ldd	r22, Y+6	; 0x06
     9ae:	7f 81       	ldd	r23, Y+7	; 0x07
     9b0:	c8 01       	movw	r24, r16
     9b2:	88 58       	subi	r24, 0x88	; 136
     9b4:	9c 4f       	sbci	r25, 0xFC	; 252
     9b6:	0e 94 f4 21 	call	0x43e8	; 0x43e8 <strcpy>
     9ba:	ae 81       	ldd	r26, Y+6	; 0x06
     9bc:	bf 81       	ldd	r27, Y+7	; 0x07
     9be:	fd 01       	movw	r30, r26
     9c0:	01 90       	ld	r0, Z+
     9c2:	00 20       	and	r0, r0
     9c4:	e9 f7       	brne	.-6      	; 0x9c0 <__stack+0xc1>
     9c6:	31 97       	sbiw	r30, 0x01	; 1
     9c8:	ea 1b       	sub	r30, r26
     9ca:	fb 0b       	sbc	r31, r27
     9cc:	0e 0f       	add	r16, r30
     9ce:	1f 1f       	adc	r17, r31
     9d0:	f8 01       	movw	r30, r16
     9d2:	e8 58       	subi	r30, 0x88	; 136
     9d4:	fc 4f       	sbci	r31, 0xFC	; 252
     9d6:	e0 82       	st	Z, r14
     9d8:	64 ee       	ldi	r22, 0xE4	; 228
     9da:	71 e0       	ldi	r23, 0x01	; 1
     9dc:	c8 01       	movw	r24, r16
     9de:	87 58       	subi	r24, 0x87	; 135
     9e0:	9c 4f       	sbci	r25, 0xFC	; 252
     9e2:	0e 94 e4 21 	call	0x43c8	; 0x43c8 <strcpy_P>
     9e6:	f8 01       	movw	r30, r16
     9e8:	ec 56       	subi	r30, 0x6C	; 108
     9ea:	fc 4f       	sbci	r31, 0xFC	; 252
     9ec:	f0 82       	st	Z, r15
     9ee:	03 5e       	subi	r16, 0xE3	; 227
     9f0:	1f 4f       	sbci	r17, 0xFF	; 255
     9f2:	68 85       	ldd	r22, Y+8	; 0x08
     9f4:	79 85       	ldd	r23, Y+9	; 0x09
     9f6:	c8 01       	movw	r24, r16
     9f8:	88 58       	subi	r24, 0x88	; 136
     9fa:	9c 4f       	sbci	r25, 0xFC	; 252
     9fc:	0e 94 f4 21 	call	0x43e8	; 0x43e8 <strcpy>
     a00:	a8 85       	ldd	r26, Y+8	; 0x08
     a02:	b9 85       	ldd	r27, Y+9	; 0x09
     a04:	fd 01       	movw	r30, r26
     a06:	01 90       	ld	r0, Z+
     a08:	00 20       	and	r0, r0
     a0a:	e9 f7       	brne	.-6      	; 0xa06 <__stack+0x107>
     a0c:	31 97       	sbiw	r30, 0x01	; 1
     a0e:	ea 1b       	sub	r30, r26
     a10:	fb 0b       	sbc	r31, r27
     a12:	0e 0f       	add	r16, r30
     a14:	1f 1f       	adc	r17, r31
     a16:	f8 01       	movw	r30, r16
     a18:	e8 58       	subi	r30, 0x88	; 136
     a1a:	fc 4f       	sbci	r31, 0xFC	; 252
     a1c:	e0 82       	st	Z, r14
     a1e:	63 ec       	ldi	r22, 0xC3	; 195
     a20:	71 e0       	ldi	r23, 0x01	; 1
     a22:	c8 01       	movw	r24, r16
     a24:	87 58       	subi	r24, 0x87	; 135
     a26:	9c 4f       	sbci	r25, 0xFC	; 252
     a28:	0e 94 e4 21 	call	0x43c8	; 0x43c8 <strcpy_P>
     a2c:	f8 01       	movw	r30, r16
     a2e:	e7 56       	subi	r30, 0x67	; 103
     a30:	fc 4f       	sbci	r31, 0xFC	; 252
     a32:	f0 82       	st	Z, r15
     a34:	0e 5d       	subi	r16, 0xDE	; 222
     a36:	1f 4f       	sbci	r17, 0xFF	; 255
     a38:	6a 85       	ldd	r22, Y+10	; 0x0a
     a3a:	7b 85       	ldd	r23, Y+11	; 0x0b
     a3c:	c8 01       	movw	r24, r16
     a3e:	88 58       	subi	r24, 0x88	; 136
     a40:	9c 4f       	sbci	r25, 0xFC	; 252
     a42:	0e 94 f4 21 	call	0x43e8	; 0x43e8 <strcpy>
     a46:	aa 85       	ldd	r26, Y+10	; 0x0a
     a48:	bb 85       	ldd	r27, Y+11	; 0x0b
     a4a:	fd 01       	movw	r30, r26
     a4c:	01 90       	ld	r0, Z+
     a4e:	00 20       	and	r0, r0
     a50:	e9 f7       	brne	.-6      	; 0xa4c <__stack+0x14d>
     a52:	31 97       	sbiw	r30, 0x01	; 1
     a54:	ea 1b       	sub	r30, r26
     a56:	fb 0b       	sbc	r31, r27
     a58:	0e 0f       	add	r16, r30
     a5a:	1f 1f       	adc	r17, r31
     a5c:	f8 01       	movw	r30, r16
     a5e:	e8 58       	subi	r30, 0x88	; 136
     a60:	fc 4f       	sbci	r31, 0xFC	; 252
     a62:	e0 82       	st	Z, r14
     a64:	6e ea       	ldi	r22, 0xAE	; 174
     a66:	71 e0       	ldi	r23, 0x01	; 1
     a68:	c8 01       	movw	r24, r16
     a6a:	87 58       	subi	r24, 0x87	; 135
     a6c:	9c 4f       	sbci	r25, 0xFC	; 252
     a6e:	0e 94 e4 21 	call	0x43c8	; 0x43c8 <strcpy_P>
     a72:	f8 01       	movw	r30, r16
     a74:	e3 57       	subi	r30, 0x73	; 115
     a76:	fc 4f       	sbci	r31, 0xFC	; 252
     a78:	f0 82       	st	Z, r15
     a7a:	0a 5e       	subi	r16, 0xEA	; 234
     a7c:	1f 4f       	sbci	r17, 0xFF	; 255
     a7e:	6c 85       	ldd	r22, Y+12	; 0x0c
     a80:	7d 85       	ldd	r23, Y+13	; 0x0d
     a82:	c8 01       	movw	r24, r16
     a84:	88 58       	subi	r24, 0x88	; 136
     a86:	9c 4f       	sbci	r25, 0xFC	; 252
     a88:	0e 94 f4 21 	call	0x43e8	; 0x43e8 <strcpy>
     a8c:	ac 85       	ldd	r26, Y+12	; 0x0c
     a8e:	bd 85       	ldd	r27, Y+13	; 0x0d
     a90:	fd 01       	movw	r30, r26
     a92:	01 90       	ld	r0, Z+
     a94:	00 20       	and	r0, r0
     a96:	e9 f7       	brne	.-6      	; 0xa92 <__stack+0x193>
     a98:	31 97       	sbiw	r30, 0x01	; 1
     a9a:	ea 1b       	sub	r30, r26
     a9c:	fb 0b       	sbc	r31, r27
     a9e:	0e 0f       	add	r16, r30
     aa0:	1f 1f       	adc	r17, r31
     aa2:	f8 01       	movw	r30, r16
     aa4:	e8 58       	subi	r30, 0x88	; 136
     aa6:	fc 4f       	sbci	r31, 0xFC	; 252
     aa8:	e0 82       	st	Z, r14
     aaa:	6b e9       	ldi	r22, 0x9B	; 155
     aac:	71 e0       	ldi	r23, 0x01	; 1
     aae:	c8 01       	movw	r24, r16
     ab0:	87 58       	subi	r24, 0x87	; 135
     ab2:	9c 4f       	sbci	r25, 0xFC	; 252
     ab4:	0e 94 e4 21 	call	0x43c8	; 0x43c8 <strcpy_P>
     ab8:	f8 01       	movw	r30, r16
     aba:	e5 57       	subi	r30, 0x75	; 117
     abc:	fc 4f       	sbci	r31, 0xFC	; 252
     abe:	f0 82       	st	Z, r15
     ac0:	0c 5e       	subi	r16, 0xEC	; 236
     ac2:	1f 4f       	sbci	r17, 0xFF	; 255
     ac4:	6e 85       	ldd	r22, Y+14	; 0x0e
     ac6:	7f 85       	ldd	r23, Y+15	; 0x0f
     ac8:	c8 01       	movw	r24, r16
     aca:	88 58       	subi	r24, 0x88	; 136
     acc:	9c 4f       	sbci	r25, 0xFC	; 252
     ace:	0e 94 f4 21 	call	0x43e8	; 0x43e8 <strcpy>
     ad2:	ae 85       	ldd	r26, Y+14	; 0x0e
     ad4:	bf 85       	ldd	r27, Y+15	; 0x0f
     ad6:	fd 01       	movw	r30, r26
     ad8:	01 90       	ld	r0, Z+
     ada:	00 20       	and	r0, r0
     adc:	e9 f7       	brne	.-6      	; 0xad8 <__stack+0x1d9>
     ade:	31 97       	sbiw	r30, 0x01	; 1
     ae0:	ea 1b       	sub	r30, r26
     ae2:	fb 0b       	sbc	r31, r27
     ae4:	0e 0f       	add	r16, r30
     ae6:	1f 1f       	adc	r17, r31
     ae8:	f8 01       	movw	r30, r16
     aea:	e8 58       	subi	r30, 0x88	; 136
     aec:	fc 4f       	sbci	r31, 0xFC	; 252
     aee:	e0 82       	st	Z, r14
     af0:	68 e8       	ldi	r22, 0x88	; 136
     af2:	71 e0       	ldi	r23, 0x01	; 1
     af4:	c8 01       	movw	r24, r16
     af6:	87 58       	subi	r24, 0x87	; 135
     af8:	9c 4f       	sbci	r25, 0xFC	; 252
     afa:	0e 94 e4 21 	call	0x43c8	; 0x43c8 <strcpy_P>
     afe:	f8 01       	movw	r30, r16
     b00:	e5 57       	subi	r30, 0x75	; 117
     b02:	fc 4f       	sbci	r31, 0xFC	; 252
     b04:	f0 82       	st	Z, r15
     b06:	0c 5e       	subi	r16, 0xEC	; 236
     b08:	1f 4f       	sbci	r17, 0xFF	; 255
     b0a:	68 89       	ldd	r22, Y+16	; 0x10
     b0c:	79 89       	ldd	r23, Y+17	; 0x11
     b0e:	c8 01       	movw	r24, r16
     b10:	88 58       	subi	r24, 0x88	; 136
     b12:	9c 4f       	sbci	r25, 0xFC	; 252
     b14:	0e 94 f4 21 	call	0x43e8	; 0x43e8 <strcpy>
     b18:	e8 89       	ldd	r30, Y+16	; 0x10
     b1a:	f9 89       	ldd	r31, Y+17	; 0x11
     b1c:	df 01       	movw	r26, r30
     b1e:	0d 90       	ld	r0, X+
     b20:	00 20       	and	r0, r0
     b22:	e9 f7       	brne	.-6      	; 0xb1e <__stack+0x21f>
     b24:	11 97       	sbiw	r26, 0x01	; 1
     b26:	ae 1b       	sub	r26, r30
     b28:	bf 0b       	sbc	r27, r31
     b2a:	0a 0f       	add	r16, r26
     b2c:	1b 1f       	adc	r17, r27
     b2e:	f8 01       	movw	r30, r16
     b30:	e8 58       	subi	r30, 0x88	; 136
     b32:	fc 4f       	sbci	r31, 0xFC	; 252
     b34:	e0 82       	st	Z, r14
     b36:	65 e7       	ldi	r22, 0x75	; 117
     b38:	71 e0       	ldi	r23, 0x01	; 1
     b3a:	c8 01       	movw	r24, r16
     b3c:	87 58       	subi	r24, 0x87	; 135
     b3e:	9c 4f       	sbci	r25, 0xFC	; 252
     b40:	0e 94 e4 21 	call	0x43c8	; 0x43c8 <strcpy_P>
     b44:	f8 01       	movw	r30, r16
     b46:	e5 57       	subi	r30, 0x75	; 117
     b48:	fc 4f       	sbci	r31, 0xFC	; 252
     b4a:	f0 82       	st	Z, r15
     b4c:	0c 5e       	subi	r16, 0xEC	; 236
     b4e:	1f 4f       	sbci	r17, 0xFF	; 255
     b50:	6a 89       	ldd	r22, Y+18	; 0x12
     b52:	7b 89       	ldd	r23, Y+19	; 0x13
     b54:	c8 01       	movw	r24, r16
     b56:	88 58       	subi	r24, 0x88	; 136
     b58:	9c 4f       	sbci	r25, 0xFC	; 252
     b5a:	0e 94 f4 21 	call	0x43e8	; 0x43e8 <strcpy>
     b5e:	ea 89       	ldd	r30, Y+18	; 0x12
     b60:	fb 89       	ldd	r31, Y+19	; 0x13
     b62:	df 01       	movw	r26, r30
     b64:	0d 90       	ld	r0, X+
     b66:	00 20       	and	r0, r0
     b68:	e9 f7       	brne	.-6      	; 0xb64 <__stack+0x265>
     b6a:	11 97       	sbiw	r26, 0x01	; 1
     b6c:	ae 1b       	sub	r26, r30
     b6e:	bf 0b       	sbc	r27, r31
     b70:	0a 0f       	add	r16, r26
     b72:	1b 1f       	adc	r17, r27
     b74:	d8 01       	movw	r26, r16
     b76:	a8 58       	subi	r26, 0x88	; 136
     b78:	bc 4f       	sbci	r27, 0xFC	; 252
     b7a:	85 e0       	ldi	r24, 0x05	; 5
     b7c:	ed e4       	ldi	r30, 0x4D	; 77
     b7e:	f1 e0       	ldi	r31, 0x01	; 1
     b80:	01 90       	ld	r0, Z+
     b82:	0d 92       	st	X+, r0
     b84:	8a 95       	dec	r24
     b86:	e1 f7       	brne	.-8      	; 0xb80 <__stack+0x281>
     b88:	df 91       	pop	r29
     b8a:	cf 91       	pop	r28
     b8c:	1f 91       	pop	r17
     b8e:	0f 91       	pop	r16
     b90:	ff 90       	pop	r15
     b92:	ef 90       	pop	r14
     b94:	08 95       	ret

00000b96 <Bluetooth_Send_Data_Frame>:
     b96:	68 e7       	ldi	r22, 0x78	; 120
     b98:	73 e0       	ldi	r23, 0x03	; 3
     b9a:	81 e0       	ldi	r24, 0x01	; 1
     b9c:	0e 94 6b 1b 	call	0x36d6	; 0x36d6 <UARTn_Tx_String>
     ba0:	08 95       	ret

00000ba2 <Bluetooth_Send_Backup_Data_Frames>:


uint8_t Bluetooth_Send_Backup_Data_Frames(void){
     ba2:	0f 93       	push	r16
     ba4:	1f 93       	push	r17
     ba6:	cf 93       	push	r28
     ba8:	df 93       	push	r29
     baa:	1f 92       	push	r1
     bac:	cd b7       	in	r28, 0x3d	; 61
     bae:	de b7       	in	r29, 0x3e	; 62
	
	uint16_t frame_address = 0;
	uint8_t counter = 0;
	uint8_t n_frames = 0;
     bb0:	19 82       	std	Y+1, r1	; 0x01
	uint8_t i2c_error = I2C_OK;
	
	i2c_error = EEPROM_Load_Data_Frame_Counter(&n_frames);
     bb2:	ce 01       	movw	r24, r28
     bb4:	01 96       	adiw	r24, 0x01	; 1
     bb6:	0e 94 c8 07 	call	0xf90	; 0xf90 <EEPROM_Load_Data_Frame_Counter>
     bba:	08 2f       	mov	r16, r24
	if(i2c_error == I2C_ERROR){
     bbc:	81 30       	cpi	r24, 0x01	; 1
     bbe:	21 f1       	breq	.+72     	; 0xc08 <Bluetooth_Send_Backup_Data_Frames+0x66>
		return i2c_error;
	}
	
	if(n_frames > EEPROM_N_BACKUP_FRAMES){
     bc0:	89 81       	ldd	r24, Y+1	; 0x01
     bc2:	85 31       	cpi	r24, 0x15	; 21
     bc4:	10 f0       	brcs	.+4      	; 0xbca <Bluetooth_Send_Backup_Data_Frames+0x28>
		n_frames = EEPROM_N_BACKUP_FRAMES;
     bc6:	84 e1       	ldi	r24, 0x14	; 20
     bc8:	89 83       	std	Y+1, r24	; 0x01
uint8_t *Bluetooth_Get_Data_Frame_Buffer_Pointer(void){
	return bluetooth_data_frame_buffer;
}


uint8_t Bluetooth_Send_Backup_Data_Frames(void){
     bca:	10 e0       	ldi	r17, 0x00	; 0
     bcc:	13 c0       	rjmp	.+38     	; 0xbf4 <Bluetooth_Send_Backup_Data_Frames+0x52>
		n_frames = EEPROM_N_BACKUP_FRAMES;
	}
	
	
	while(counter < n_frames){
		frame_address = EEPROM_FIRST_DATA_FRAME_POSITION + (counter * SYSTEM_DATA_FRAME_MAX_SIZE_IN_BYTES);
     bce:	80 e9       	ldi	r24, 0x90	; 144
     bd0:	91 e0       	ldi	r25, 0x01	; 1
     bd2:	18 9f       	mul	r17, r24
     bd4:	b0 01       	movw	r22, r0
     bd6:	19 9f       	mul	r17, r25
     bd8:	70 0d       	add	r23, r0
     bda:	11 24       	eor	r1, r1
     bdc:	6a 5d       	subi	r22, 0xDA	; 218
     bde:	7f 4f       	sbci	r23, 0xFF	; 255
		i2c_error = EEPROM_Load_Data_Frame((uint8_t *)bluetooth_data_frame_buffer, frame_address);
     be0:	88 e7       	ldi	r24, 0x78	; 120
     be2:	93 e0       	ldi	r25, 0x03	; 3
     be4:	0e 94 e1 07 	call	0xfc2	; 0xfc2 <EEPROM_Load_Data_Frame>
     be8:	08 2f       	mov	r16, r24
		if(i2c_error){
     bea:	81 11       	cpse	r24, r1
     bec:	06 c0       	rjmp	.+12     	; 0xbfa <Bluetooth_Send_Backup_Data_Frames+0x58>
			break;
		}
		Bluetooth_Send_Data_Frame();
     bee:	0e 94 cb 05 	call	0xb96	; 0xb96 <Bluetooth_Send_Data_Frame>
		counter++;
     bf2:	1f 5f       	subi	r17, 0xFF	; 255
	if(n_frames > EEPROM_N_BACKUP_FRAMES){
		n_frames = EEPROM_N_BACKUP_FRAMES;
	}
	
	
	while(counter < n_frames){
     bf4:	89 81       	ldd	r24, Y+1	; 0x01
     bf6:	18 17       	cp	r17, r24
     bf8:	50 f3       	brcs	.-44     	; 0xbce <Bluetooth_Send_Backup_Data_Frames+0x2c>
		}
		Bluetooth_Send_Data_Frame();
		counter++;
	}
	
	if(n_frames == 0){
     bfa:	89 81       	ldd	r24, Y+1	; 0x01
     bfc:	81 11       	cpse	r24, r1
     bfe:	04 c0       	rjmp	.+8      	; 0xc08 <Bluetooth_Send_Backup_Data_Frames+0x66>
		Bluetooth_Send_String("No hay datos para mostrar.");
     c00:	82 e5       	ldi	r24, 0x52	; 82
     c02:	91 e0       	ldi	r25, 0x01	; 1
     c04:	0e 94 4e 04 	call	0x89c	; 0x89c <Bluetooth_Send_String>
	}
	
	return i2c_error;
}
     c08:	80 2f       	mov	r24, r16
     c0a:	0f 90       	pop	r0
     c0c:	df 91       	pop	r29
     c0e:	cf 91       	pop	r28
     c10:	1f 91       	pop	r17
     c12:	0f 91       	pop	r16
     c14:	08 95       	ret

00000c16 <Bluetooth_Serial_Rx_Enable>:
void Bluetooth_Serial_Rx_Enable(void){
	
	uint8_t dummy = 0;
	
	/* Clear UART1 rx flag */
	dummy = UDR1;
     c16:	80 91 ce 00 	lds	r24, 0x00CE	; 0x8000ce <__TEXT_REGION_LENGTH__+0x7f80ce>
	/* Enable UART1 receiver */
	UCSR1B |= (1 << RXCIE1);
     c1a:	e9 ec       	ldi	r30, 0xC9	; 201
     c1c:	f0 e0       	ldi	r31, 0x00	; 0
     c1e:	80 81       	ld	r24, Z
     c20:	80 68       	ori	r24, 0x80	; 128
     c22:	80 83       	st	Z, r24
	/* Enable UART1 rx complete interrupt */
	UCSR1B |= (1 << RXEN1);
     c24:	80 81       	ld	r24, Z
     c26:	80 61       	ori	r24, 0x10	; 16
     c28:	80 83       	st	Z, r24
     c2a:	08 95       	ret

00000c2c <Bluetooth_Serial_Rx_Disable>:
}


void Bluetooth_Serial_Rx_Disable(void){
	/* Disable UART0 rx complete interrupt */
	UCSR1B &= ~(1 << RXEN1);
     c2c:	e9 ec       	ldi	r30, 0xC9	; 201
     c2e:	f0 e0       	ldi	r31, 0x00	; 0
     c30:	80 81       	ld	r24, Z
     c32:	8f 7e       	andi	r24, 0xEF	; 239
     c34:	80 83       	st	Z, r24
	/* Disable UART0 receiver */
	UCSR1B &= ~(1 << RXCIE1);
     c36:	80 81       	ld	r24, Z
     c38:	8f 77       	andi	r24, 0x7F	; 127
     c3a:	80 83       	st	Z, r24
     c3c:	08 95       	ret

00000c3e <Bluetooth_Verify_Command_Part_Number_Request>:
uint8_t Bluetooth_Verify_Command_Part_Number_Request(void){
	
	uint8_t command_correct = 0;
	
	/* Disable UART rx and interrupt */
	Bluetooth_Serial_Rx_Disable();
     c3e:	0e 94 16 06 	call	0xc2c	; 0xc2c <Bluetooth_Serial_Rx_Disable>
	/* Clean the command buffer*/
	Serial_Command_Buffer_Flush();
     c42:	0e 94 8e 1b 	call	0x371c	; 0x371c <Serial_Command_Buffer_Flush>
	/* Load the received string (command) */
	Serial_Rx_Buffer_Load_Command();
     c46:	0e 94 a8 1b 	call	0x3750	; 0x3750 <Serial_Rx_Buffer_Load_Command>
	/* Verify if the expected command was received */
	strcpy_P(bt_aux_buffer, bt_part_number_request_cmd);
     c4a:	6e e4       	ldi	r22, 0x4E	; 78
     c4c:	71 e0       	ldi	r23, 0x01	; 1
     c4e:	8a e5       	ldi	r24, 0x5A	; 90
     c50:	93 e0       	ldi	r25, 0x03	; 3
     c52:	0e 94 e4 21 	call	0x43c8	; 0x43c8 <strcpy_P>
	if(Serial_Verify_Command_Received(bt_aux_buffer)){
     c56:	8a e5       	ldi	r24, 0x5A	; 90
     c58:	93 e0       	ldi	r25, 0x03	; 3
     c5a:	0e 94 12 1c 	call	0x3824	; 0x3824 <Serial_Verify_Command_Received>
     c5e:	88 23       	and	r24, r24
     c60:	11 f0       	breq	.+4      	; 0xc66 <Bluetooth_Verify_Command_Part_Number_Request+0x28>
		command_correct = 1;
     c62:	81 e0       	ldi	r24, 0x01	; 1
     c64:	08 95       	ret
	}else{
		command_correct = 0;
     c66:	80 e0       	ldi	r24, 0x00	; 0
	}
	
	return command_correct;
	
}
     c68:	08 95       	ret

00000c6a <Bluetooth_Verify_Command_Emitter_ID_Request>:
uint8_t Bluetooth_Verify_Command_Emitter_ID_Request(void){
	
	uint8_t command_correct = 0;
	
	/* Disable UART rx and interrupt */
	Bluetooth_Serial_Rx_Disable();
     c6a:	0e 94 16 06 	call	0xc2c	; 0xc2c <Bluetooth_Serial_Rx_Disable>
	/* Clean the command buffer*/
	Serial_Command_Buffer_Flush();
     c6e:	0e 94 8e 1b 	call	0x371c	; 0x371c <Serial_Command_Buffer_Flush>
	/* Load the received string (command) */
	Serial_Rx_Buffer_Load_Command();
     c72:	0e 94 a8 1b 	call	0x3750	; 0x3750 <Serial_Rx_Buffer_Load_Command>
	/* Verify if the expected command was received */
	strcpy_P(bt_aux_buffer, bt_emitter_id_request_cmd);
     c76:	67 e6       	ldi	r22, 0x67	; 103
     c78:	71 e0       	ldi	r23, 0x01	; 1
     c7a:	8a e5       	ldi	r24, 0x5A	; 90
     c7c:	93 e0       	ldi	r25, 0x03	; 3
     c7e:	0e 94 e4 21 	call	0x43c8	; 0x43c8 <strcpy_P>
	if(Serial_Verify_Command_Received(bt_aux_buffer)){
     c82:	8a e5       	ldi	r24, 0x5A	; 90
     c84:	93 e0       	ldi	r25, 0x03	; 3
     c86:	0e 94 12 1c 	call	0x3824	; 0x3824 <Serial_Verify_Command_Received>
     c8a:	88 23       	and	r24, r24
     c8c:	11 f0       	breq	.+4      	; 0xc92 <Bluetooth_Verify_Command_Emitter_ID_Request+0x28>
		command_correct = 1;
     c8e:	81 e0       	ldi	r24, 0x01	; 1
     c90:	08 95       	ret
	}else{
		command_correct = 0;
     c92:	80 e0       	ldi	r24, 0x00	; 0
	}
	
	return command_correct;
	
}
     c94:	08 95       	ret

00000c96 <Bluetooth_Verify_Command_Receiver_ID_Request>:
uint8_t Bluetooth_Verify_Command_Receiver_ID_Request(void){
	
	uint8_t command_correct = 0;
	
	/* Disable UART rx and interrupt */
	Bluetooth_Serial_Rx_Disable();
     c96:	0e 94 16 06 	call	0xc2c	; 0xc2c <Bluetooth_Serial_Rx_Disable>
	/* Clean the command buffer*/
	Serial_Command_Buffer_Flush();
     c9a:	0e 94 8e 1b 	call	0x371c	; 0x371c <Serial_Command_Buffer_Flush>
	/* Load the received string (command) */
	Serial_Rx_Buffer_Load_Command();
     c9e:	0e 94 a8 1b 	call	0x3750	; 0x3750 <Serial_Rx_Buffer_Load_Command>
	/* Verify if the expected command was received */
	strcpy_P(bt_aux_buffer, bt_receiver_id_request_cmd);
     ca2:	69 e5       	ldi	r22, 0x59	; 89
     ca4:	71 e0       	ldi	r23, 0x01	; 1
     ca6:	8a e5       	ldi	r24, 0x5A	; 90
     ca8:	93 e0       	ldi	r25, 0x03	; 3
     caa:	0e 94 e4 21 	call	0x43c8	; 0x43c8 <strcpy_P>
	if(Serial_Verify_Command_Received(bt_aux_buffer)){
     cae:	8a e5       	ldi	r24, 0x5A	; 90
     cb0:	93 e0       	ldi	r25, 0x03	; 3
     cb2:	0e 94 12 1c 	call	0x3824	; 0x3824 <Serial_Verify_Command_Received>
     cb6:	88 23       	and	r24, r24
     cb8:	11 f0       	breq	.+4      	; 0xcbe <Bluetooth_Verify_Command_Receiver_ID_Request+0x28>
		command_correct = 1;
     cba:	81 e0       	ldi	r24, 0x01	; 1
     cbc:	08 95       	ret
	}else{
		command_correct = 0;
     cbe:	80 e0       	ldi	r24, 0x00	; 0
	}
	
	return command_correct;
}
     cc0:	08 95       	ret

00000cc2 <Bluetooth_Verify_Command_Data_Frame_Request>:
uint8_t Bluetooth_Verify_Command_Data_Frame_Request(void){
	
	uint8_t command_correct = 0;
	
	/* Disable UART rx and interrupt */
	Bluetooth_Serial_Rx_Disable();
     cc2:	0e 94 16 06 	call	0xc2c	; 0xc2c <Bluetooth_Serial_Rx_Disable>
	/* Clean the command buffer*/
	Serial_Command_Buffer_Flush();
     cc6:	0e 94 8e 1b 	call	0x371c	; 0x371c <Serial_Command_Buffer_Flush>
	/* Load the received string (command) */
	Serial_Rx_Buffer_Load_Command();
     cca:	0e 94 a8 1b 	call	0x3750	; 0x3750 <Serial_Rx_Buffer_Load_Command>
	/* Verify if the expected command was received */
	strcpy_P(bt_aux_buffer, bt_measure_data_request_cmd);
     cce:	61 e4       	ldi	r22, 0x41	; 65
     cd0:	71 e0       	ldi	r23, 0x01	; 1
     cd2:	8a e5       	ldi	r24, 0x5A	; 90
     cd4:	93 e0       	ldi	r25, 0x03	; 3
     cd6:	0e 94 e4 21 	call	0x43c8	; 0x43c8 <strcpy_P>
	if(Serial_Verify_Command_Received(bt_aux_buffer)){
     cda:	8a e5       	ldi	r24, 0x5A	; 90
     cdc:	93 e0       	ldi	r25, 0x03	; 3
     cde:	0e 94 12 1c 	call	0x3824	; 0x3824 <Serial_Verify_Command_Received>
     ce2:	88 23       	and	r24, r24
     ce4:	11 f0       	breq	.+4      	; 0xcea <Bluetooth_Verify_Command_Data_Frame_Request+0x28>
		command_correct = 1;
     ce6:	81 e0       	ldi	r24, 0x01	; 1
     ce8:	08 95       	ret
	}else{
		command_correct = 0;
     cea:	80 e0       	ldi	r24, 0x00	; 0
	}
	
	return command_correct;
}
     cec:	08 95       	ret

00000cee <Bluetooth_Verify_Command_Date_And_Time_Request>:
uint8_t Bluetooth_Verify_Command_Date_And_Time_Request(void){

	uint8_t command_correct = 0;
	
	/* Disable UART rx and interrupt */
	Bluetooth_Serial_Rx_Disable();
     cee:	0e 94 16 06 	call	0xc2c	; 0xc2c <Bluetooth_Serial_Rx_Disable>
	/* Clean the command buffer*/
	Serial_Command_Buffer_Flush();
     cf2:	0e 94 8e 1b 	call	0x371c	; 0x371c <Serial_Command_Buffer_Flush>
	/* Load the received string (command) */
	Serial_Rx_Buffer_Load_Command();
     cf6:	0e 94 a8 1b 	call	0x3750	; 0x3750 <Serial_Rx_Buffer_Load_Command>
	/* Verify if the expected command was received */
	strcpy_P(bt_aux_buffer, bt_date_time_request_cmd);
     cfa:	60 e3       	ldi	r22, 0x30	; 48
     cfc:	71 e0       	ldi	r23, 0x01	; 1
     cfe:	8a e5       	ldi	r24, 0x5A	; 90
     d00:	93 e0       	ldi	r25, 0x03	; 3
     d02:	0e 94 e4 21 	call	0x43c8	; 0x43c8 <strcpy_P>
	if(Serial_Verify_Command_Received(bt_aux_buffer)){
     d06:	8a e5       	ldi	r24, 0x5A	; 90
     d08:	93 e0       	ldi	r25, 0x03	; 3
     d0a:	0e 94 12 1c 	call	0x3824	; 0x3824 <Serial_Verify_Command_Received>
     d0e:	88 23       	and	r24, r24
     d10:	11 f0       	breq	.+4      	; 0xd16 <Bluetooth_Verify_Command_Date_And_Time_Request+0x28>
		command_correct = 1;
     d12:	81 e0       	ldi	r24, 0x01	; 1
     d14:	08 95       	ret
	}else{
		command_correct = 0;
     d16:	80 e0       	ldi	r24, 0x00	; 0
	}
	
	return command_correct;	
}
     d18:	08 95       	ret

00000d1a <Bluetooth_Verify_Command_EEPROM_Data_Request>:
uint8_t Bluetooth_Verify_Command_EEPROM_Data_Request(void){

	uint8_t command_correct = 0;
	
	/* Disable UART rx and interrupt */
	Bluetooth_Serial_Rx_Disable();
     d1a:	0e 94 16 06 	call	0xc2c	; 0xc2c <Bluetooth_Serial_Rx_Disable>
	/* Clean the command buffer*/
	Serial_Command_Buffer_Flush();
     d1e:	0e 94 8e 1b 	call	0x371c	; 0x371c <Serial_Command_Buffer_Flush>
	/* Load the received string (command) */
	Serial_Rx_Buffer_Load_Command();
     d22:	0e 94 a8 1b 	call	0x3750	; 0x3750 <Serial_Rx_Buffer_Load_Command>
	/* Verify if the expected command was received */
	strcpy_P(bt_aux_buffer, bt_eeprom_data_request_cmd);
     d26:	6a e0       	ldi	r22, 0x0A	; 10
     d28:	71 e0       	ldi	r23, 0x01	; 1
     d2a:	8a e5       	ldi	r24, 0x5A	; 90
     d2c:	93 e0       	ldi	r25, 0x03	; 3
     d2e:	0e 94 e4 21 	call	0x43c8	; 0x43c8 <strcpy_P>
	if(Serial_Verify_Command_Received(bt_aux_buffer)){
     d32:	8a e5       	ldi	r24, 0x5A	; 90
     d34:	93 e0       	ldi	r25, 0x03	; 3
     d36:	0e 94 12 1c 	call	0x3824	; 0x3824 <Serial_Verify_Command_Received>
     d3a:	88 23       	and	r24, r24
     d3c:	11 f0       	breq	.+4      	; 0xd42 <Bluetooth_Verify_Command_EEPROM_Data_Request+0x28>
		command_correct = 1;
     d3e:	81 e0       	ldi	r24, 0x01	; 1
     d40:	08 95       	ret
	}else{
		command_correct = 0;
     d42:	80 e0       	ldi	r24, 0x00	; 0
	}
	
	return command_correct;	
}
     d44:	08 95       	ret

00000d46 <Bluetooth_Verify_Command_EEPROM_Reset>:
uint8_t Bluetooth_Verify_Command_EEPROM_Reset(void){

	uint8_t command_correct = 0;
	
	/* Disable UART rx and interrupt */
	Bluetooth_Serial_Rx_Disable();
     d46:	0e 94 16 06 	call	0xc2c	; 0xc2c <Bluetooth_Serial_Rx_Disable>
	/* Clean the command buffer*/
	Serial_Command_Buffer_Flush();
     d4a:	0e 94 8e 1b 	call	0x371c	; 0x371c <Serial_Command_Buffer_Flush>
	/* Load the received string (command) */
	Serial_Rx_Buffer_Load_Command();
     d4e:	0e 94 a8 1b 	call	0x3750	; 0x3750 <Serial_Rx_Buffer_Load_Command>
	/* Verify if the expected command was received */
	strcpy_P(bt_aux_buffer, bt_eeprom_reset_cmd);
     d52:	6d e1       	ldi	r22, 0x1D	; 29
     d54:	71 e0       	ldi	r23, 0x01	; 1
     d56:	8a e5       	ldi	r24, 0x5A	; 90
     d58:	93 e0       	ldi	r25, 0x03	; 3
     d5a:	0e 94 e4 21 	call	0x43c8	; 0x43c8 <strcpy_P>
	if(Serial_Verify_Command_Received(bt_aux_buffer)){
     d5e:	8a e5       	ldi	r24, 0x5A	; 90
     d60:	93 e0       	ldi	r25, 0x03	; 3
     d62:	0e 94 12 1c 	call	0x3824	; 0x3824 <Serial_Verify_Command_Received>
     d66:	88 23       	and	r24, r24
     d68:	11 f0       	breq	.+4      	; 0xd6e <Bluetooth_Verify_Command_EEPROM_Reset+0x28>
		command_correct = 1;
     d6a:	81 e0       	ldi	r24, 0x01	; 1
     d6c:	08 95       	ret
	}else{
		command_correct = 0;
     d6e:	80 e0       	ldi	r24, 0x00	; 0
	}
	
	return command_correct;
}
     d70:	08 95       	ret

00000d72 <Bluetooth_Verify_Command_Disconnect>:
uint8_t Bluetooth_Verify_Command_Disconnect(void){
	
	uint8_t command_correct = 0;

	/* Disable UART rx and interrupt */
	Bluetooth_Serial_Rx_Disable();
     d72:	0e 94 16 06 	call	0xc2c	; 0xc2c <Bluetooth_Serial_Rx_Disable>
	/* Clean the command buffer*/
	Serial_Command_Buffer_Flush();
     d76:	0e 94 8e 1b 	call	0x371c	; 0x371c <Serial_Command_Buffer_Flush>
	/* Load the received string (command) */
	Serial_Rx_Buffer_Load_Command();
     d7a:	0e 94 a8 1b 	call	0x3750	; 0x3750 <Serial_Rx_Buffer_Load_Command>
	/* Verify if the expected command was received */
	strcpy_P(bt_aux_buffer, bt_disconnect_cmd);
     d7e:	6d ef       	ldi	r22, 0xFD	; 253
     d80:	70 e0       	ldi	r23, 0x00	; 0
     d82:	8a e5       	ldi	r24, 0x5A	; 90
     d84:	93 e0       	ldi	r25, 0x03	; 3
     d86:	0e 94 e4 21 	call	0x43c8	; 0x43c8 <strcpy_P>
	if(Serial_Verify_Command_Received(bt_aux_buffer)){
     d8a:	8a e5       	ldi	r24, 0x5A	; 90
     d8c:	93 e0       	ldi	r25, 0x03	; 3
     d8e:	0e 94 12 1c 	call	0x3824	; 0x3824 <Serial_Verify_Command_Received>
     d92:	88 23       	and	r24, r24
     d94:	11 f0       	breq	.+4      	; 0xd9a <Bluetooth_Verify_Command_Disconnect+0x28>
		command_correct = 1;
     d96:	81 e0       	ldi	r24, 0x01	; 1
     d98:	08 95       	ret
	}else{
		command_correct = 0;
     d9a:	80 e0       	ldi	r24, 0x00	; 0
	}

	return command_correct;		
}
     d9c:	08 95       	ret

00000d9e <Bluetooth_Verify_Command_Measure_Period_Set>:
uint8_t Bluetooth_Verify_Command_Measure_Period_Set(void){

	uint8_t command_correct = 0;
	
	/* Disable UART rx and interrupt */
	Bluetooth_Serial_Rx_Disable();
     d9e:	0e 94 16 06 	call	0xc2c	; 0xc2c <Bluetooth_Serial_Rx_Disable>
	/* Clean the command buffer*/
	Serial_Command_Buffer_Flush();
     da2:	0e 94 8e 1b 	call	0x371c	; 0x371c <Serial_Command_Buffer_Flush>
	/* Load the received string (command) */
	Serial_Rx_Buffer_Load_Command();
     da6:	0e 94 a8 1b 	call	0x3750	; 0x3750 <Serial_Rx_Buffer_Load_Command>
	/* Verify if the expected command was received */
	strcpy_P(bt_aux_buffer, bt_measure_period_set_cmd_header);
     daa:	61 ef       	ldi	r22, 0xF1	; 241
     dac:	70 e0       	ldi	r23, 0x00	; 0
     dae:	8a e5       	ldi	r24, 0x5A	; 90
     db0:	93 e0       	ldi	r25, 0x03	; 3
     db2:	0e 94 e4 21 	call	0x43c8	; 0x43c8 <strcpy_P>
	if(Serial_Verify_Command_Header(bt_aux_buffer)){
     db6:	8a e5       	ldi	r24, 0x5A	; 90
     db8:	93 e0       	ldi	r25, 0x03	; 3
     dba:	0e 94 1d 1c 	call	0x383a	; 0x383a <Serial_Verify_Command_Header>
     dbe:	88 23       	and	r24, r24
     dc0:	11 f0       	breq	.+4      	; 0xdc6 <Bluetooth_Verify_Command_Measure_Period_Set+0x28>
		command_correct = 1;
     dc2:	81 e0       	ldi	r24, 0x01	; 1
     dc4:	08 95       	ret
	}else{
		command_correct = 0;
     dc6:	80 e0       	ldi	r24, 0x00	; 0
	}
	
	return command_correct;
}
     dc8:	08 95       	ret

00000dca <Bluetooth_Verify_Command_Emitter_ID_Set>:
uint8_t Bluetooth_Verify_Command_Emitter_ID_Set(void){

	uint8_t command_correct = 0;
	
	/* Disable UART rx and interrupt */
	Bluetooth_Serial_Rx_Disable();
     dca:	0e 94 16 06 	call	0xc2c	; 0xc2c <Bluetooth_Serial_Rx_Disable>
	/* Clean the command buffer*/
	Serial_Command_Buffer_Flush();
     dce:	0e 94 8e 1b 	call	0x371c	; 0x371c <Serial_Command_Buffer_Flush>
	/* Load the received string (command) */
	Serial_Rx_Buffer_Load_Command();
     dd2:	0e 94 a8 1b 	call	0x3750	; 0x3750 <Serial_Rx_Buffer_Load_Command>
	/* Verify if the expected command was received */
	strcpy_P(bt_aux_buffer, bt_emitter_id_set_cmd_header);
     dd6:	66 ee       	ldi	r22, 0xE6	; 230
     dd8:	70 e0       	ldi	r23, 0x00	; 0
     dda:	8a e5       	ldi	r24, 0x5A	; 90
     ddc:	93 e0       	ldi	r25, 0x03	; 3
     dde:	0e 94 e4 21 	call	0x43c8	; 0x43c8 <strcpy_P>
	if(Serial_Verify_Command_Header(bt_aux_buffer)){
     de2:	8a e5       	ldi	r24, 0x5A	; 90
     de4:	93 e0       	ldi	r25, 0x03	; 3
     de6:	0e 94 1d 1c 	call	0x383a	; 0x383a <Serial_Verify_Command_Header>
     dea:	88 23       	and	r24, r24
     dec:	11 f0       	breq	.+4      	; 0xdf2 <Bluetooth_Verify_Command_Emitter_ID_Set+0x28>
		command_correct = 1;
     dee:	81 e0       	ldi	r24, 0x01	; 1
     df0:	08 95       	ret
	}else{
		command_correct = 0;
     df2:	80 e0       	ldi	r24, 0x00	; 0
	}
	
	return command_correct;
	
}
     df4:	08 95       	ret

00000df6 <Bluetooth_Verify_Command_Receiver_ID_Set>:
uint8_t Bluetooth_Verify_Command_Receiver_ID_Set(void){

	uint8_t command_correct = 0;
	
	/* Disable UART rx and interrupt */
	Bluetooth_Serial_Rx_Disable();
     df6:	0e 94 16 06 	call	0xc2c	; 0xc2c <Bluetooth_Serial_Rx_Disable>
	/* Clean the command buffer*/
	Serial_Command_Buffer_Flush();
     dfa:	0e 94 8e 1b 	call	0x371c	; 0x371c <Serial_Command_Buffer_Flush>
	/* Load the received string (command) */
	Serial_Rx_Buffer_Load_Command();
     dfe:	0e 94 a8 1b 	call	0x3750	; 0x3750 <Serial_Rx_Buffer_Load_Command>
	/* Verify if the expected command was received */
	strcpy_P(bt_aux_buffer, bt_receiver_id_set_cmd_header);
     e02:	6b ed       	ldi	r22, 0xDB	; 219
     e04:	70 e0       	ldi	r23, 0x00	; 0
     e06:	8a e5       	ldi	r24, 0x5A	; 90
     e08:	93 e0       	ldi	r25, 0x03	; 3
     e0a:	0e 94 e4 21 	call	0x43c8	; 0x43c8 <strcpy_P>
	if(Serial_Verify_Command_Header(bt_aux_buffer)){
     e0e:	8a e5       	ldi	r24, 0x5A	; 90
     e10:	93 e0       	ldi	r25, 0x03	; 3
     e12:	0e 94 1d 1c 	call	0x383a	; 0x383a <Serial_Verify_Command_Header>
     e16:	88 23       	and	r24, r24
     e18:	11 f0       	breq	.+4      	; 0xe1e <Bluetooth_Verify_Command_Receiver_ID_Set+0x28>
		command_correct = 1;
     e1a:	81 e0       	ldi	r24, 0x01	; 1
     e1c:	08 95       	ret
	}else{
		command_correct = 0;
     e1e:	80 e0       	ldi	r24, 0x00	; 0
	}
	
	return command_correct;	
	
}
     e20:	08 95       	ret

00000e22 <Bluetooth_Verify_Command_Number_Of_Sensors_Set>:
uint8_t Bluetooth_Verify_Command_Number_Of_Sensors_Set(void){

	uint8_t command_correct = 0;
	
	/* Disable UART rx and interrupt */
	Bluetooth_Serial_Rx_Disable();
     e22:	0e 94 16 06 	call	0xc2c	; 0xc2c <Bluetooth_Serial_Rx_Disable>
	/* Clean the command buffer*/
	Serial_Command_Buffer_Flush();
     e26:	0e 94 8e 1b 	call	0x371c	; 0x371c <Serial_Command_Buffer_Flush>
	/* Load the received string (command) */
	Serial_Rx_Buffer_Load_Command();
     e2a:	0e 94 a8 1b 	call	0x3750	; 0x3750 <Serial_Rx_Buffer_Load_Command>
	/* Verify if the expected command was received */
	strcpy_P(bt_aux_buffer, bt_number_of_sensors_set_cmd_header);
     e2e:	6f eb       	ldi	r22, 0xBF	; 191
     e30:	70 e0       	ldi	r23, 0x00	; 0
     e32:	8a e5       	ldi	r24, 0x5A	; 90
     e34:	93 e0       	ldi	r25, 0x03	; 3
     e36:	0e 94 e4 21 	call	0x43c8	; 0x43c8 <strcpy_P>
	if(Serial_Verify_Command_Header(bt_aux_buffer)){
     e3a:	8a e5       	ldi	r24, 0x5A	; 90
     e3c:	93 e0       	ldi	r25, 0x03	; 3
     e3e:	0e 94 1d 1c 	call	0x383a	; 0x383a <Serial_Verify_Command_Header>
     e42:	88 23       	and	r24, r24
     e44:	11 f0       	breq	.+4      	; 0xe4a <Bluetooth_Verify_Command_Number_Of_Sensors_Set+0x28>
		command_correct = 1;
     e46:	81 e0       	ldi	r24, 0x01	; 1
     e48:	08 95       	ret
	}else{
		command_correct = 0;
     e4a:	80 e0       	ldi	r24, 0x00	; 0
	}
	
	return command_correct;
	
}
     e4c:	08 95       	ret

00000e4e <Bluetooth_Verify_Command_Servo_Enable_Disable>:
uint8_t Bluetooth_Verify_Command_Servo_Enable_Disable(void){

	uint8_t command_correct = 0;
	
	/* Disable UART rx and interrupt */
	Bluetooth_Serial_Rx_Disable();
     e4e:	0e 94 16 06 	call	0xc2c	; 0xc2c <Bluetooth_Serial_Rx_Disable>
	/* Clean the command buffer*/
	Serial_Command_Buffer_Flush();
     e52:	0e 94 8e 1b 	call	0x371c	; 0x371c <Serial_Command_Buffer_Flush>
	/* Load the received string (command) */
	Serial_Rx_Buffer_Load_Command();
     e56:	0e 94 a8 1b 	call	0x3750	; 0x3750 <Serial_Rx_Buffer_Load_Command>
	/* Verify if the expected command was received */
	strcpy_P(bt_aux_buffer, bt_servo_enable_disable_cmd_header);
     e5a:	64 eb       	ldi	r22, 0xB4	; 180
     e5c:	70 e0       	ldi	r23, 0x00	; 0
     e5e:	8a e5       	ldi	r24, 0x5A	; 90
     e60:	93 e0       	ldi	r25, 0x03	; 3
     e62:	0e 94 e4 21 	call	0x43c8	; 0x43c8 <strcpy_P>
	if(Serial_Verify_Command_Header(bt_aux_buffer)){
     e66:	8a e5       	ldi	r24, 0x5A	; 90
     e68:	93 e0       	ldi	r25, 0x03	; 3
     e6a:	0e 94 1d 1c 	call	0x383a	; 0x383a <Serial_Verify_Command_Header>
     e6e:	88 23       	and	r24, r24
     e70:	11 f0       	breq	.+4      	; 0xe76 <Bluetooth_Verify_Command_Servo_Enable_Disable+0x28>
		command_correct = 1;
     e72:	81 e0       	ldi	r24, 0x01	; 1
     e74:	08 95       	ret
	}else{
		command_correct = 0;
     e76:	80 e0       	ldi	r24, 0x00	; 0
	}
	
	return command_correct;
	
	
}
     e78:	08 95       	ret

00000e7a <Bluetooth_Verify_Command_Date_And_Time_Set>:
uint8_t Bluetooth_Verify_Command_Date_And_Time_Set(void){
	
	uint8_t command_correct = 0;
	
	/* Disable UART rx and interrupt */
	Bluetooth_Serial_Rx_Disable();
     e7a:	0e 94 16 06 	call	0xc2c	; 0xc2c <Bluetooth_Serial_Rx_Disable>
	/* Clean the command buffer*/
	Serial_Command_Buffer_Flush();
     e7e:	0e 94 8e 1b 	call	0x371c	; 0x371c <Serial_Command_Buffer_Flush>
	/* Load the received string (command) */
	Serial_Rx_Buffer_Load_Command();
     e82:	0e 94 a8 1b 	call	0x3750	; 0x3750 <Serial_Rx_Buffer_Load_Command>
	/* Verify if the expected command was received */
	strcpy_P(bt_aux_buffer, bt_date_time_set_cmd_header);
     e86:	6d ec       	ldi	r22, 0xCD	; 205
     e88:	70 e0       	ldi	r23, 0x00	; 0
     e8a:	8a e5       	ldi	r24, 0x5A	; 90
     e8c:	93 e0       	ldi	r25, 0x03	; 3
     e8e:	0e 94 e4 21 	call	0x43c8	; 0x43c8 <strcpy_P>
	if(Serial_Verify_Command_Header(bt_aux_buffer)){
     e92:	8a e5       	ldi	r24, 0x5A	; 90
     e94:	93 e0       	ldi	r25, 0x03	; 3
     e96:	0e 94 1d 1c 	call	0x383a	; 0x383a <Serial_Verify_Command_Header>
     e9a:	88 23       	and	r24, r24
     e9c:	11 f0       	breq	.+4      	; 0xea2 <Bluetooth_Verify_Command_Date_And_Time_Set+0x28>
		command_correct = 1;
     e9e:	81 e0       	ldi	r24, 0x01	; 1
     ea0:	08 95       	ret
	}else{
		command_correct = 0;
     ea2:	80 e0       	ldi	r24, 0x00	; 0
	}
	
	return command_correct;
	
}
     ea4:	08 95       	ret

00000ea6 <EEPROM_Save_Servo_Indicator_State>:
	
	i2c_error = EEPROM_Clear_Data_Frames_Only();
	
	return i2c_error;
	
}
     ea6:	9c 01       	movw	r18, r24
     ea8:	41 e0       	ldi	r20, 0x01	; 1
     eaa:	50 e0       	ldi	r21, 0x00	; 0
     eac:	60 e0       	ldi	r22, 0x00	; 0
     eae:	70 e0       	ldi	r23, 0x00	; 0
     eb0:	80 e5       	ldi	r24, 0x50	; 80
     eb2:	0e 94 8a 13 	call	0x2714	; 0x2714 <EEPROM_24AAxx_Write_Extended>
     eb6:	08 95       	ret

00000eb8 <EEPROM_Save_Number_Of_Sensors>:
     eb8:	9c 01       	movw	r18, r24
     eba:	41 e0       	ldi	r20, 0x01	; 1
     ebc:	50 e0       	ldi	r21, 0x00	; 0
     ebe:	61 e0       	ldi	r22, 0x01	; 1
     ec0:	70 e0       	ldi	r23, 0x00	; 0
     ec2:	80 e5       	ldi	r24, 0x50	; 80
     ec4:	0e 94 8a 13 	call	0x2714	; 0x2714 <EEPROM_24AAxx_Write_Extended>
     ec8:	08 95       	ret

00000eca <EEPROM_Save_Measure_Period_In_Days>:
     eca:	9c 01       	movw	r18, r24
     ecc:	41 e0       	ldi	r20, 0x01	; 1
     ece:	50 e0       	ldi	r21, 0x00	; 0
     ed0:	63 e0       	ldi	r22, 0x03	; 3
     ed2:	70 e0       	ldi	r23, 0x00	; 0
     ed4:	80 e5       	ldi	r24, 0x50	; 80
     ed6:	0e 94 8a 13 	call	0x2714	; 0x2714 <EEPROM_24AAxx_Write_Extended>
     eda:	08 95       	ret

00000edc <EEPROM_Save_Emitter_Node_ID>:
     edc:	9c 01       	movw	r18, r24
     ede:	4a e0       	ldi	r20, 0x0A	; 10
     ee0:	50 e0       	ldi	r21, 0x00	; 0
     ee2:	6f e0       	ldi	r22, 0x0F	; 15
     ee4:	70 e0       	ldi	r23, 0x00	; 0
     ee6:	80 e5       	ldi	r24, 0x50	; 80
     ee8:	0e 94 8a 13 	call	0x2714	; 0x2714 <EEPROM_24AAxx_Write_Extended>
     eec:	08 95       	ret

00000eee <EEPROM_Save_Receiver_Central_ID>:
     eee:	9c 01       	movw	r18, r24
     ef0:	4b e0       	ldi	r20, 0x0B	; 11
     ef2:	50 e0       	ldi	r21, 0x00	; 0
     ef4:	69 e1       	ldi	r22, 0x19	; 25
     ef6:	70 e0       	ldi	r23, 0x00	; 0
     ef8:	80 e5       	ldi	r24, 0x50	; 80
     efa:	0e 94 8a 13 	call	0x2714	; 0x2714 <EEPROM_24AAxx_Write_Extended>
     efe:	08 95       	ret

00000f00 <EEPROM_Save_Data_Frame_Counter>:
     f00:	9c 01       	movw	r18, r24
     f02:	41 e0       	ldi	r20, 0x01	; 1
     f04:	50 e0       	ldi	r21, 0x00	; 0
     f06:	64 e2       	ldi	r22, 0x24	; 36
     f08:	70 e0       	ldi	r23, 0x00	; 0
     f0a:	80 e5       	ldi	r24, 0x50	; 80
     f0c:	0e 94 8a 13 	call	0x2714	; 0x2714 <EEPROM_24AAxx_Write_Extended>
     f10:	08 95       	ret

00000f12 <EEPROM_Save_Data_Frame_Index>:
     f12:	9c 01       	movw	r18, r24
     f14:	41 e0       	ldi	r20, 0x01	; 1
     f16:	50 e0       	ldi	r21, 0x00	; 0
     f18:	65 e2       	ldi	r22, 0x25	; 37
     f1a:	70 e0       	ldi	r23, 0x00	; 0
     f1c:	80 e5       	ldi	r24, 0x50	; 80
     f1e:	0e 94 8a 13 	call	0x2714	; 0x2714 <EEPROM_24AAxx_Write_Extended>
     f22:	08 95       	ret

00000f24 <EEPROM_Load_Servo_Indicator_State>:
     f24:	9c 01       	movw	r18, r24
     f26:	41 e0       	ldi	r20, 0x01	; 1
     f28:	50 e0       	ldi	r21, 0x00	; 0
     f2a:	60 e0       	ldi	r22, 0x00	; 0
     f2c:	70 e0       	ldi	r23, 0x00	; 0
     f2e:	80 e5       	ldi	r24, 0x50	; 80
     f30:	0e 94 72 14 	call	0x28e4	; 0x28e4 <EEPROM_24AAxx_Read_Extended>
     f34:	08 95       	ret

00000f36 <EEPROM_Load_Number_Of_Sensors>:
     f36:	9c 01       	movw	r18, r24
     f38:	41 e0       	ldi	r20, 0x01	; 1
     f3a:	50 e0       	ldi	r21, 0x00	; 0
     f3c:	61 e0       	ldi	r22, 0x01	; 1
     f3e:	70 e0       	ldi	r23, 0x00	; 0
     f40:	80 e5       	ldi	r24, 0x50	; 80
     f42:	0e 94 72 14 	call	0x28e4	; 0x28e4 <EEPROM_24AAxx_Read_Extended>
     f46:	08 95       	ret

00000f48 <EEPROM_Load_Measure_Period_In_Days>:
     f48:	9c 01       	movw	r18, r24
     f4a:	41 e0       	ldi	r20, 0x01	; 1
     f4c:	50 e0       	ldi	r21, 0x00	; 0
     f4e:	63 e0       	ldi	r22, 0x03	; 3
     f50:	70 e0       	ldi	r23, 0x00	; 0
     f52:	80 e5       	ldi	r24, 0x50	; 80
     f54:	0e 94 72 14 	call	0x28e4	; 0x28e4 <EEPROM_24AAxx_Read_Extended>
     f58:	08 95       	ret

00000f5a <EEPROM_Load_Part_Number>:
     f5a:	9c 01       	movw	r18, r24
     f5c:	4b e0       	ldi	r20, 0x0B	; 11
     f5e:	50 e0       	ldi	r21, 0x00	; 0
     f60:	64 e0       	ldi	r22, 0x04	; 4
     f62:	70 e0       	ldi	r23, 0x00	; 0
     f64:	80 e5       	ldi	r24, 0x50	; 80
     f66:	0e 94 72 14 	call	0x28e4	; 0x28e4 <EEPROM_24AAxx_Read_Extended>
     f6a:	08 95       	ret

00000f6c <EEPROM_Load_Emitter_Node_ID>:
     f6c:	9c 01       	movw	r18, r24
     f6e:	4a e0       	ldi	r20, 0x0A	; 10
     f70:	50 e0       	ldi	r21, 0x00	; 0
     f72:	6f e0       	ldi	r22, 0x0F	; 15
     f74:	70 e0       	ldi	r23, 0x00	; 0
     f76:	80 e5       	ldi	r24, 0x50	; 80
     f78:	0e 94 72 14 	call	0x28e4	; 0x28e4 <EEPROM_24AAxx_Read_Extended>
     f7c:	08 95       	ret

00000f7e <EEPROM_Load_Receiver_Central_ID>:
     f7e:	9c 01       	movw	r18, r24
     f80:	4b e0       	ldi	r20, 0x0B	; 11
     f82:	50 e0       	ldi	r21, 0x00	; 0
     f84:	69 e1       	ldi	r22, 0x19	; 25
     f86:	70 e0       	ldi	r23, 0x00	; 0
     f88:	80 e5       	ldi	r24, 0x50	; 80
     f8a:	0e 94 72 14 	call	0x28e4	; 0x28e4 <EEPROM_24AAxx_Read_Extended>
     f8e:	08 95       	ret

00000f90 <EEPROM_Load_Data_Frame_Counter>:
     f90:	9c 01       	movw	r18, r24
     f92:	41 e0       	ldi	r20, 0x01	; 1
     f94:	50 e0       	ldi	r21, 0x00	; 0
     f96:	64 e2       	ldi	r22, 0x24	; 36
     f98:	70 e0       	ldi	r23, 0x00	; 0
     f9a:	80 e5       	ldi	r24, 0x50	; 80
     f9c:	0e 94 72 14 	call	0x28e4	; 0x28e4 <EEPROM_24AAxx_Read_Extended>
     fa0:	08 95       	ret

00000fa2 <EEPROM_Load_Data_Frame_Index>:
     fa2:	9c 01       	movw	r18, r24
     fa4:	41 e0       	ldi	r20, 0x01	; 1
     fa6:	50 e0       	ldi	r21, 0x00	; 0
     fa8:	65 e2       	ldi	r22, 0x25	; 37
     faa:	70 e0       	ldi	r23, 0x00	; 0
     fac:	80 e5       	ldi	r24, 0x50	; 80
     fae:	0e 94 72 14 	call	0x28e4	; 0x28e4 <EEPROM_24AAxx_Read_Extended>
     fb2:	08 95       	ret

00000fb4 <EEPROM_Save_Data_Frame>:
     fb4:	9c 01       	movw	r18, r24
     fb6:	40 e9       	ldi	r20, 0x90	; 144
     fb8:	51 e0       	ldi	r21, 0x01	; 1
     fba:	80 e5       	ldi	r24, 0x50	; 80
     fbc:	0e 94 8a 13 	call	0x2714	; 0x2714 <EEPROM_24AAxx_Write_Extended>
     fc0:	08 95       	ret

00000fc2 <EEPROM_Load_Data_Frame>:
     fc2:	9c 01       	movw	r18, r24
     fc4:	40 e9       	ldi	r20, 0x90	; 144
     fc6:	51 e0       	ldi	r21, 0x01	; 1
     fc8:	80 e5       	ldi	r24, 0x50	; 80
     fca:	0e 94 72 14 	call	0x28e4	; 0x28e4 <EEPROM_24AAxx_Read_Extended>
     fce:	08 95       	ret

00000fd0 <EEPROM_Clear_Data_Frames_Only>:
     fd0:	0f 93       	push	r16
     fd2:	1f 93       	push	r17
     fd4:	cf 93       	push	r28
     fd6:	df 93       	push	r29
     fd8:	1f 92       	push	r1
     fda:	cd b7       	in	r28, 0x3d	; 61
     fdc:	de b7       	in	r29, 0x3e	; 62
     fde:	19 82       	std	Y+1, r1	; 0x01
     fe0:	ce 01       	movw	r24, r28
     fe2:	01 96       	adiw	r24, 0x01	; 1
     fe4:	0e 94 80 07 	call	0xf00	; 0xf00 <EEPROM_Save_Data_Frame_Counter>
     fe8:	81 30       	cpi	r24, 0x01	; 1
     fea:	01 f1       	breq	.+64     	; 0x102c <EEPROM_Clear_Data_Frames_Only+0x5c>
     fec:	ce 01       	movw	r24, r28
     fee:	01 96       	adiw	r24, 0x01	; 1
     ff0:	0e 94 89 07 	call	0xf12	; 0xf12 <EEPROM_Save_Data_Frame_Index>
     ff4:	81 30       	cpi	r24, 0x01	; 1
     ff6:	d1 f0       	breq	.+52     	; 0x102c <EEPROM_Clear_Data_Frames_Only+0x5c>
     ff8:	00 e0       	ldi	r16, 0x00	; 0
     ffa:	10 e0       	ldi	r17, 0x00	; 0
     ffc:	14 c0       	rjmp	.+40     	; 0x1026 <EEPROM_Clear_Data_Frames_Only+0x56>
     ffe:	80 e9       	ldi	r24, 0x90	; 144
    1000:	91 e0       	ldi	r25, 0x01	; 1
    1002:	08 9f       	mul	r16, r24
    1004:	b0 01       	movw	r22, r0
    1006:	09 9f       	mul	r16, r25
    1008:	70 0d       	add	r23, r0
    100a:	18 9f       	mul	r17, r24
    100c:	70 0d       	add	r23, r0
    100e:	11 24       	eor	r1, r1
    1010:	6a 5d       	subi	r22, 0xDA	; 218
    1012:	7f 4f       	sbci	r23, 0xFF	; 255
    1014:	40 e9       	ldi	r20, 0x90	; 144
    1016:	51 e0       	ldi	r21, 0x01	; 1
    1018:	80 e5       	ldi	r24, 0x50	; 80
    101a:	0e 94 05 14 	call	0x280a	; 0x280a <EEPROM_24AAxx_Clear_Extended>
    101e:	81 30       	cpi	r24, 0x01	; 1
    1020:	29 f0       	breq	.+10     	; 0x102c <EEPROM_Clear_Data_Frames_Only+0x5c>
    1022:	0f 5f       	subi	r16, 0xFF	; 255
    1024:	1f 4f       	sbci	r17, 0xFF	; 255
    1026:	04 31       	cpi	r16, 0x14	; 20
    1028:	11 05       	cpc	r17, r1
    102a:	48 f3       	brcs	.-46     	; 0xffe <EEPROM_Clear_Data_Frames_Only+0x2e>
    102c:	0f 90       	pop	r0
    102e:	df 91       	pop	r29
    1030:	cf 91       	pop	r28
    1032:	1f 91       	pop	r17
    1034:	0f 91       	pop	r16
    1036:	08 95       	ret

00001038 <EEPROM_Save_Backup_Data_Frame>:
	
	return i2c_error;	
}


uint8_t EEPROM_Save_Backup_Data_Frame(uint8_t *data_frame){
    1038:	cf 93       	push	r28
    103a:	df 93       	push	r29
    103c:	ec 01       	movw	r28, r24
	
	uint8_t i2c_error = I2C_OK;
	uint16_t pos;

	/* Load frame counter from EEPROM */	
	i2c_error = EEPROM_Load_Data_Frame_Counter(&eeprom_data_frame_counter);  
    103e:	89 ef       	ldi	r24, 0xF9	; 249
    1040:	92 e0       	ldi	r25, 0x02	; 2
    1042:	0e 94 c8 07 	call	0xf90	; 0xf90 <EEPROM_Load_Data_Frame_Counter>
	if(i2c_error == I2C_ERROR){
    1046:	81 30       	cpi	r24, 0x01	; 1
    1048:	99 f1       	breq	.+102    	; 0x10b0 <EEPROM_Save_Backup_Data_Frame+0x78>
		return i2c_error;
	}
	
	/* Load frame index from EEPROM */
	i2c_error = EEPROM_Load_Data_Frame_Index(&eeprom_data_frame_index);
    104a:	8a ef       	ldi	r24, 0xFA	; 250
    104c:	92 e0       	ldi	r25, 0x02	; 2
    104e:	0e 94 d1 07 	call	0xfa2	; 0xfa2 <EEPROM_Load_Data_Frame_Index>
	if(i2c_error == I2C_ERROR){
    1052:	81 30       	cpi	r24, 0x01	; 1
    1054:	69 f1       	breq	.+90     	; 0x10b0 <EEPROM_Save_Backup_Data_Frame+0x78>
		return i2c_error;
	}
	
	/* Determine the current position in memory */
	pos = EEPROM_FIRST_DATA_FRAME_POSITION + (eeprom_data_frame_index * SYSTEM_DATA_FRAME_MAX_SIZE_IN_BYTES);
    1056:	20 91 fa 02 	lds	r18, 0x02FA	; 0x8002fa <eeprom_data_frame_index>
    105a:	80 e9       	ldi	r24, 0x90	; 144
    105c:	91 e0       	ldi	r25, 0x01	; 1
    105e:	28 9f       	mul	r18, r24
    1060:	b0 01       	movw	r22, r0
    1062:	29 9f       	mul	r18, r25
    1064:	70 0d       	add	r23, r0
    1066:	11 24       	eor	r1, r1
    1068:	6a 5d       	subi	r22, 0xDA	; 218
    106a:	7f 4f       	sbci	r23, 0xFF	; 255
	
	/* Save backup data frame in EEPROM */
	i2c_error = EEPROM_Save_Data_Frame(data_frame, pos);
    106c:	ce 01       	movw	r24, r28
    106e:	0e 94 da 07 	call	0xfb4	; 0xfb4 <EEPROM_Save_Data_Frame>
	if(i2c_error == I2C_ERROR){
    1072:	81 30       	cpi	r24, 0x01	; 1
    1074:	e9 f0       	breq	.+58     	; 0x10b0 <EEPROM_Save_Backup_Data_Frame+0x78>
		return i2c_error;
	}
	
	/* Update data frame index */
	eeprom_data_frame_index++;
    1076:	80 91 fa 02 	lds	r24, 0x02FA	; 0x8002fa <eeprom_data_frame_index>
    107a:	8f 5f       	subi	r24, 0xFF	; 255
    107c:	80 93 fa 02 	sts	0x02FA, r24	; 0x8002fa <eeprom_data_frame_index>
	if(eeprom_data_frame_index >= EEPROM_N_BACKUP_FRAMES){
    1080:	84 31       	cpi	r24, 0x14	; 20
    1082:	10 f0       	brcs	.+4      	; 0x1088 <EEPROM_Save_Backup_Data_Frame+0x50>
		eeprom_data_frame_index = 0;
    1084:	10 92 fa 02 	sts	0x02FA, r1	; 0x8002fa <eeprom_data_frame_index>
	}

	/* Update data frame counter */
	eeprom_data_frame_counter++;
    1088:	80 91 f9 02 	lds	r24, 0x02F9	; 0x8002f9 <eeprom_data_frame_counter>
    108c:	8f 5f       	subi	r24, 0xFF	; 255
    108e:	80 93 f9 02 	sts	0x02F9, r24	; 0x8002f9 <eeprom_data_frame_counter>
	if(eeprom_data_frame_counter >= EEPROM_N_BACKUP_FRAMES){
    1092:	84 31       	cpi	r24, 0x14	; 20
    1094:	18 f0       	brcs	.+6      	; 0x109c <EEPROM_Save_Backup_Data_Frame+0x64>
		eeprom_data_frame_counter = EEPROM_N_BACKUP_FRAMES; 
    1096:	84 e1       	ldi	r24, 0x14	; 20
    1098:	80 93 f9 02 	sts	0x02F9, r24	; 0x8002f9 <eeprom_data_frame_counter>
	}
	
	/* Save the new value of frame index */
	i2c_error = EEPROM_Save_Data_Frame_Index(&eeprom_data_frame_index);
    109c:	8a ef       	ldi	r24, 0xFA	; 250
    109e:	92 e0       	ldi	r25, 0x02	; 2
    10a0:	0e 94 89 07 	call	0xf12	; 0xf12 <EEPROM_Save_Data_Frame_Index>
	if(i2c_error == I2C_ERROR){
    10a4:	81 30       	cpi	r24, 0x01	; 1
    10a6:	21 f0       	breq	.+8      	; 0x10b0 <EEPROM_Save_Backup_Data_Frame+0x78>
		return i2c_error;
	}	
	
	/* Save the new value of frame counter */		
	i2c_error = EEPROM_Save_Data_Frame_Counter(&eeprom_data_frame_counter);
    10a8:	89 ef       	ldi	r24, 0xF9	; 249
    10aa:	92 e0       	ldi	r25, 0x02	; 2
    10ac:	0e 94 80 07 	call	0xf00	; 0xf00 <EEPROM_Save_Data_Frame_Counter>

	return i2c_error;
}
    10b0:	df 91       	pop	r29
    10b2:	cf 91       	pop	r28
    10b4:	08 95       	ret

000010b6 <Test_Switch_Interrupt_Initialize>:
#include "external_interrupts.h"


void Test_Switch_Interrupt_Initialize(void){
	/* Enable interrupt by 0 Level in INT0 pin */
	EICRA &= ~(1 << ISC00);
    10b6:	e9 e6       	ldi	r30, 0x69	; 105
    10b8:	f0 e0       	ldi	r31, 0x00	; 0
    10ba:	80 81       	ld	r24, Z
    10bc:	8e 7f       	andi	r24, 0xFE	; 254
    10be:	80 83       	st	Z, r24
	EICRA &= ~(1 << ISC01);
    10c0:	80 81       	ld	r24, Z
    10c2:	8d 7f       	andi	r24, 0xFD	; 253
    10c4:	80 83       	st	Z, r24
	EIMSK &= ~(1 << INT0);	
    10c6:	8d b3       	in	r24, 0x1d	; 29
    10c8:	8e 7f       	andi	r24, 0xFE	; 254
    10ca:	8d bb       	out	0x1d, r24	; 29
    10cc:	08 95       	ret

000010ce <Test_Switch_Interrupt_Enable>:
}


void Test_Switch_Interrupt_Enable(void){
	EIFR |= (1 << INTF0);
    10ce:	8c b3       	in	r24, 0x1c	; 28
    10d0:	81 60       	ori	r24, 0x01	; 1
    10d2:	8c bb       	out	0x1c, r24	; 28
	EIMSK |= (1 << INT0);	
    10d4:	8d b3       	in	r24, 0x1d	; 29
    10d6:	81 60       	ori	r24, 0x01	; 1
    10d8:	8d bb       	out	0x1d, r24	; 29
    10da:	08 95       	ret

000010dc <Test_Switch_Interrupt_Disable>:
}


void Test_Switch_Interrupt_Disable(void){
	EIMSK &= ~(1 << INT0);	
    10dc:	8d b3       	in	r24, 0x1d	; 29
    10de:	8e 7f       	andi	r24, 0xFE	; 254
    10e0:	8d bb       	out	0x1d, r24	; 29
    10e2:	08 95       	ret

000010e4 <RTC_Interrupt_Initialize>:
}


void RTC_Interrupt_Initialize(void){
	/* Enable interrupt by 0 Level in INT1 pin */
	EICRA &= ~(1 << ISC10);
    10e4:	e9 e6       	ldi	r30, 0x69	; 105
    10e6:	f0 e0       	ldi	r31, 0x00	; 0
    10e8:	80 81       	ld	r24, Z
    10ea:	8b 7f       	andi	r24, 0xFB	; 251
    10ec:	80 83       	st	Z, r24
	EICRA &= ~(1 << ISC11);
    10ee:	80 81       	ld	r24, Z
    10f0:	87 7f       	andi	r24, 0xF7	; 247
    10f2:	80 83       	st	Z, r24
	EIMSK &= ~(1 << INT1);	
    10f4:	8d b3       	in	r24, 0x1d	; 29
    10f6:	8d 7f       	andi	r24, 0xFD	; 253
    10f8:	8d bb       	out	0x1d, r24	; 29
    10fa:	08 95       	ret

000010fc <RTC_Interrupt_Enable>:
}


void RTC_Interrupt_Enable(void){
	EIFR |= (1 << INTF1);
    10fc:	8c b3       	in	r24, 0x1c	; 28
    10fe:	82 60       	ori	r24, 0x02	; 2
    1100:	8c bb       	out	0x1c, r24	; 28
	EIMSK |= (1 << INT1);	
    1102:	8d b3       	in	r24, 0x1d	; 29
    1104:	82 60       	ori	r24, 0x02	; 2
    1106:	8d bb       	out	0x1d, r24	; 29
    1108:	08 95       	ret

0000110a <RTC_Interrupt_Disable>:
}


void RTC_Interrupt_Disable(void){
	EIMSK &= ~(1 << INT1);	
    110a:	8d b3       	in	r24, 0x1d	; 29
    110c:	8d 7f       	andi	r24, 0xFD	; 253
    110e:	8d bb       	out	0x1d, r24	; 29
    1110:	08 95       	ret

00001112 <Ext_Int_Pin_Initialize>:
	/* Turn off Timer0 */
	Timer0_Off();

	return i2c_error;
		
}
    1112:	8a b1       	in	r24, 0x0a	; 10
    1114:	87 7f       	andi	r24, 0xF7	; 247
    1116:	8a b9       	out	0x0a, r24	; 10
    1118:	8b b1       	in	r24, 0x0b	; 11
    111a:	88 60       	ori	r24, 0x08	; 8
    111c:	8b b9       	out	0x0b, r24	; 11
    111e:	08 95       	ret

00001120 <TWI0_Master_Initialize>:
    1120:	cf 93       	push	r28
    1122:	df 93       	push	r29
    1124:	00 d0       	rcall	.+0      	; 0x1126 <TWI0_Master_Initialize+0x6>
    1126:	00 d0       	rcall	.+0      	; 0x1128 <TWI0_Master_Initialize+0x8>
    1128:	cd b7       	in	r28, 0x3d	; 61
    112a:	de b7       	in	r29, 0x3e	; 62
    112c:	82 e0       	ldi	r24, 0x02	; 2
    112e:	89 83       	std	Y+1, r24	; 0x01
    1130:	1c 82       	std	Y+4, r1	; 0x04
    1132:	ce 01       	movw	r24, r28
    1134:	01 96       	adiw	r24, 0x01	; 1
    1136:	0e 94 26 19 	call	0x324c	; 0x324c <TWI0_Configurar>
    113a:	0f 90       	pop	r0
    113c:	0f 90       	pop	r0
    113e:	0f 90       	pop	r0
    1140:	0f 90       	pop	r0
    1142:	df 91       	pop	r29
    1144:	cf 91       	pop	r28
    1146:	08 95       	ret

00001148 <Boost_PSU_Initialize>:
    1148:	84 b1       	in	r24, 0x04	; 4
    114a:	82 60       	ori	r24, 0x02	; 2
    114c:	84 b9       	out	0x04, r24	; 4
    114e:	85 b1       	in	r24, 0x05	; 5
    1150:	8d 7f       	andi	r24, 0xFD	; 253
    1152:	85 b9       	out	0x05, r24	; 5
    1154:	08 95       	ret

00001156 <Boost_PSU_Power_On>:
    1156:	85 b1       	in	r24, 0x05	; 5
    1158:	82 60       	ori	r24, 0x02	; 2
    115a:	85 b9       	out	0x05, r24	; 5
    115c:	08 95       	ret

0000115e <Boost_PSU_Power_Off>:
    115e:	ec eb       	ldi	r30, 0xBC	; 188
    1160:	f0 e0       	ldi	r31, 0x00	; 0
    1162:	80 81       	ld	r24, Z
    1164:	8b 7f       	andi	r24, 0xFB	; 251
    1166:	80 83       	st	Z, r24
    1168:	85 b1       	in	r24, 0x05	; 5
    116a:	8d 7f       	andi	r24, 0xFD	; 253
    116c:	85 b9       	out	0x05, r24	; 5
    116e:	08 95       	ret

00001170 <Data_Frame_Build>:
    1170:	cf 92       	push	r12
    1172:	df 92       	push	r13
    1174:	ef 92       	push	r14
    1176:	ff 92       	push	r15
    1178:	0f 93       	push	r16
    117a:	1f 93       	push	r17
    117c:	cf 93       	push	r28
    117e:	87 e0       	ldi	r24, 0x07	; 7
    1180:	91 e0       	ldi	r25, 0x01	; 1
    1182:	0e 94 9b 07 	call	0xf36	; 0xf36 <EEPROM_Load_Number_Of_Sensors>
    1186:	81 30       	cpi	r24, 0x01	; 1
    1188:	09 f4       	brne	.+2      	; 0x118c <Data_Frame_Build+0x1c>
    118a:	76 c1       	rjmp	.+748    	; 0x1478 <Data_Frame_Build+0x308>
    118c:	84 e0       	ldi	r24, 0x04	; 4
    118e:	91 e0       	ldi	r25, 0x01	; 1
    1190:	0e 94 a4 07 	call	0xf48	; 0xf48 <EEPROM_Load_Measure_Period_In_Days>
    1194:	81 30       	cpi	r24, 0x01	; 1
    1196:	09 f4       	brne	.+2      	; 0x119a <Data_Frame_Build+0x2a>
    1198:	6f c1       	rjmp	.+734    	; 0x1478 <Data_Frame_Build+0x308>
    119a:	83 e5       	ldi	r24, 0x53	; 83
    119c:	95 e0       	ldi	r25, 0x05	; 5
    119e:	0e 94 ad 07 	call	0xf5a	; 0xf5a <EEPROM_Load_Part_Number>
    11a2:	81 30       	cpi	r24, 0x01	; 1
    11a4:	09 f4       	brne	.+2      	; 0x11a8 <Data_Frame_Build+0x38>
    11a6:	68 c1       	rjmp	.+720    	; 0x1478 <Data_Frame_Build+0x308>
    11a8:	80 e4       	ldi	r24, 0x40	; 64
    11aa:	95 e0       	ldi	r25, 0x05	; 5
    11ac:	0e 94 b6 07 	call	0xf6c	; 0xf6c <EEPROM_Load_Emitter_Node_ID>
    11b0:	81 30       	cpi	r24, 0x01	; 1
    11b2:	09 f4       	brne	.+2      	; 0x11b6 <Data_Frame_Build+0x46>
    11b4:	61 c1       	rjmp	.+706    	; 0x1478 <Data_Frame_Build+0x308>
    11b6:	e0 e4       	ldi	r30, 0x40	; 64
    11b8:	f5 e0       	ldi	r31, 0x05	; 5
    11ba:	87 81       	ldd	r24, Z+7	; 0x07
    11bc:	90 e0       	ldi	r25, 0x00	; 0
    11be:	ac 01       	movw	r20, r24
    11c0:	40 53       	subi	r20, 0x30	; 48
    11c2:	51 09       	sbc	r21, r1
    11c4:	26 81       	ldd	r18, Z+6	; 0x06
    11c6:	30 e0       	ldi	r19, 0x00	; 0
    11c8:	c9 01       	movw	r24, r18
    11ca:	c0 97       	sbiw	r24, 0x30	; 48
    11cc:	bc 01       	movw	r22, r24
    11ce:	66 0f       	add	r22, r22
    11d0:	77 1f       	adc	r23, r23
    11d2:	9c 01       	movw	r18, r24
    11d4:	22 0f       	add	r18, r18
    11d6:	33 1f       	adc	r19, r19
    11d8:	22 0f       	add	r18, r18
    11da:	33 1f       	adc	r19, r19
    11dc:	22 0f       	add	r18, r18
    11de:	33 1f       	adc	r19, r19
    11e0:	cb 01       	movw	r24, r22
    11e2:	82 0f       	add	r24, r18
    11e4:	93 1f       	adc	r25, r19
    11e6:	84 0f       	add	r24, r20
    11e8:	95 1f       	adc	r25, r21
    11ea:	90 93 06 01 	sts	0x0106, r25	; 0x800106 <this_node_id+0x1>
    11ee:	80 93 05 01 	sts	0x0105, r24	; 0x800105 <this_node_id>
    11f2:	84 e1       	ldi	r24, 0x14	; 20
    11f4:	95 e0       	ldi	r25, 0x05	; 5
    11f6:	0e 94 bf 07 	call	0xf7e	; 0xf7e <EEPROM_Load_Receiver_Central_ID>
    11fa:	c8 2f       	mov	r28, r24
    11fc:	81 30       	cpi	r24, 0x01	; 1
    11fe:	09 f4       	brne	.+2      	; 0x1202 <Data_Frame_Build+0x92>
    1200:	3b c1       	rjmp	.+630    	; 0x1478 <Data_Frame_Build+0x308>
    1202:	80 91 04 01 	lds	r24, 0x0104	; 0x800104 <measure_period_in_days>
    1206:	1f 92       	push	r1
    1208:	8f 93       	push	r24
    120a:	8d e6       	ldi	r24, 0x6D	; 109
    120c:	91 e0       	ldi	r25, 0x01	; 1
    120e:	9f 93       	push	r25
    1210:	8f 93       	push	r24
    1212:	0e e4       	ldi	r16, 0x4E	; 78
    1214:	15 e0       	ldi	r17, 0x05	; 5
    1216:	1f 93       	push	r17
    1218:	0f 93       	push	r16
    121a:	0e 94 fb 21 	call	0x43f6	; 0x43f6 <sprintf>
    121e:	f8 01       	movw	r30, r16
    1220:	14 82       	std	Z+4, r1	; 0x04
    1222:	ea e0       	ldi	r30, 0x0A	; 10
    1224:	f3 e0       	ldi	r31, 0x03	; 3
    1226:	82 81       	ldd	r24, Z+2	; 0x02
    1228:	31 81       	ldd	r19, Z+1	; 0x01
    122a:	20 81       	ld	r18, Z
    122c:	90 e0       	ldi	r25, 0x00	; 0
    122e:	80 53       	subi	r24, 0x30	; 48
    1230:	98 4f       	sbci	r25, 0xF8	; 248
    1232:	9f 93       	push	r25
    1234:	8f 93       	push	r24
    1236:	1f 92       	push	r1
    1238:	3f 93       	push	r19
    123a:	1f 92       	push	r1
    123c:	2f 93       	push	r18
    123e:	84 e7       	ldi	r24, 0x74	; 116
    1240:	91 e0       	ldi	r25, 0x01	; 1
    1242:	9f 93       	push	r25
    1244:	8f 93       	push	r24
    1246:	0f e1       	ldi	r16, 0x1F	; 31
    1248:	15 e0       	ldi	r17, 0x05	; 5
    124a:	1f 93       	push	r17
    124c:	0f 93       	push	r16
    124e:	0e 94 fb 21 	call	0x43f6	; 0x43f6 <sprintf>
    1252:	f8 01       	movw	r30, r16
    1254:	14 86       	std	Z+12, r1	; 0x0c
    1256:	80 91 09 03 	lds	r24, 0x0309	; 0x800309 <time_buffer+0x3>
    125a:	2d b7       	in	r18, 0x3d	; 61
    125c:	3e b7       	in	r19, 0x3e	; 62
    125e:	20 5f       	subi	r18, 0xF0	; 240
    1260:	3f 4f       	sbci	r19, 0xFF	; 255
    1262:	0f b6       	in	r0, 0x3f	; 63
    1264:	f8 94       	cli
    1266:	3e bf       	out	0x3e, r19	; 62
    1268:	0f be       	out	0x3f, r0	; 63
    126a:	2d bf       	out	0x3d, r18	; 61
    126c:	81 11       	cpse	r24, r1
    126e:	1b c0       	rjmp	.+54     	; 0x12a6 <Data_Frame_Build+0x136>
    1270:	e6 e0       	ldi	r30, 0x06	; 6
    1272:	f3 e0       	ldi	r31, 0x03	; 3
    1274:	91 81       	ldd	r25, Z+1	; 0x01
    1276:	80 81       	ld	r24, Z
    1278:	1f 92       	push	r1
    127a:	9f 93       	push	r25
    127c:	1f 92       	push	r1
    127e:	8f 93       	push	r24
    1280:	85 e8       	ldi	r24, 0x85	; 133
    1282:	91 e0       	ldi	r25, 0x01	; 1
    1284:	9f 93       	push	r25
    1286:	8f 93       	push	r24
    1288:	8e e5       	ldi	r24, 0x5E	; 94
    128a:	95 e0       	ldi	r25, 0x05	; 5
    128c:	9f 93       	push	r25
    128e:	8f 93       	push	r24
    1290:	0e 94 fb 21 	call	0x43f6	; 0x43f6 <sprintf>
    1294:	8d b7       	in	r24, 0x3d	; 61
    1296:	9e b7       	in	r25, 0x3e	; 62
    1298:	08 96       	adiw	r24, 0x08	; 8
    129a:	0f b6       	in	r0, 0x3f	; 63
    129c:	f8 94       	cli
    129e:	9e bf       	out	0x3e, r25	; 62
    12a0:	0f be       	out	0x3f, r0	; 63
    12a2:	8d bf       	out	0x3d, r24	; 61
    12a4:	1a c0       	rjmp	.+52     	; 0x12da <Data_Frame_Build+0x16a>
    12a6:	e6 e0       	ldi	r30, 0x06	; 6
    12a8:	f3 e0       	ldi	r31, 0x03	; 3
    12aa:	91 81       	ldd	r25, Z+1	; 0x01
    12ac:	80 81       	ld	r24, Z
    12ae:	1f 92       	push	r1
    12b0:	9f 93       	push	r25
    12b2:	1f 92       	push	r1
    12b4:	8f 93       	push	r24
    12b6:	86 e9       	ldi	r24, 0x96	; 150
    12b8:	91 e0       	ldi	r25, 0x01	; 1
    12ba:	9f 93       	push	r25
    12bc:	8f 93       	push	r24
    12be:	8e e5       	ldi	r24, 0x5E	; 94
    12c0:	95 e0       	ldi	r25, 0x05	; 5
    12c2:	9f 93       	push	r25
    12c4:	8f 93       	push	r24
    12c6:	0e 94 fb 21 	call	0x43f6	; 0x43f6 <sprintf>
    12ca:	ed b7       	in	r30, 0x3d	; 61
    12cc:	fe b7       	in	r31, 0x3e	; 62
    12ce:	38 96       	adiw	r30, 0x08	; 8
    12d0:	0f b6       	in	r0, 0x3f	; 63
    12d2:	f8 94       	cli
    12d4:	fe bf       	out	0x3e, r31	; 62
    12d6:	0f be       	out	0x3f, r0	; 63
    12d8:	ed bf       	out	0x3d, r30	; 61
    12da:	10 92 6a 05 	sts	0x056A, r1	; 0x80056a <time_str+0xc>
    12de:	80 91 03 01 	lds	r24, 0x0103	; 0x800103 <sensor_status>
    12e2:	1f 92       	push	r1
    12e4:	8f 93       	push	r24
    12e6:	87 ea       	ldi	r24, 0xA7	; 167
    12e8:	91 e0       	ldi	r25, 0x01	; 1
    12ea:	9f 93       	push	r25
    12ec:	8f 93       	push	r24
    12ee:	0a e4       	ldi	r16, 0x4A	; 74
    12f0:	15 e0       	ldi	r17, 0x05	; 5
    12f2:	1f 93       	push	r17
    12f4:	0f 93       	push	r16
    12f6:	0e 94 fb 21 	call	0x43f6	; 0x43f6 <sprintf>
    12fa:	f8 01       	movw	r30, r16
    12fc:	13 82       	std	Z+3, r1	; 0x03
    12fe:	e0 e0       	ldi	r30, 0x00	; 0
    1300:	f3 e0       	ldi	r31, 0x03	; 3
    1302:	85 81       	ldd	r24, Z+5	; 0x05
    1304:	8f 93       	push	r24
    1306:	84 81       	ldd	r24, Z+4	; 0x04
    1308:	8f 93       	push	r24
    130a:	8c ea       	ldi	r24, 0xAC	; 172
    130c:	91 e0       	ldi	r25, 0x01	; 1
    130e:	9f 93       	push	r25
    1310:	8f 93       	push	r24
    1312:	0e e0       	ldi	r16, 0x0E	; 14
    1314:	15 e0       	ldi	r17, 0x05	; 5
    1316:	1f 93       	push	r17
    1318:	0f 93       	push	r16
    131a:	0e 94 fb 21 	call	0x43f6	; 0x43f6 <sprintf>
    131e:	f8 01       	movw	r30, r16
    1320:	15 82       	std	Z+5, r1	; 0x05
    1322:	80 91 07 01 	lds	r24, 0x0107	; 0x800107 <number_of_sensors>
    1326:	2d b7       	in	r18, 0x3d	; 61
    1328:	3e b7       	in	r19, 0x3e	; 62
    132a:	24 5f       	subi	r18, 0xF4	; 244
    132c:	3f 4f       	sbci	r19, 0xFF	; 255
    132e:	0f b6       	in	r0, 0x3f	; 63
    1330:	f8 94       	cli
    1332:	3e bf       	out	0x3e, r19	; 62
    1334:	0f be       	out	0x3f, r0	; 63
    1336:	2d bf       	out	0x3d, r18	; 61
    1338:	81 30       	cpi	r24, 0x01	; 1
    133a:	21 f5       	brne	.+72     	; 0x1384 <Data_Frame_Build+0x214>
    133c:	e0 e0       	ldi	r30, 0x00	; 0
    133e:	f3 e0       	ldi	r31, 0x03	; 3
    1340:	81 81       	ldd	r24, Z+1	; 0x01
    1342:	8f 93       	push	r24
    1344:	80 81       	ld	r24, Z
    1346:	8f 93       	push	r24
    1348:	8c ea       	ldi	r24, 0xAC	; 172
    134a:	91 e0       	ldi	r25, 0x01	; 1
    134c:	9f 93       	push	r25
    134e:	8f 93       	push	r24
    1350:	0c e6       	ldi	r16, 0x6C	; 108
    1352:	15 e0       	ldi	r17, 0x05	; 5
    1354:	1f 93       	push	r17
    1356:	0f 93       	push	r16
    1358:	0e 94 fb 21 	call	0x43f6	; 0x43f6 <sprintf>
    135c:	f8 01       	movw	r30, r16
    135e:	15 82       	std	Z+5, r1	; 0x05
    1360:	86 e0       	ldi	r24, 0x06	; 6
    1362:	e3 eb       	ldi	r30, 0xB3	; 179
    1364:	f1 e0       	ldi	r31, 0x01	; 1
    1366:	a8 e0       	ldi	r26, 0x08	; 8
    1368:	b5 e0       	ldi	r27, 0x05	; 5
    136a:	01 90       	ld	r0, Z+
    136c:	0d 92       	st	X+, r0
    136e:	8a 95       	dec	r24
    1370:	e1 f7       	brne	.-8      	; 0x136a <Data_Frame_Build+0x1fa>
    1372:	10 92 0d 05 	sts	0x050D, r1	; 0x80050d <emitter_resistance_2_str+0x5>
    1376:	0f 90       	pop	r0
    1378:	0f 90       	pop	r0
    137a:	0f 90       	pop	r0
    137c:	0f 90       	pop	r0
    137e:	0f 90       	pop	r0
    1380:	0f 90       	pop	r0
    1382:	4e c0       	rjmp	.+156    	; 0x1420 <Data_Frame_Build+0x2b0>
    1384:	80 91 07 01 	lds	r24, 0x0107	; 0x800107 <number_of_sensors>
    1388:	82 30       	cpi	r24, 0x02	; 2
    138a:	a1 f5       	brne	.+104    	; 0x13f4 <Data_Frame_Build+0x284>
    138c:	0f 2e       	mov	r0, r31
    138e:	f0 e0       	ldi	r31, 0x00	; 0
    1390:	ef 2e       	mov	r14, r31
    1392:	f3 e0       	ldi	r31, 0x03	; 3
    1394:	ff 2e       	mov	r15, r31
    1396:	f0 2d       	mov	r31, r0
    1398:	f7 01       	movw	r30, r14
    139a:	81 81       	ldd	r24, Z+1	; 0x01
    139c:	8f 93       	push	r24
    139e:	80 81       	ld	r24, Z
    13a0:	8f 93       	push	r24
    13a2:	0c ea       	ldi	r16, 0xAC	; 172
    13a4:	11 e0       	ldi	r17, 0x01	; 1
    13a6:	1f 93       	push	r17
    13a8:	0f 93       	push	r16
    13aa:	0f 2e       	mov	r0, r31
    13ac:	fc e6       	ldi	r31, 0x6C	; 108
    13ae:	cf 2e       	mov	r12, r31
    13b0:	f5 e0       	ldi	r31, 0x05	; 5
    13b2:	df 2e       	mov	r13, r31
    13b4:	f0 2d       	mov	r31, r0
    13b6:	df 92       	push	r13
    13b8:	cf 92       	push	r12
    13ba:	0e 94 fb 21 	call	0x43f6	; 0x43f6 <sprintf>
    13be:	f6 01       	movw	r30, r12
    13c0:	15 82       	std	Z+5, r1	; 0x05
    13c2:	f7 01       	movw	r30, r14
    13c4:	83 81       	ldd	r24, Z+3	; 0x03
    13c6:	8f 93       	push	r24
    13c8:	82 81       	ldd	r24, Z+2	; 0x02
    13ca:	8f 93       	push	r24
    13cc:	1f 93       	push	r17
    13ce:	0f 93       	push	r16
    13d0:	08 e0       	ldi	r16, 0x08	; 8
    13d2:	15 e0       	ldi	r17, 0x05	; 5
    13d4:	1f 93       	push	r17
    13d6:	0f 93       	push	r16
    13d8:	0e 94 fb 21 	call	0x43f6	; 0x43f6 <sprintf>
    13dc:	f8 01       	movw	r30, r16
    13de:	15 82       	std	Z+5, r1	; 0x05
    13e0:	2d b7       	in	r18, 0x3d	; 61
    13e2:	3e b7       	in	r19, 0x3e	; 62
    13e4:	24 5f       	subi	r18, 0xF4	; 244
    13e6:	3f 4f       	sbci	r19, 0xFF	; 255
    13e8:	0f b6       	in	r0, 0x3f	; 63
    13ea:	f8 94       	cli
    13ec:	3e bf       	out	0x3e, r19	; 62
    13ee:	0f be       	out	0x3f, r0	; 63
    13f0:	2d bf       	out	0x3d, r18	; 61
    13f2:	16 c0       	rjmp	.+44     	; 0x1420 <Data_Frame_Build+0x2b0>
    13f4:	86 e0       	ldi	r24, 0x06	; 6
    13f6:	e9 eb       	ldi	r30, 0xB9	; 185
    13f8:	f1 e0       	ldi	r31, 0x01	; 1
    13fa:	ac e6       	ldi	r26, 0x6C	; 108
    13fc:	b5 e0       	ldi	r27, 0x05	; 5
    13fe:	01 90       	ld	r0, Z+
    1400:	0d 92       	st	X+, r0
    1402:	8a 95       	dec	r24
    1404:	e1 f7       	brne	.-8      	; 0x13fe <Data_Frame_Build+0x28e>
    1406:	10 92 71 05 	sts	0x0571, r1	; 0x800571 <emitter_resistance_1_str+0x5>
    140a:	86 e0       	ldi	r24, 0x06	; 6
    140c:	e9 eb       	ldi	r30, 0xB9	; 185
    140e:	f1 e0       	ldi	r31, 0x01	; 1
    1410:	a8 e0       	ldi	r26, 0x08	; 8
    1412:	b5 e0       	ldi	r27, 0x05	; 5
    1414:	01 90       	ld	r0, Z+
    1416:	0d 92       	st	X+, r0
    1418:	8a 95       	dec	r24
    141a:	e1 f7       	brne	.-8      	; 0x1414 <Data_Frame_Build+0x2a4>
    141c:	10 92 0d 05 	sts	0x050D, r1	; 0x80050d <emitter_resistance_2_str+0x5>
    1420:	ec e2       	ldi	r30, 0x2C	; 44
    1422:	f5 e0       	ldi	r31, 0x05	; 5
    1424:	83 e5       	ldi	r24, 0x53	; 83
    1426:	95 e0       	ldi	r25, 0x05	; 5
    1428:	91 83       	std	Z+1, r25	; 0x01
    142a:	80 83       	st	Z, r24
    142c:	80 e4       	ldi	r24, 0x40	; 64
    142e:	95 e0       	ldi	r25, 0x05	; 5
    1430:	93 83       	std	Z+3, r25	; 0x03
    1432:	82 83       	std	Z+2, r24	; 0x02
    1434:	84 e1       	ldi	r24, 0x14	; 20
    1436:	95 e0       	ldi	r25, 0x05	; 5
    1438:	95 83       	std	Z+5, r25	; 0x05
    143a:	84 83       	std	Z+4, r24	; 0x04
    143c:	8e e4       	ldi	r24, 0x4E	; 78
    143e:	95 e0       	ldi	r25, 0x05	; 5
    1440:	97 83       	std	Z+7, r25	; 0x07
    1442:	86 83       	std	Z+6, r24	; 0x06
    1444:	8f e1       	ldi	r24, 0x1F	; 31
    1446:	95 e0       	ldi	r25, 0x05	; 5
    1448:	91 87       	std	Z+9, r25	; 0x09
    144a:	80 87       	std	Z+8, r24	; 0x08
    144c:	8e e5       	ldi	r24, 0x5E	; 94
    144e:	95 e0       	ldi	r25, 0x05	; 5
    1450:	93 87       	std	Z+11, r25	; 0x0b
    1452:	82 87       	std	Z+10, r24	; 0x0a
    1454:	8a e4       	ldi	r24, 0x4A	; 74
    1456:	95 e0       	ldi	r25, 0x05	; 5
    1458:	95 87       	std	Z+13, r25	; 0x0d
    145a:	84 87       	std	Z+12, r24	; 0x0c
    145c:	8e e0       	ldi	r24, 0x0E	; 14
    145e:	95 e0       	ldi	r25, 0x05	; 5
    1460:	97 87       	std	Z+15, r25	; 0x0f
    1462:	86 87       	std	Z+14, r24	; 0x0e
    1464:	8c e6       	ldi	r24, 0x6C	; 108
    1466:	95 e0       	ldi	r25, 0x05	; 5
    1468:	91 8b       	std	Z+17, r25	; 0x11
    146a:	80 8b       	std	Z+16, r24	; 0x10
    146c:	88 e0       	ldi	r24, 0x08	; 8
    146e:	95 e0       	ldi	r25, 0x05	; 5
    1470:	93 8b       	std	Z+19, r25	; 0x13
    1472:	82 8b       	std	Z+18, r24	; 0x12
    1474:	8c 2f       	mov	r24, r28
    1476:	00 c0       	rjmp	.+0      	; 0x1478 <Data_Frame_Build+0x308>
    1478:	cf 91       	pop	r28
    147a:	1f 91       	pop	r17
    147c:	0f 91       	pop	r16
    147e:	ff 90       	pop	r15
    1480:	ef 90       	pop	r14
    1482:	df 90       	pop	r13
    1484:	cf 90       	pop	r12
    1486:	08 95       	ret

00001488 <System_Date_Update>:
    1488:	cf 93       	push	r28
    148a:	0e 94 ff 16 	call	0x2dfe	; 0x2dfe <RTC_Date_Read>
    148e:	c8 2f       	mov	r28, r24
    1490:	8a e0       	ldi	r24, 0x0A	; 10
    1492:	93 e0       	ldi	r25, 0x03	; 3
    1494:	0e 94 62 17 	call	0x2ec4	; 0x2ec4 <RTC_Get_Date>
    1498:	8c 2f       	mov	r24, r28
    149a:	cf 91       	pop	r28
    149c:	08 95       	ret

0000149e <System_Time_Update>:
    149e:	cf 93       	push	r28
    14a0:	0e 94 2d 16 	call	0x2c5a	; 0x2c5a <RTC_Time_Read_12h>
    14a4:	c8 2f       	mov	r28, r24
    14a6:	86 e0       	ldi	r24, 0x06	; 6
    14a8:	93 e0       	ldi	r25, 0x03	; 3
    14aa:	0e 94 51 17 	call	0x2ea2	; 0x2ea2 <RTC_Get_Time_12h>
    14ae:	8c 2f       	mov	r24, r28
    14b0:	cf 91       	pop	r28
    14b2:	08 95       	ret

000014b4 <Prepare_Data_For_Frame>:
    14b4:	0f 93       	push	r16
    14b6:	1f 93       	push	r17
    14b8:	cf 93       	push	r28
    14ba:	0e 94 44 0a 	call	0x1488	; 0x1488 <System_Date_Update>
    14be:	81 30       	cpi	r24, 0x01	; 1
    14c0:	f1 f0       	breq	.+60     	; 0x14fe <Prepare_Data_For_Frame+0x4a>
    14c2:	0e 94 4f 0a 	call	0x149e	; 0x149e <System_Time_Update>
    14c6:	c8 2f       	mov	r28, r24
    14c8:	81 30       	cpi	r24, 0x01	; 1
    14ca:	c9 f0       	breq	.+50     	; 0x14fe <Prepare_Data_For_Frame+0x4a>
    14cc:	0e 94 f4 03 	call	0x7e8	; 0x7e8 <Get_Res1_Ohm>
    14d0:	0e 94 6f 20 	call	0x40de	; 0x40de <__fixunssfsi>
    14d4:	00 e0       	ldi	r16, 0x00	; 0
    14d6:	13 e0       	ldi	r17, 0x03	; 3
    14d8:	f8 01       	movw	r30, r16
    14da:	71 83       	std	Z+1, r23	; 0x01
    14dc:	60 83       	st	Z, r22
    14de:	0e 94 fd 03 	call	0x7fa	; 0x7fa <Get_Res2_Ohm>
    14e2:	0e 94 6f 20 	call	0x40de	; 0x40de <__fixunssfsi>
    14e6:	f8 01       	movw	r30, r16
    14e8:	73 83       	std	Z+3, r23	; 0x03
    14ea:	62 83       	std	Z+2, r22	; 0x02
    14ec:	0e 94 06 04 	call	0x80c	; 0x80c <Get_Battery_Percent>
    14f0:	0e 94 6f 20 	call	0x40de	; 0x40de <__fixunssfsi>
    14f4:	f8 01       	movw	r30, r16
    14f6:	75 83       	std	Z+5, r23	; 0x05
    14f8:	64 83       	std	Z+4, r22	; 0x04
    14fa:	8c 2f       	mov	r24, r28
    14fc:	00 c0       	rjmp	.+0      	; 0x14fe <Prepare_Data_For_Frame+0x4a>
    14fe:	cf 91       	pop	r28
    1500:	1f 91       	pop	r17
    1502:	0f 91       	pop	r16
    1504:	08 95       	ret

00001506 <Timer0_Initialize>:
    1506:	cf 93       	push	r28
    1508:	df 93       	push	r29
    150a:	cd b7       	in	r28, 0x3d	; 61
    150c:	de b7       	in	r29, 0x3e	; 62
    150e:	27 97       	sbiw	r28, 0x07	; 7
    1510:	0f b6       	in	r0, 0x3f	; 63
    1512:	f8 94       	cli
    1514:	de bf       	out	0x3e, r29	; 62
    1516:	0f be       	out	0x3f, r0	; 63
    1518:	cd bf       	out	0x3d, r28	; 61
    151a:	1b 82       	std	Y+3, r1	; 0x03
    151c:	82 e0       	ldi	r24, 0x02	; 2
    151e:	8c 83       	std	Y+4, r24	; 0x04
    1520:	8e e3       	ldi	r24, 0x3E	; 62
    1522:	89 83       	std	Y+1, r24	; 0x01
    1524:	1a 82       	std	Y+2, r1	; 0x02
    1526:	1d 82       	std	Y+5, r1	; 0x05
    1528:	1e 82       	std	Y+6, r1	; 0x06
    152a:	1f 82       	std	Y+7, r1	; 0x07
    152c:	ce 01       	movw	r24, r28
    152e:	01 96       	adiw	r24, 0x01	; 1
    1530:	0e 94 96 18 	call	0x312c	; 0x312c <Timer0_Configurar>
    1534:	27 96       	adiw	r28, 0x07	; 7
    1536:	0f b6       	in	r0, 0x3f	; 63
    1538:	f8 94       	cli
    153a:	de bf       	out	0x3e, r29	; 62
    153c:	0f be       	out	0x3f, r0	; 63
    153e:	cd bf       	out	0x3d, r28	; 61
    1540:	df 91       	pop	r29
    1542:	cf 91       	pop	r28
    1544:	08 95       	ret

00001546 <System_Initialize>:
    1546:	80 b7       	in	r24, 0x30	; 48
    1548:	80 68       	ori	r24, 0x80	; 128
    154a:	80 bf       	out	0x30, r24	; 48
    154c:	80 b7       	in	r24, 0x30	; 48
    154e:	8f 7b       	andi	r24, 0xBF	; 191
    1550:	80 bf       	out	0x30, r24	; 48
    1552:	0e 94 a4 08 	call	0x1148	; 0x1148 <Boost_PSU_Initialize>
    1556:	0e 94 f3 01 	call	0x3e6	; 0x3e6 <Analog_Measures_Initialize>
    155a:	0e 94 89 08 	call	0x1112	; 0x1112 <Ext_Int_Pin_Initialize>
    155e:	0e 94 5b 08 	call	0x10b6	; 0x10b6 <Test_Switch_Interrupt_Initialize>
    1562:	0e 94 72 08 	call	0x10e4	; 0x10e4 <RTC_Interrupt_Initialize>
    1566:	0e 94 90 08 	call	0x1120	; 0x1120 <TWI0_Master_Initialize>
    156a:	0e 94 07 1e 	call	0x3c0e	; 0x3c0e <Xbee_Interface_Initialize>
    156e:	0e 94 37 04 	call	0x86e	; 0x86e <Bluetooth_Interface_Initialize>
    1572:	0e 94 83 0a 	call	0x1506	; 0x1506 <Timer0_Initialize>
    1576:	0e 94 79 1d 	call	0x3af2	; 0x3af2 <Servo_Initialize>
    157a:	2f ef       	ldi	r18, 0xFF	; 255
    157c:	84 e3       	ldi	r24, 0x34	; 52
    157e:	9c e0       	ldi	r25, 0x0C	; 12
    1580:	21 50       	subi	r18, 0x01	; 1
    1582:	80 40       	sbci	r24, 0x00	; 0
    1584:	90 40       	sbci	r25, 0x00	; 0
    1586:	e1 f7       	brne	.-8      	; 0x1580 <System_Initialize+0x3a>
    1588:	00 c0       	rjmp	.+0      	; 0x158a <System_Initialize+0x44>
    158a:	00 00       	nop
    158c:	78 94       	sei
    158e:	08 95       	ret

00001590 <Timer0_On>:
    1590:	f8 94       	cli
    1592:	80 91 12 03 	lds	r24, 0x0312	; 0x800312 <system_flags>
    1596:	90 91 13 03 	lds	r25, 0x0313	; 0x800313 <system_flags+0x1>
    159a:	91 60       	ori	r25, 0x01	; 1
    159c:	90 93 13 03 	sts	0x0313, r25	; 0x800313 <system_flags+0x1>
    15a0:	80 93 12 03 	sts	0x0312, r24	; 0x800312 <system_flags>
    15a4:	78 94       	sei
    15a6:	ee e6       	ldi	r30, 0x6E	; 110
    15a8:	f0 e0       	ldi	r31, 0x00	; 0
    15aa:	80 81       	ld	r24, Z
    15ac:	82 60       	ori	r24, 0x02	; 2
    15ae:	80 83       	st	Z, r24
    15b0:	85 b3       	in	r24, 0x15	; 21
    15b2:	82 60       	ori	r24, 0x02	; 2
    15b4:	85 bb       	out	0x15, r24	; 21
    15b6:	85 b5       	in	r24, 0x25	; 37
    15b8:	8b 7f       	andi	r24, 0xFB	; 251
    15ba:	85 bd       	out	0x25, r24	; 37
    15bc:	85 b5       	in	r24, 0x25	; 37
    15be:	83 60       	ori	r24, 0x03	; 3
    15c0:	85 bd       	out	0x25, r24	; 37
    15c2:	08 95       	ret

000015c4 <Timer0_Off>:
    15c4:	85 b5       	in	r24, 0x25	; 37
    15c6:	88 7f       	andi	r24, 0xF8	; 248
    15c8:	85 bd       	out	0x25, r24	; 37
    15ca:	85 b3       	in	r24, 0x15	; 21
    15cc:	82 60       	ori	r24, 0x02	; 2
    15ce:	85 bb       	out	0x15, r24	; 21
    15d0:	ee e6       	ldi	r30, 0x6E	; 110
    15d2:	f0 e0       	ldi	r31, 0x00	; 0
    15d4:	80 81       	ld	r24, Z
    15d6:	8d 7f       	andi	r24, 0xFD	; 253
    15d8:	80 83       	st	Z, r24
    15da:	08 95       	ret

000015dc <Analog_Measure_Task>:
    15dc:	0e 94 11 02 	call	0x422	; 0x422 <Analog_Measures_Start>
    15e0:	0e 94 89 02 	call	0x512	; 0x512 <Analog_Measure_And_Accumulate>
    15e4:	0e 94 57 02 	call	0x4ae	; 0x4ae <Analog_Measure_Calculate_Average>
    15e8:	0e 94 aa 02 	call	0x554	; 0x554 <Calc_Res1_Ohm_From_Bin>
    15ec:	0e 94 18 03 	call	0x630	; 0x630 <Calc_Res2_Ohm_From_Bin>
    15f0:	0e 94 86 03 	call	0x70c	; 0x70c <Calc_Battery_Percent_From_Bin>
    15f4:	08 95       	ret

000015f6 <One_Res_Sensor_Status_Calculation>:
    15f6:	60 91 00 03 	lds	r22, 0x0300	; 0x800300 <measure_buffer>
    15fa:	70 91 01 03 	lds	r23, 0x0301	; 0x800301 <measure_buffer+0x1>
    15fe:	80 91 fd 02 	lds	r24, 0x02FD	; 0x8002fd <prev_r1_status.3028>
    1602:	81 11       	cpse	r24, r1
    1604:	13 c0       	rjmp	.+38     	; 0x162c <One_Res_Sensor_Status_Calculation+0x36>
    1606:	80 e0       	ldi	r24, 0x00	; 0
    1608:	90 e0       	ldi	r25, 0x00	; 0
    160a:	0e 94 9e 20 	call	0x413c	; 0x413c <__floatunsisf>
    160e:	20 e0       	ldi	r18, 0x00	; 0
    1610:	30 e8       	ldi	r19, 0x80	; 128
    1612:	43 e9       	ldi	r20, 0x93	; 147
    1614:	53 e4       	ldi	r21, 0x43	; 67
    1616:	0e 94 f8 1f 	call	0x3ff0	; 0x3ff0 <__cmpsf2>
    161a:	18 16       	cp	r1, r24
    161c:	24 f0       	brlt	.+8      	; 0x1626 <One_Res_Sensor_Status_Calculation+0x30>
    161e:	81 e0       	ldi	r24, 0x01	; 1
    1620:	80 93 ff 02 	sts	0x02FF, r24	; 0x8002ff <r1_status>
    1624:	17 c0       	rjmp	.+46     	; 0x1654 <One_Res_Sensor_Status_Calculation+0x5e>
    1626:	10 92 ff 02 	sts	0x02FF, r1	; 0x8002ff <r1_status>
    162a:	14 c0       	rjmp	.+40     	; 0x1654 <One_Res_Sensor_Status_Calculation+0x5e>
    162c:	81 30       	cpi	r24, 0x01	; 1
    162e:	91 f4       	brne	.+36     	; 0x1654 <One_Res_Sensor_Status_Calculation+0x5e>
    1630:	80 e0       	ldi	r24, 0x00	; 0
    1632:	90 e0       	ldi	r25, 0x00	; 0
    1634:	0e 94 9e 20 	call	0x413c	; 0x413c <__floatunsisf>
    1638:	20 e0       	ldi	r18, 0x00	; 0
    163a:	30 e0       	ldi	r19, 0x00	; 0
    163c:	46 e9       	ldi	r20, 0x96	; 150
    163e:	53 e4       	ldi	r21, 0x43	; 67
    1640:	0e 94 50 21 	call	0x42a0	; 0x42a0 <__gesf2>
    1644:	88 23       	and	r24, r24
    1646:	1c f0       	brlt	.+6      	; 0x164e <One_Res_Sensor_Status_Calculation+0x58>
    1648:	10 92 ff 02 	sts	0x02FF, r1	; 0x8002ff <r1_status>
    164c:	03 c0       	rjmp	.+6      	; 0x1654 <One_Res_Sensor_Status_Calculation+0x5e>
    164e:	81 e0       	ldi	r24, 0x01	; 1
    1650:	80 93 ff 02 	sts	0x02FF, r24	; 0x8002ff <r1_status>
    1654:	80 91 ff 02 	lds	r24, 0x02FF	; 0x8002ff <r1_status>
    1658:	80 93 fd 02 	sts	0x02FD, r24	; 0x8002fd <prev_r1_status.3028>
    165c:	81 30       	cpi	r24, 0x01	; 1
    165e:	19 f4       	brne	.+6      	; 0x1666 <One_Res_Sensor_Status_Calculation+0x70>
    1660:	10 92 03 01 	sts	0x0103, r1	; 0x800103 <sensor_status>
    1664:	08 95       	ret
    1666:	81 11       	cpse	r24, r1
    1668:	03 c0       	rjmp	.+6      	; 0x1670 <One_Res_Sensor_Status_Calculation+0x7a>
    166a:	82 e0       	ldi	r24, 0x02	; 2
    166c:	80 93 03 01 	sts	0x0103, r24	; 0x800103 <sensor_status>
    1670:	08 95       	ret

00001672 <Two_Res_Sensor_Status_Calculation>:
    1672:	cf 93       	push	r28
    1674:	df 93       	push	r29
    1676:	e0 e0       	ldi	r30, 0x00	; 0
    1678:	f3 e0       	ldi	r31, 0x03	; 3
    167a:	60 81       	ld	r22, Z
    167c:	71 81       	ldd	r23, Z+1	; 0x01
    167e:	c2 81       	ldd	r28, Z+2	; 0x02
    1680:	d3 81       	ldd	r29, Z+3	; 0x03
    1682:	80 91 fc 02 	lds	r24, 0x02FC	; 0x8002fc <prev_r1_status.3033>
    1686:	81 11       	cpse	r24, r1
    1688:	13 c0       	rjmp	.+38     	; 0x16b0 <Two_Res_Sensor_Status_Calculation+0x3e>
    168a:	80 e0       	ldi	r24, 0x00	; 0
    168c:	90 e0       	ldi	r25, 0x00	; 0
    168e:	0e 94 9e 20 	call	0x413c	; 0x413c <__floatunsisf>
    1692:	20 e0       	ldi	r18, 0x00	; 0
    1694:	30 e8       	ldi	r19, 0x80	; 128
    1696:	43 e9       	ldi	r20, 0x93	; 147
    1698:	53 e4       	ldi	r21, 0x43	; 67
    169a:	0e 94 f8 1f 	call	0x3ff0	; 0x3ff0 <__cmpsf2>
    169e:	18 16       	cp	r1, r24
    16a0:	24 f0       	brlt	.+8      	; 0x16aa <Two_Res_Sensor_Status_Calculation+0x38>
    16a2:	81 e0       	ldi	r24, 0x01	; 1
    16a4:	80 93 ff 02 	sts	0x02FF, r24	; 0x8002ff <r1_status>
    16a8:	15 c0       	rjmp	.+42     	; 0x16d4 <Two_Res_Sensor_Status_Calculation+0x62>
    16aa:	10 92 ff 02 	sts	0x02FF, r1	; 0x8002ff <r1_status>
    16ae:	12 c0       	rjmp	.+36     	; 0x16d4 <Two_Res_Sensor_Status_Calculation+0x62>
    16b0:	80 e0       	ldi	r24, 0x00	; 0
    16b2:	90 e0       	ldi	r25, 0x00	; 0
    16b4:	0e 94 9e 20 	call	0x413c	; 0x413c <__floatunsisf>
    16b8:	20 e0       	ldi	r18, 0x00	; 0
    16ba:	30 e0       	ldi	r19, 0x00	; 0
    16bc:	46 e9       	ldi	r20, 0x96	; 150
    16be:	53 e4       	ldi	r21, 0x43	; 67
    16c0:	0e 94 50 21 	call	0x42a0	; 0x42a0 <__gesf2>
    16c4:	88 23       	and	r24, r24
    16c6:	1c f0       	brlt	.+6      	; 0x16ce <Two_Res_Sensor_Status_Calculation+0x5c>
    16c8:	10 92 ff 02 	sts	0x02FF, r1	; 0x8002ff <r1_status>
    16cc:	03 c0       	rjmp	.+6      	; 0x16d4 <Two_Res_Sensor_Status_Calculation+0x62>
    16ce:	81 e0       	ldi	r24, 0x01	; 1
    16d0:	80 93 ff 02 	sts	0x02FF, r24	; 0x8002ff <r1_status>
    16d4:	80 91 fb 02 	lds	r24, 0x02FB	; 0x8002fb <prev_r2_status.3034>
    16d8:	81 11       	cpse	r24, r1
    16da:	14 c0       	rjmp	.+40     	; 0x1704 <Two_Res_Sensor_Status_Calculation+0x92>
    16dc:	be 01       	movw	r22, r28
    16de:	80 e0       	ldi	r24, 0x00	; 0
    16e0:	90 e0       	ldi	r25, 0x00	; 0
    16e2:	0e 94 9e 20 	call	0x413c	; 0x413c <__floatunsisf>
    16e6:	20 e0       	ldi	r18, 0x00	; 0
    16e8:	30 e8       	ldi	r19, 0x80	; 128
    16ea:	43 e9       	ldi	r20, 0x93	; 147
    16ec:	53 e4       	ldi	r21, 0x43	; 67
    16ee:	0e 94 f8 1f 	call	0x3ff0	; 0x3ff0 <__cmpsf2>
    16f2:	18 16       	cp	r1, r24
    16f4:	24 f0       	brlt	.+8      	; 0x16fe <Two_Res_Sensor_Status_Calculation+0x8c>
    16f6:	81 e0       	ldi	r24, 0x01	; 1
    16f8:	80 93 fe 02 	sts	0x02FE, r24	; 0x8002fe <r2_status>
    16fc:	16 c0       	rjmp	.+44     	; 0x172a <Two_Res_Sensor_Status_Calculation+0xb8>
    16fe:	10 92 fe 02 	sts	0x02FE, r1	; 0x8002fe <r2_status>
    1702:	13 c0       	rjmp	.+38     	; 0x172a <Two_Res_Sensor_Status_Calculation+0xb8>
    1704:	be 01       	movw	r22, r28
    1706:	80 e0       	ldi	r24, 0x00	; 0
    1708:	90 e0       	ldi	r25, 0x00	; 0
    170a:	0e 94 9e 20 	call	0x413c	; 0x413c <__floatunsisf>
    170e:	20 e0       	ldi	r18, 0x00	; 0
    1710:	30 e0       	ldi	r19, 0x00	; 0
    1712:	46 e9       	ldi	r20, 0x96	; 150
    1714:	53 e4       	ldi	r21, 0x43	; 67
    1716:	0e 94 50 21 	call	0x42a0	; 0x42a0 <__gesf2>
    171a:	88 23       	and	r24, r24
    171c:	1c f0       	brlt	.+6      	; 0x1724 <Two_Res_Sensor_Status_Calculation+0xb2>
    171e:	10 92 fe 02 	sts	0x02FE, r1	; 0x8002fe <r2_status>
    1722:	03 c0       	rjmp	.+6      	; 0x172a <Two_Res_Sensor_Status_Calculation+0xb8>
    1724:	81 e0       	ldi	r24, 0x01	; 1
    1726:	80 93 fe 02 	sts	0x02FE, r24	; 0x8002fe <r2_status>
    172a:	80 91 ff 02 	lds	r24, 0x02FF	; 0x8002ff <r1_status>
    172e:	80 93 fc 02 	sts	0x02FC, r24	; 0x8002fc <prev_r1_status.3033>
    1732:	90 91 fe 02 	lds	r25, 0x02FE	; 0x8002fe <r2_status>
    1736:	90 93 fb 02 	sts	0x02FB, r25	; 0x8002fb <prev_r2_status.3034>
    173a:	81 30       	cpi	r24, 0x01	; 1
    173c:	29 f4       	brne	.+10     	; 0x1748 <Two_Res_Sensor_Status_Calculation+0xd6>
    173e:	91 30       	cpi	r25, 0x01	; 1
    1740:	19 f4       	brne	.+6      	; 0x1748 <Two_Res_Sensor_Status_Calculation+0xd6>
    1742:	10 92 03 01 	sts	0x0103, r1	; 0x800103 <sensor_status>
    1746:	0a c0       	rjmp	.+20     	; 0x175c <Two_Res_Sensor_Status_Calculation+0xea>
    1748:	81 30       	cpi	r24, 0x01	; 1
    174a:	29 f4       	brne	.+10     	; 0x1756 <Two_Res_Sensor_Status_Calculation+0xe4>
    174c:	91 11       	cpse	r25, r1
    174e:	03 c0       	rjmp	.+6      	; 0x1756 <Two_Res_Sensor_Status_Calculation+0xe4>
    1750:	80 93 03 01 	sts	0x0103, r24	; 0x800103 <sensor_status>
    1754:	03 c0       	rjmp	.+6      	; 0x175c <Two_Res_Sensor_Status_Calculation+0xea>
    1756:	82 e0       	ldi	r24, 0x02	; 2
    1758:	80 93 03 01 	sts	0x0103, r24	; 0x800103 <sensor_status>
    175c:	df 91       	pop	r29
    175e:	cf 91       	pop	r28
    1760:	08 95       	ret

00001762 <Resistor_Sensor_Status_Calculation>:
    1762:	cf 93       	push	r28
    1764:	87 e0       	ldi	r24, 0x07	; 7
    1766:	91 e0       	ldi	r25, 0x01	; 1
    1768:	0e 94 9b 07 	call	0xf36	; 0xf36 <EEPROM_Load_Number_Of_Sensors>
    176c:	c8 2f       	mov	r28, r24
    176e:	81 30       	cpi	r24, 0x01	; 1
    1770:	69 f0       	breq	.+26     	; 0x178c <Resistor_Sensor_Status_Calculation+0x2a>
    1772:	80 91 07 01 	lds	r24, 0x0107	; 0x800107 <number_of_sensors>
    1776:	81 30       	cpi	r24, 0x01	; 1
    1778:	19 f4       	brne	.+6      	; 0x1780 <Resistor_Sensor_Status_Calculation+0x1e>
    177a:	0e 94 fb 0a 	call	0x15f6	; 0x15f6 <One_Res_Sensor_Status_Calculation>
    177e:	06 c0       	rjmp	.+12     	; 0x178c <Resistor_Sensor_Status_Calculation+0x2a>
    1780:	80 91 07 01 	lds	r24, 0x0107	; 0x800107 <number_of_sensors>
    1784:	82 30       	cpi	r24, 0x02	; 2
    1786:	11 f4       	brne	.+4      	; 0x178c <Resistor_Sensor_Status_Calculation+0x2a>
    1788:	0e 94 39 0b 	call	0x1672	; 0x1672 <Two_Res_Sensor_Status_Calculation>
    178c:	8c 2f       	mov	r24, r28
    178e:	cf 91       	pop	r28
    1790:	08 95       	ret

00001792 <Battery_Status_Calculation>:
    1792:	80 91 04 03 	lds	r24, 0x0304	; 0x800304 <measure_buffer+0x4>
    1796:	90 91 05 03 	lds	r25, 0x0305	; 0x800305 <measure_buffer+0x5>
    179a:	8e 31       	cpi	r24, 0x1E	; 30
    179c:	91 05       	cpc	r25, r1
    179e:	18 f4       	brcc	.+6      	; 0x17a6 <Battery_Status_Calculation+0x14>
    17a0:	21 e0       	ldi	r18, 0x01	; 1
    17a2:	20 93 02 01 	sts	0x0102, r18	; 0x800102 <battery_status>
    17a6:	83 97       	sbiw	r24, 0x23	; 35
    17a8:	10 f0       	brcs	.+4      	; 0x17ae <Battery_Status_Calculation+0x1c>
    17aa:	10 92 02 01 	sts	0x0102, r1	; 0x800102 <battery_status>
    17ae:	08 95       	ret

000017b0 <Servo_Status_Indicator_Task>:
    17b0:	cf 93       	push	r28
    17b2:	df 93       	push	r29
    17b4:	80 91 02 01 	lds	r24, 0x0102	; 0x800102 <battery_status>
    17b8:	81 30       	cpi	r24, 0x01	; 1
    17ba:	49 f0       	breq	.+18     	; 0x17ce <Servo_Status_Indicator_Task+0x1e>
    17bc:	80 91 03 01 	lds	r24, 0x0103	; 0x800103 <sensor_status>
    17c0:	88 23       	and	r24, r24
    17c2:	41 f0       	breq	.+16     	; 0x17d4 <Servo_Status_Indicator_Task+0x24>
    17c4:	81 30       	cpi	r24, 0x01	; 1
    17c6:	49 f4       	brne	.+18     	; 0x17da <Servo_Status_Indicator_Task+0x2a>
    17c8:	c8 ee       	ldi	r28, 0xE8	; 232
    17ca:	d3 e0       	ldi	r29, 0x03	; 3
    17cc:	08 c0       	rjmp	.+16     	; 0x17de <Servo_Status_Indicator_Task+0x2e>
    17ce:	cb e3       	ldi	r28, 0x3B	; 59
    17d0:	d4 e0       	ldi	r29, 0x04	; 4
    17d2:	05 c0       	rjmp	.+10     	; 0x17de <Servo_Status_Indicator_Task+0x2e>
    17d4:	c0 ea       	ldi	r28, 0xA0	; 160
    17d6:	d1 e0       	ldi	r29, 0x01	; 1
    17d8:	02 c0       	rjmp	.+4      	; 0x17de <Servo_Status_Indicator_Task+0x2e>
    17da:	ce ee       	ldi	r28, 0xEE	; 238
    17dc:	d2 e0       	ldi	r29, 0x02	; 2
    17de:	ce 01       	movw	r24, r28
    17e0:	0e 94 91 1d 	call	0x3b22	; 0x3b22 <Servo_Set_Position>
    17e4:	0e 94 96 1d 	call	0x3b2c	; 0x3b2c <Servo_Start>
    17e8:	d0 93 01 01 	sts	0x0101, r29	; 0x800101 <__DATA_REGION_ORIGIN__+0x1>
    17ec:	c0 93 00 01 	sts	0x0100, r28	; 0x800100 <__DATA_REGION_ORIGIN__>
    17f0:	80 91 12 03 	lds	r24, 0x0312	; 0x800312 <system_flags>
    17f4:	90 91 13 03 	lds	r25, 0x0313	; 0x800313 <system_flags+0x1>
    17f8:	82 ff       	sbrs	r24, 2
    17fa:	fa cf       	rjmp	.-12     	; 0x17f0 <Servo_Status_Indicator_Task+0x40>
    17fc:	df 91       	pop	r29
    17fe:	cf 91       	pop	r28
    1800:	08 95       	ret

00001802 <Xbee_Test_Mode_Cycle>:
    1802:	cf 93       	push	r28
    1804:	0e 94 c8 0a 	call	0x1590	; 0x1590 <Timer0_On>
    1808:	0e 94 ab 08 	call	0x1156	; 0x1156 <Boost_PSU_Power_On>
    180c:	68 ee       	ldi	r22, 0xE8	; 232
    180e:	73 e0       	ldi	r23, 0x03	; 3
    1810:	80 e0       	ldi	r24, 0x00	; 0
    1812:	90 e0       	ldi	r25, 0x00	; 0
    1814:	0e 94 64 15 	call	0x2ac8	; 0x2ac8 <Delay_ms>
    1818:	0e 94 b9 01 	call	0x372	; 0x372 <Analog_Measures_On>
    181c:	64 ef       	ldi	r22, 0xF4	; 244
    181e:	71 e0       	ldi	r23, 0x01	; 1
    1820:	80 e0       	ldi	r24, 0x00	; 0
    1822:	90 e0       	ldi	r25, 0x00	; 0
    1824:	0e 94 64 15 	call	0x2ac8	; 0x2ac8 <Delay_ms>
    1828:	0e 94 ee 0a 	call	0x15dc	; 0x15dc <Analog_Measure_Task>
    182c:	0e 94 bd 01 	call	0x37a	; 0x37a <Analog_Measures_Off>
    1830:	64 ef       	ldi	r22, 0xF4	; 244
    1832:	71 e0       	ldi	r23, 0x01	; 1
    1834:	80 e0       	ldi	r24, 0x00	; 0
    1836:	90 e0       	ldi	r25, 0x00	; 0
    1838:	0e 94 64 15 	call	0x2ac8	; 0x2ac8 <Delay_ms>
    183c:	0e 94 5a 0a 	call	0x14b4	; 0x14b4 <Prepare_Data_For_Frame>
    1840:	c8 2f       	mov	r28, r24
    1842:	81 30       	cpi	r24, 0x01	; 1
    1844:	61 f4       	brne	.+24     	; 0x185e <Xbee_Test_Mode_Cycle+0x5c>
    1846:	0e 94 af 08 	call	0x115e	; 0x115e <Boost_PSU_Power_Off>
    184a:	68 ee       	ldi	r22, 0xE8	; 232
    184c:	73 e0       	ldi	r23, 0x03	; 3
    184e:	80 e0       	ldi	r24, 0x00	; 0
    1850:	90 e0       	ldi	r25, 0x00	; 0
    1852:	0e 94 64 15 	call	0x2ac8	; 0x2ac8 <Delay_ms>
    1856:	0e 94 e2 0a 	call	0x15c4	; 0x15c4 <Timer0_Off>
    185a:	8c 2f       	mov	r24, r28
    185c:	60 c0       	rjmp	.+192    	; 0x191e <Xbee_Test_Mode_Cycle+0x11c>
    185e:	0e 94 b1 0b 	call	0x1762	; 0x1762 <Resistor_Sensor_Status_Calculation>
    1862:	c8 2f       	mov	r28, r24
    1864:	81 30       	cpi	r24, 0x01	; 1
    1866:	61 f4       	brne	.+24     	; 0x1880 <Xbee_Test_Mode_Cycle+0x7e>
    1868:	0e 94 af 08 	call	0x115e	; 0x115e <Boost_PSU_Power_Off>
    186c:	68 ee       	ldi	r22, 0xE8	; 232
    186e:	73 e0       	ldi	r23, 0x03	; 3
    1870:	80 e0       	ldi	r24, 0x00	; 0
    1872:	90 e0       	ldi	r25, 0x00	; 0
    1874:	0e 94 64 15 	call	0x2ac8	; 0x2ac8 <Delay_ms>
    1878:	0e 94 e2 0a 	call	0x15c4	; 0x15c4 <Timer0_Off>
    187c:	8c 2f       	mov	r24, r28
    187e:	4f c0       	rjmp	.+158    	; 0x191e <Xbee_Test_Mode_Cycle+0x11c>
    1880:	88 e0       	ldi	r24, 0x08	; 8
    1882:	91 e0       	ldi	r25, 0x01	; 1
    1884:	0e 94 92 07 	call	0xf24	; 0xf24 <EEPROM_Load_Servo_Indicator_State>
    1888:	c8 2f       	mov	r28, r24
    188a:	81 30       	cpi	r24, 0x01	; 1
    188c:	61 f4       	brne	.+24     	; 0x18a6 <Xbee_Test_Mode_Cycle+0xa4>
    188e:	0e 94 af 08 	call	0x115e	; 0x115e <Boost_PSU_Power_Off>
    1892:	68 ee       	ldi	r22, 0xE8	; 232
    1894:	73 e0       	ldi	r23, 0x03	; 3
    1896:	80 e0       	ldi	r24, 0x00	; 0
    1898:	90 e0       	ldi	r25, 0x00	; 0
    189a:	0e 94 64 15 	call	0x2ac8	; 0x2ac8 <Delay_ms>
    189e:	0e 94 e2 0a 	call	0x15c4	; 0x15c4 <Timer0_Off>
    18a2:	8c 2f       	mov	r24, r28
    18a4:	3c c0       	rjmp	.+120    	; 0x191e <Xbee_Test_Mode_Cycle+0x11c>
    18a6:	80 91 08 01 	lds	r24, 0x0108	; 0x800108 <servo_indicator_status>
    18aa:	81 30       	cpi	r24, 0x01	; 1
    18ac:	a1 f4       	brne	.+40     	; 0x18d6 <Xbee_Test_Mode_Cycle+0xd4>
    18ae:	0e 94 c9 0b 	call	0x1792	; 0x1792 <Battery_Status_Calculation>
    18b2:	0e 94 d7 1d 	call	0x3bae	; 0x3bae <Servo_On>
    18b6:	64 ef       	ldi	r22, 0xF4	; 244
    18b8:	71 e0       	ldi	r23, 0x01	; 1
    18ba:	80 e0       	ldi	r24, 0x00	; 0
    18bc:	90 e0       	ldi	r25, 0x00	; 0
    18be:	0e 94 64 15 	call	0x2ac8	; 0x2ac8 <Delay_ms>
    18c2:	0e 94 d8 0b 	call	0x17b0	; 0x17b0 <Servo_Status_Indicator_Task>
    18c6:	0e 94 db 1d 	call	0x3bb6	; 0x3bb6 <Servo_Off>
    18ca:	64 ef       	ldi	r22, 0xF4	; 244
    18cc:	71 e0       	ldi	r23, 0x01	; 1
    18ce:	80 e0       	ldi	r24, 0x00	; 0
    18d0:	90 e0       	ldi	r25, 0x00	; 0
    18d2:	0e 94 64 15 	call	0x2ac8	; 0x2ac8 <Delay_ms>
    18d6:	0e 94 b8 08 	call	0x1170	; 0x1170 <Data_Frame_Build>
    18da:	8c e2       	ldi	r24, 0x2C	; 44
    18dc:	95 e0       	ldi	r25, 0x05	; 5
    18de:	0e 94 10 1e 	call	0x3c20	; 0x3c20 <Xbee_Build_Data_Frame>
    18e2:	0e 94 88 1f 	call	0x3f10	; 0x3f10 <Xbee_Get_Data_Frame_Buffer_Pointer>
    18e6:	0e 94 1c 08 	call	0x1038	; 0x1038 <EEPROM_Save_Backup_Data_Frame>
    18ea:	c8 2f       	mov	r28, r24
    18ec:	81 30       	cpi	r24, 0x01	; 1
    18ee:	61 f4       	brne	.+24     	; 0x1908 <Xbee_Test_Mode_Cycle+0x106>
    18f0:	0e 94 af 08 	call	0x115e	; 0x115e <Boost_PSU_Power_Off>
    18f4:	68 ee       	ldi	r22, 0xE8	; 232
    18f6:	73 e0       	ldi	r23, 0x03	; 3
    18f8:	80 e0       	ldi	r24, 0x00	; 0
    18fa:	90 e0       	ldi	r25, 0x00	; 0
    18fc:	0e 94 64 15 	call	0x2ac8	; 0x2ac8 <Delay_ms>
    1900:	0e 94 e2 0a 	call	0x15c4	; 0x15c4 <Timer0_Off>
    1904:	8c 2f       	mov	r24, r28
    1906:	0b c0       	rjmp	.+22     	; 0x191e <Xbee_Test_Mode_Cycle+0x11c>
    1908:	0e 94 af 08 	call	0x115e	; 0x115e <Boost_PSU_Power_Off>
    190c:	68 ee       	ldi	r22, 0xE8	; 232
    190e:	73 e0       	ldi	r23, 0x03	; 3
    1910:	80 e0       	ldi	r24, 0x00	; 0
    1912:	90 e0       	ldi	r25, 0x00	; 0
    1914:	0e 94 64 15 	call	0x2ac8	; 0x2ac8 <Delay_ms>
    1918:	0e 94 e2 0a 	call	0x15c4	; 0x15c4 <Timer0_Off>
    191c:	8c 2f       	mov	r24, r28
    191e:	cf 91       	pop	r28
    1920:	08 95       	ret

00001922 <Xbee_Periodic_Measure_Mode_Cycle>:
    1922:	cf 93       	push	r28
    1924:	0e 94 c8 0a 	call	0x1590	; 0x1590 <Timer0_On>
    1928:	0e 94 ab 08 	call	0x1156	; 0x1156 <Boost_PSU_Power_On>
    192c:	68 ee       	ldi	r22, 0xE8	; 232
    192e:	73 e0       	ldi	r23, 0x03	; 3
    1930:	80 e0       	ldi	r24, 0x00	; 0
    1932:	90 e0       	ldi	r25, 0x00	; 0
    1934:	0e 94 64 15 	call	0x2ac8	; 0x2ac8 <Delay_ms>
    1938:	0e 94 27 18 	call	0x304e	; 0x304e <RTC_TimerA_Int_Flag_Clear>
    193c:	c8 2f       	mov	r28, r24
    193e:	81 30       	cpi	r24, 0x01	; 1
    1940:	21 f4       	brne	.+8      	; 0x194a <Xbee_Periodic_Measure_Mode_Cycle+0x28>
    1942:	0e 94 e2 0a 	call	0x15c4	; 0x15c4 <Timer0_Off>
    1946:	8c 2f       	mov	r24, r28
    1948:	83 c0       	rjmp	.+262    	; 0x1a50 <Xbee_Periodic_Measure_Mode_Cycle+0x12e>
    194a:	0e 94 b9 01 	call	0x372	; 0x372 <Analog_Measures_On>
    194e:	64 ef       	ldi	r22, 0xF4	; 244
    1950:	71 e0       	ldi	r23, 0x01	; 1
    1952:	80 e0       	ldi	r24, 0x00	; 0
    1954:	90 e0       	ldi	r25, 0x00	; 0
    1956:	0e 94 64 15 	call	0x2ac8	; 0x2ac8 <Delay_ms>
    195a:	0e 94 ee 0a 	call	0x15dc	; 0x15dc <Analog_Measure_Task>
    195e:	0e 94 bd 01 	call	0x37a	; 0x37a <Analog_Measures_Off>
    1962:	64 ef       	ldi	r22, 0xF4	; 244
    1964:	71 e0       	ldi	r23, 0x01	; 1
    1966:	80 e0       	ldi	r24, 0x00	; 0
    1968:	90 e0       	ldi	r25, 0x00	; 0
    196a:	0e 94 64 15 	call	0x2ac8	; 0x2ac8 <Delay_ms>
    196e:	0e 94 5a 0a 	call	0x14b4	; 0x14b4 <Prepare_Data_For_Frame>
    1972:	c8 2f       	mov	r28, r24
    1974:	81 30       	cpi	r24, 0x01	; 1
    1976:	61 f4       	brne	.+24     	; 0x1990 <Xbee_Periodic_Measure_Mode_Cycle+0x6e>
    1978:	0e 94 af 08 	call	0x115e	; 0x115e <Boost_PSU_Power_Off>
    197c:	68 ee       	ldi	r22, 0xE8	; 232
    197e:	73 e0       	ldi	r23, 0x03	; 3
    1980:	80 e0       	ldi	r24, 0x00	; 0
    1982:	90 e0       	ldi	r25, 0x00	; 0
    1984:	0e 94 64 15 	call	0x2ac8	; 0x2ac8 <Delay_ms>
    1988:	0e 94 e2 0a 	call	0x15c4	; 0x15c4 <Timer0_Off>
    198c:	8c 2f       	mov	r24, r28
    198e:	60 c0       	rjmp	.+192    	; 0x1a50 <Xbee_Periodic_Measure_Mode_Cycle+0x12e>
    1990:	0e 94 b1 0b 	call	0x1762	; 0x1762 <Resistor_Sensor_Status_Calculation>
    1994:	c8 2f       	mov	r28, r24
    1996:	81 30       	cpi	r24, 0x01	; 1
    1998:	61 f4       	brne	.+24     	; 0x19b2 <Xbee_Periodic_Measure_Mode_Cycle+0x90>
    199a:	0e 94 af 08 	call	0x115e	; 0x115e <Boost_PSU_Power_Off>
    199e:	68 ee       	ldi	r22, 0xE8	; 232
    19a0:	73 e0       	ldi	r23, 0x03	; 3
    19a2:	80 e0       	ldi	r24, 0x00	; 0
    19a4:	90 e0       	ldi	r25, 0x00	; 0
    19a6:	0e 94 64 15 	call	0x2ac8	; 0x2ac8 <Delay_ms>
    19aa:	0e 94 e2 0a 	call	0x15c4	; 0x15c4 <Timer0_Off>
    19ae:	8c 2f       	mov	r24, r28
    19b0:	4f c0       	rjmp	.+158    	; 0x1a50 <Xbee_Periodic_Measure_Mode_Cycle+0x12e>
    19b2:	88 e0       	ldi	r24, 0x08	; 8
    19b4:	91 e0       	ldi	r25, 0x01	; 1
    19b6:	0e 94 92 07 	call	0xf24	; 0xf24 <EEPROM_Load_Servo_Indicator_State>
    19ba:	c8 2f       	mov	r28, r24
    19bc:	81 30       	cpi	r24, 0x01	; 1
    19be:	61 f4       	brne	.+24     	; 0x19d8 <Xbee_Periodic_Measure_Mode_Cycle+0xb6>
    19c0:	0e 94 af 08 	call	0x115e	; 0x115e <Boost_PSU_Power_Off>
    19c4:	68 ee       	ldi	r22, 0xE8	; 232
    19c6:	73 e0       	ldi	r23, 0x03	; 3
    19c8:	80 e0       	ldi	r24, 0x00	; 0
    19ca:	90 e0       	ldi	r25, 0x00	; 0
    19cc:	0e 94 64 15 	call	0x2ac8	; 0x2ac8 <Delay_ms>
    19d0:	0e 94 e2 0a 	call	0x15c4	; 0x15c4 <Timer0_Off>
    19d4:	8c 2f       	mov	r24, r28
    19d6:	3c c0       	rjmp	.+120    	; 0x1a50 <Xbee_Periodic_Measure_Mode_Cycle+0x12e>
    19d8:	80 91 08 01 	lds	r24, 0x0108	; 0x800108 <servo_indicator_status>
    19dc:	81 30       	cpi	r24, 0x01	; 1
    19de:	a1 f4       	brne	.+40     	; 0x1a08 <Xbee_Periodic_Measure_Mode_Cycle+0xe6>
    19e0:	0e 94 c9 0b 	call	0x1792	; 0x1792 <Battery_Status_Calculation>
    19e4:	0e 94 d7 1d 	call	0x3bae	; 0x3bae <Servo_On>
    19e8:	64 ef       	ldi	r22, 0xF4	; 244
    19ea:	71 e0       	ldi	r23, 0x01	; 1
    19ec:	80 e0       	ldi	r24, 0x00	; 0
    19ee:	90 e0       	ldi	r25, 0x00	; 0
    19f0:	0e 94 64 15 	call	0x2ac8	; 0x2ac8 <Delay_ms>
    19f4:	0e 94 d8 0b 	call	0x17b0	; 0x17b0 <Servo_Status_Indicator_Task>
    19f8:	0e 94 db 1d 	call	0x3bb6	; 0x3bb6 <Servo_Off>
    19fc:	64 ef       	ldi	r22, 0xF4	; 244
    19fe:	71 e0       	ldi	r23, 0x01	; 1
    1a00:	80 e0       	ldi	r24, 0x00	; 0
    1a02:	90 e0       	ldi	r25, 0x00	; 0
    1a04:	0e 94 64 15 	call	0x2ac8	; 0x2ac8 <Delay_ms>
    1a08:	0e 94 b8 08 	call	0x1170	; 0x1170 <Data_Frame_Build>
    1a0c:	8c e2       	ldi	r24, 0x2C	; 44
    1a0e:	95 e0       	ldi	r25, 0x05	; 5
    1a10:	0e 94 10 1e 	call	0x3c20	; 0x3c20 <Xbee_Build_Data_Frame>
    1a14:	0e 94 88 1f 	call	0x3f10	; 0x3f10 <Xbee_Get_Data_Frame_Buffer_Pointer>
    1a18:	0e 94 1c 08 	call	0x1038	; 0x1038 <EEPROM_Save_Backup_Data_Frame>
    1a1c:	c8 2f       	mov	r28, r24
    1a1e:	81 30       	cpi	r24, 0x01	; 1
    1a20:	61 f4       	brne	.+24     	; 0x1a3a <Xbee_Periodic_Measure_Mode_Cycle+0x118>
    1a22:	0e 94 af 08 	call	0x115e	; 0x115e <Boost_PSU_Power_Off>
    1a26:	68 ee       	ldi	r22, 0xE8	; 232
    1a28:	73 e0       	ldi	r23, 0x03	; 3
    1a2a:	80 e0       	ldi	r24, 0x00	; 0
    1a2c:	90 e0       	ldi	r25, 0x00	; 0
    1a2e:	0e 94 64 15 	call	0x2ac8	; 0x2ac8 <Delay_ms>
    1a32:	0e 94 e2 0a 	call	0x15c4	; 0x15c4 <Timer0_Off>
    1a36:	8c 2f       	mov	r24, r28
    1a38:	0b c0       	rjmp	.+22     	; 0x1a50 <Xbee_Periodic_Measure_Mode_Cycle+0x12e>
    1a3a:	0e 94 af 08 	call	0x115e	; 0x115e <Boost_PSU_Power_Off>
    1a3e:	68 ee       	ldi	r22, 0xE8	; 232
    1a40:	73 e0       	ldi	r23, 0x03	; 3
    1a42:	80 e0       	ldi	r24, 0x00	; 0
    1a44:	90 e0       	ldi	r25, 0x00	; 0
    1a46:	0e 94 64 15 	call	0x2ac8	; 0x2ac8 <Delay_ms>
    1a4a:	0e 94 e2 0a 	call	0x15c4	; 0x15c4 <Timer0_Off>
    1a4e:	8c 2f       	mov	r24, r28
    1a50:	cf 91       	pop	r28
    1a52:	08 95       	ret

00001a54 <Bluetooth_Measure_And_Get_Data>:
    1a54:	cf 93       	push	r28
    1a56:	0e 94 b9 01 	call	0x372	; 0x372 <Analog_Measures_On>
    1a5a:	64 ef       	ldi	r22, 0xF4	; 244
    1a5c:	71 e0       	ldi	r23, 0x01	; 1
    1a5e:	80 e0       	ldi	r24, 0x00	; 0
    1a60:	90 e0       	ldi	r25, 0x00	; 0
    1a62:	0e 94 64 15 	call	0x2ac8	; 0x2ac8 <Delay_ms>
    1a66:	0e 94 ee 0a 	call	0x15dc	; 0x15dc <Analog_Measure_Task>
    1a6a:	0e 94 bd 01 	call	0x37a	; 0x37a <Analog_Measures_Off>
    1a6e:	64 ef       	ldi	r22, 0xF4	; 244
    1a70:	71 e0       	ldi	r23, 0x01	; 1
    1a72:	80 e0       	ldi	r24, 0x00	; 0
    1a74:	90 e0       	ldi	r25, 0x00	; 0
    1a76:	0e 94 64 15 	call	0x2ac8	; 0x2ac8 <Delay_ms>
    1a7a:	0e 94 5a 0a 	call	0x14b4	; 0x14b4 <Prepare_Data_For_Frame>
    1a7e:	81 30       	cpi	r24, 0x01	; 1
    1a80:	69 f1       	breq	.+90     	; 0x1adc <Bluetooth_Measure_And_Get_Data+0x88>
    1a82:	0e 94 b1 0b 	call	0x1762	; 0x1762 <Resistor_Sensor_Status_Calculation>
    1a86:	81 30       	cpi	r24, 0x01	; 1
    1a88:	49 f1       	breq	.+82     	; 0x1adc <Bluetooth_Measure_And_Get_Data+0x88>
    1a8a:	88 e0       	ldi	r24, 0x08	; 8
    1a8c:	91 e0       	ldi	r25, 0x01	; 1
    1a8e:	0e 94 92 07 	call	0xf24	; 0xf24 <EEPROM_Load_Servo_Indicator_State>
    1a92:	c8 2f       	mov	r28, r24
    1a94:	81 30       	cpi	r24, 0x01	; 1
    1a96:	11 f1       	breq	.+68     	; 0x1adc <Bluetooth_Measure_And_Get_Data+0x88>
    1a98:	80 91 08 01 	lds	r24, 0x0108	; 0x800108 <servo_indicator_status>
    1a9c:	81 30       	cpi	r24, 0x01	; 1
    1a9e:	a1 f4       	brne	.+40     	; 0x1ac8 <Bluetooth_Measure_And_Get_Data+0x74>
    1aa0:	0e 94 c9 0b 	call	0x1792	; 0x1792 <Battery_Status_Calculation>
    1aa4:	0e 94 d7 1d 	call	0x3bae	; 0x3bae <Servo_On>
    1aa8:	64 ef       	ldi	r22, 0xF4	; 244
    1aaa:	71 e0       	ldi	r23, 0x01	; 1
    1aac:	80 e0       	ldi	r24, 0x00	; 0
    1aae:	90 e0       	ldi	r25, 0x00	; 0
    1ab0:	0e 94 64 15 	call	0x2ac8	; 0x2ac8 <Delay_ms>
    1ab4:	0e 94 d8 0b 	call	0x17b0	; 0x17b0 <Servo_Status_Indicator_Task>
    1ab8:	0e 94 db 1d 	call	0x3bb6	; 0x3bb6 <Servo_Off>
    1abc:	64 ef       	ldi	r22, 0xF4	; 244
    1abe:	71 e0       	ldi	r23, 0x01	; 1
    1ac0:	80 e0       	ldi	r24, 0x00	; 0
    1ac2:	90 e0       	ldi	r25, 0x00	; 0
    1ac4:	0e 94 64 15 	call	0x2ac8	; 0x2ac8 <Delay_ms>
    1ac8:	0e 94 b8 08 	call	0x1170	; 0x1170 <Data_Frame_Build>
    1acc:	8c e2       	ldi	r24, 0x2C	; 44
    1ace:	95 e0       	ldi	r25, 0x05	; 5
    1ad0:	0e 94 53 04 	call	0x8a6	; 0x8a6 <Bluetooth_Build_Data_Frame>
    1ad4:	0e 94 cb 05 	call	0xb96	; 0xb96 <Bluetooth_Send_Data_Frame>
    1ad8:	8c 2f       	mov	r24, r28
    1ada:	00 c0       	rjmp	.+0      	; 0x1adc <Bluetooth_Measure_And_Get_Data+0x88>
    1adc:	cf 91       	pop	r28
    1ade:	08 95       	ret

00001ae0 <RTC_Configure_TimerA_Interrupt>:
		
	return i2c_error;
}


uint8_t RTC_Configure_TimerA_Interrupt(void){
    1ae0:	cf 93       	push	r28
	
	uint8_t i2c_error = I2C_OK;
	uint8_t measure_period_in_hours = 20;	
		
	/* Load measure period in days from the EEPROM */
	i2c_error = EEPROM_Load_Measure_Period_In_Days((uint8_t *)&measure_period_in_days);
    1ae2:	84 e0       	ldi	r24, 0x04	; 4
    1ae4:	91 e0       	ldi	r25, 0x01	; 1
    1ae6:	0e 94 a4 07 	call	0xf48	; 0xf48 <EEPROM_Load_Measure_Period_In_Days>
	if(i2c_error == I2C_ERROR){
    1aea:	81 30       	cpi	r24, 0x01	; 1
    1aec:	39 f1       	breq	.+78     	; 0x1b3c <RTC_Configure_TimerA_Interrupt+0x5c>
		return i2c_error;
	}
	
	/* Calculate the value to be stored in the TimerA value */
	measure_period_in_hours = (uint8_t)(24 * measure_period_in_days);
    1aee:	80 91 04 01 	lds	r24, 0x0104	; 0x800104 <measure_period_in_days>
    1af2:	c8 e1       	ldi	r28, 0x18	; 24
    1af4:	8c 9f       	mul	r24, r28
    1af6:	c0 2d       	mov	r28, r0
    1af8:	11 24       	eor	r1, r1
	
	/* Disable clockout signal*/
	i2c_error = RTC_Clockout_Source_Select(CLKOUT_DISABLE);
    1afa:	87 e0       	ldi	r24, 0x07	; 7
    1afc:	0e 94 5d 18 	call	0x30ba	; 0x30ba <RTC_Clockout_Source_Select>
	if(i2c_error == I2C_ERROR){
    1b00:	81 30       	cpi	r24, 0x01	; 1
    1b02:	e1 f0       	breq	.+56     	; 0x1b3c <RTC_Configure_TimerA_Interrupt+0x5c>
		return i2c_error;
	}	
	
	/* Clear the TimerA Interrupt flag */
	i2c_error = RTC_TimerA_Int_Flag_Clear();
    1b04:	0e 94 27 18 	call	0x304e	; 0x304e <RTC_TimerA_Int_Flag_Clear>
	if(i2c_error == I2C_ERROR){
    1b08:	81 30       	cpi	r24, 0x01	; 1
    1b0a:	c1 f0       	breq	.+48     	; 0x1b3c <RTC_Configure_TimerA_Interrupt+0x5c>
		return i2c_error;
	}
		
	/* Disable the TimerA interrupt */
	i2c_error = RTC_TimerA_Int_Disable();
    1b0c:	0e 94 fc 17 	call	0x2ff8	; 0x2ff8 <RTC_TimerA_Int_Disable>
	if(i2c_error == I2C_ERROR){	
    1b10:	81 30       	cpi	r24, 0x01	; 1
    1b12:	a1 f0       	breq	.+40     	; 0x1b3c <RTC_Configure_TimerA_Interrupt+0x5c>
		return i2c_error;
	}
	
	/* Disable the TimerA counter */
	i2c_error = RTC_TimerA_Disable();
    1b14:	0e 94 a6 17 	call	0x2f4c	; 0x2f4c <RTC_TimerA_Disable>
	if(i2c_error == I2C_ERROR){	
    1b18:	81 30       	cpi	r24, 0x01	; 1
    1b1a:	81 f0       	breq	.+32     	; 0x1b3c <RTC_Configure_TimerA_Interrupt+0x5c>
		return i2c_error;
	}
	
	/* Load the proper value in the TimerA */
	i2c_error = RTC_TimerA_Load_Value(measure_period_in_hours);
    1b1c:	8c 2f       	mov	r24, r28
    1b1e:	0e 94 6f 17 	call	0x2ede	; 0x2ede <RTC_TimerA_Load_Value>
	if(i2c_error == I2C_ERROR){
    1b22:	81 30       	cpi	r24, 0x01	; 1
    1b24:	59 f0       	breq	.+22     	; 0x1b3c <RTC_Configure_TimerA_Interrupt+0x5c>
	/* Set the proper clock source (pre-scaler) to count hours */
	
	#if(MODO_DE_TRABAJO_DE_NODO == NODO_EN_MODO_TEST_TIEMPO_CORTO)
	i2c_error = RTC_TimerA_Clock_Source_Select(SRC_1_HZ); // This clock source is used for testing
	#elif(MODO_DE_TRABAJO_DE_NODO == NODO_EN_MODO_TRABAJO_TIEMPO_NORMAL)
	i2c_error = RTC_TimerA_Clock_Source_Select(SRC_1_HZ_DIV_3600); // This clock source is used for normal operation
    1b26:	84 e0       	ldi	r24, 0x04	; 4
    1b28:	0e 94 52 18 	call	0x30a4	; 0x30a4 <RTC_TimerA_Clock_Source_Select>
	#else
	 #error Debe elegir un MODO DE TRABAJO valido
	#endif
	
	if(i2c_error == I2C_ERROR){
    1b2c:	81 30       	cpi	r24, 0x01	; 1
    1b2e:	31 f0       	breq	.+12     	; 0x1b3c <RTC_Configure_TimerA_Interrupt+0x5c>
		return i2c_error;
	}

	/* Enable the TimerA counter */
	i2c_error = RTC_TimerA_Enable();
    1b30:	0e 94 7a 17 	call	0x2ef4	; 0x2ef4 <RTC_TimerA_Enable>
	if(i2c_error == I2C_ERROR){
    1b34:	81 30       	cpi	r24, 0x01	; 1
    1b36:	11 f0       	breq	.+4      	; 0x1b3c <RTC_Configure_TimerA_Interrupt+0x5c>
		return i2c_error;
	}

	/* Enable the TimerA interrupt */
	i2c_error = RTC_TimerA_Int_Enable();
    1b38:	0e 94 d1 17 	call	0x2fa2	; 0x2fa2 <RTC_TimerA_Int_Enable>
	
	return i2c_error;
}
    1b3c:	cf 91       	pop	r28
    1b3e:	08 95       	ret

00001b40 <Bluetooth_Test_Mode_Cycle>:





uint8_t Bluetooth_Test_Mode_Cycle(void){
    1b40:	ef 92       	push	r14
    1b42:	ff 92       	push	r15
    1b44:	0f 93       	push	r16
    1b46:	1f 93       	push	r17
    1b48:	cf 93       	push	r28
    1b4a:	df 93       	push	r29
    1b4c:	cd b7       	in	r28, 0x3d	; 61
    1b4e:	de b7       	in	r29, 0x3e	; 62
    1b50:	6e 97       	sbiw	r28, 0x1e	; 30
    1b52:	0f b6       	in	r0, 0x3f	; 63
    1b54:	f8 94       	cli
    1b56:	de bf       	out	0x3e, r29	; 62
    1b58:	0f be       	out	0x3f, r0	; 63
    1b5a:	cd bf       	out	0x3d, r28	; 61
	uint8_t i2c_error = I2C_OK;
	uint8_t command_received = 0;
	uint8_t keep_bluetooth_connected = 1;
	
	/* Configure the UART for bluetooth to work */
	Bluetooth_Interface_Working_Mode_UART_Init();
    1b5c:	0e 94 0f 04 	call	0x81e	; 0x81e <Bluetooth_Interface_Working_Mode_UART_Init>
	/* Enable Timer0 to generate delays */
	Timer0_On();
    1b60:	0e 94 c8 0a 	call	0x1590	; 0x1590 <Timer0_On>
	/* Turn on boost power supply for digital devices */
	Boost_PSU_Power_On();
    1b64:	0e 94 ab 08 	call	0x1156	; 0x1156 <Boost_PSU_Power_On>
	Delay_ms(BOOST_PSU_SETUP_TIME_MS);
    1b68:	68 ee       	ldi	r22, 0xE8	; 232
    1b6a:	73 e0       	ldi	r23, 0x03	; 3
    1b6c:	80 e0       	ldi	r24, 0x00	; 0
    1b6e:	90 e0       	ldi	r25, 0x00	; 0
    1b70:	0e 94 64 15 	call	0x2ac8	; 0x2ac8 <Delay_ms>
	/* Turn on bluetooth module */
	Bluetooth_Interface_On();
    1b74:	0e 94 46 04 	call	0x88c	; 0x88c <Bluetooth_Interface_On>
	Delay_ms(BLUETOOTH_POWER_SETUP_TIME_MS);
    1b78:	64 ef       	ldi	r22, 0xF4	; 244
    1b7a:	71 e0       	ldi	r23, 0x01	; 1
    1b7c:	80 e0       	ldi	r24, 0x00	; 0
    1b7e:	90 e0       	ldi	r25, 0x00	; 0
    1b80:	0e 94 64 15 	call	0x2ac8	; 0x2ac8 <Delay_ms>
uint8_t Bluetooth_Test_Mode_Cycle(void){
	
	char temp_str[30];
	uint8_t i2c_error = I2C_OK;
	uint8_t command_received = 0;
	uint8_t keep_bluetooth_connected = 1;
    1b84:	91 e0       	ldi	r25, 0x01	; 1


uint8_t Bluetooth_Test_Mode_Cycle(void){
	
	char temp_str[30];
	uint8_t i2c_error = I2C_OK;
    1b86:	10 e0       	ldi	r17, 0x00	; 0
	/* Turn on bluetooth module */
	Bluetooth_Interface_On();
	Delay_ms(BLUETOOTH_POWER_SETUP_TIME_MS);

	/* While the bluetooth module keeps receiving commands ... */
	while(keep_bluetooth_connected){
    1b88:	1c c3       	rjmp	.+1592   	; 0x21c2 <Bluetooth_Test_Mode_Cycle+0x682>
		
		/* Clean reception buffer and enable the Xbee reception interrupt */
		Serial_Rx_Buffer_Flush();
    1b8a:	0e 94 7c 1b 	call	0x36f8	; 0x36f8 <Serial_Rx_Buffer_Flush>
		Bluetooth_Serial_Rx_Enable();
    1b8e:	0e 94 0b 06 	call	0xc16	; 0xc16 <Bluetooth_Serial_Rx_Enable>
		
		/* Wait for a command */
		command_received = Serial_Check_If_Command_Received((1 << BT_COMM_RESPONSE_FLAG), BLUETOOTH_TIMEOUT_PERIOD_MS);
    1b92:	40 e6       	ldi	r20, 0x60	; 96
    1b94:	5a ee       	ldi	r21, 0xEA	; 234
    1b96:	60 e0       	ldi	r22, 0x00	; 0
    1b98:	70 e0       	ldi	r23, 0x00	; 0
    1b9a:	80 e0       	ldi	r24, 0x00	; 0
    1b9c:	94 e0       	ldi	r25, 0x04	; 4
    1b9e:	0e 94 b8 1b 	call	0x3770	; 0x3770 <Serial_Check_If_Command_Received>
			
			}
			
			
		}else{
			keep_bluetooth_connected = 0;
    1ba2:	90 e0       	ldi	r25, 0x00	; 0
		Bluetooth_Serial_Rx_Enable();
		
		/* Wait for a command */
		command_received = Serial_Check_If_Command_Received((1 << BT_COMM_RESPONSE_FLAG), BLUETOOTH_TIMEOUT_PERIOD_MS);
		
		if(command_received){
    1ba4:	88 23       	and	r24, r24
    1ba6:	09 f4       	brne	.+2      	; 0x1baa <Bluetooth_Test_Mode_Cycle+0x6a>
    1ba8:	0c c3       	rjmp	.+1560   	; 0x21c2 <Bluetooth_Test_Mode_Cycle+0x682>
			
			if(Bluetooth_Verify_Command_Data_Frame_Request()){
    1baa:	0e 94 61 06 	call	0xcc2	; 0xcc2 <Bluetooth_Verify_Command_Data_Frame_Request>
    1bae:	88 23       	and	r24, r24
    1bb0:	e1 f0       	breq	.+56     	; 0x1bea <Bluetooth_Test_Mode_Cycle+0xaa>
				i2c_error = Bluetooth_Measure_And_Get_Data();
    1bb2:	0e 94 2a 0d 	call	0x1a54	; 0x1a54 <Bluetooth_Measure_And_Get_Data>
    1bb6:	18 2f       	mov	r17, r24
				if(i2c_error == I2C_ERROR){
    1bb8:	81 30       	cpi	r24, 0x01	; 1
    1bba:	09 f0       	breq	.+2      	; 0x1bbe <Bluetooth_Test_Mode_Cycle+0x7e>
    1bbc:	f3 c2       	rjmp	.+1510   	; 0x21a4 <Bluetooth_Test_Mode_Cycle+0x664>
					Bluetooth_Serial_Rx_Disable();
    1bbe:	0e 94 16 06 	call	0xc2c	; 0xc2c <Bluetooth_Serial_Rx_Disable>
					/* Turn off bluetooth module */
					Bluetooth_Interface_Off();
    1bc2:	0e 94 4a 04 	call	0x894	; 0x894 <Bluetooth_Interface_Off>
					Delay_ms(BLUETOOTH_POWER_SETUP_TIME_MS);
    1bc6:	64 ef       	ldi	r22, 0xF4	; 244
    1bc8:	71 e0       	ldi	r23, 0x01	; 1
    1bca:	80 e0       	ldi	r24, 0x00	; 0
    1bcc:	90 e0       	ldi	r25, 0x00	; 0
    1bce:	0e 94 64 15 	call	0x2ac8	; 0x2ac8 <Delay_ms>
					/* Turn off boost power supply for digital devices */
					Boost_PSU_Power_Off();
    1bd2:	0e 94 af 08 	call	0x115e	; 0x115e <Boost_PSU_Power_Off>
					Delay_ms(BOOST_PSU_SETUP_TIME_MS);
    1bd6:	68 ee       	ldi	r22, 0xE8	; 232
    1bd8:	73 e0       	ldi	r23, 0x03	; 3
    1bda:	80 e0       	ldi	r24, 0x00	; 0
    1bdc:	90 e0       	ldi	r25, 0x00	; 0
    1bde:	0e 94 64 15 	call	0x2ac8	; 0x2ac8 <Delay_ms>
					/* Disable Timer0 */
					Timer0_Off();
    1be2:	0e 94 e2 0a 	call	0x15c4	; 0x15c4 <Timer0_Off>
					return i2c_error;				
    1be6:	81 2f       	mov	r24, r17
    1be8:	03 c3       	rjmp	.+1542   	; 0x21f0 <Bluetooth_Test_Mode_Cycle+0x6b0>
				}
				
				keep_bluetooth_connected = 1;
			
			}else if(Bluetooth_Verify_Command_Emitter_ID_Request()){
    1bea:	0e 94 35 06 	call	0xc6a	; 0xc6a <Bluetooth_Verify_Command_Emitter_ID_Request>
    1bee:	88 23       	and	r24, r24
    1bf0:	21 f1       	breq	.+72     	; 0x1c3a <Bluetooth_Test_Mode_Cycle+0xfa>
				i2c_error = EEPROM_Load_Emitter_Node_ID((uint8_t *)temp_str);
    1bf2:	ce 01       	movw	r24, r28
    1bf4:	01 96       	adiw	r24, 0x01	; 1
    1bf6:	0e 94 b6 07 	call	0xf6c	; 0xf6c <EEPROM_Load_Emitter_Node_ID>
    1bfa:	18 2f       	mov	r17, r24
				if(i2c_error == I2C_ERROR){
    1bfc:	81 30       	cpi	r24, 0x01	; 1
    1bfe:	b1 f4       	brne	.+44     	; 0x1c2c <Bluetooth_Test_Mode_Cycle+0xec>
					Bluetooth_Serial_Rx_Disable();
    1c00:	0e 94 16 06 	call	0xc2c	; 0xc2c <Bluetooth_Serial_Rx_Disable>
					/* Turn off bluetooth module */
					Bluetooth_Interface_Off();
    1c04:	0e 94 4a 04 	call	0x894	; 0x894 <Bluetooth_Interface_Off>
					Delay_ms(BLUETOOTH_POWER_SETUP_TIME_MS);
    1c08:	64 ef       	ldi	r22, 0xF4	; 244
    1c0a:	71 e0       	ldi	r23, 0x01	; 1
    1c0c:	80 e0       	ldi	r24, 0x00	; 0
    1c0e:	90 e0       	ldi	r25, 0x00	; 0
    1c10:	0e 94 64 15 	call	0x2ac8	; 0x2ac8 <Delay_ms>
					/* Turn off boost power supply for digital devices */
					Boost_PSU_Power_Off();
    1c14:	0e 94 af 08 	call	0x115e	; 0x115e <Boost_PSU_Power_Off>
					Delay_ms(BOOST_PSU_SETUP_TIME_MS);
    1c18:	68 ee       	ldi	r22, 0xE8	; 232
    1c1a:	73 e0       	ldi	r23, 0x03	; 3
    1c1c:	80 e0       	ldi	r24, 0x00	; 0
    1c1e:	90 e0       	ldi	r25, 0x00	; 0
    1c20:	0e 94 64 15 	call	0x2ac8	; 0x2ac8 <Delay_ms>
					/* Disable Timer0 */
					Timer0_Off();
    1c24:	0e 94 e2 0a 	call	0x15c4	; 0x15c4 <Timer0_Off>
					return i2c_error;
    1c28:	81 2f       	mov	r24, r17
    1c2a:	e2 c2       	rjmp	.+1476   	; 0x21f0 <Bluetooth_Test_Mode_Cycle+0x6b0>
				}
				
				temp_str[EMITTER_NODE_ID_SIZE_IN_BYTES - 2] = '\0';
    1c2c:	19 86       	std	Y+9, r1	; 0x09
				Bluetooth_Send_String(temp_str + 1);
    1c2e:	ce 01       	movw	r24, r28
    1c30:	02 96       	adiw	r24, 0x02	; 2
    1c32:	0e 94 4e 04 	call	0x89c	; 0x89c <Bluetooth_Send_String>
				
				keep_bluetooth_connected = 1;
    1c36:	91 e0       	ldi	r25, 0x01	; 1
    1c38:	c4 c2       	rjmp	.+1416   	; 0x21c2 <Bluetooth_Test_Mode_Cycle+0x682>
				
			}else if(Bluetooth_Verify_Command_Receiver_ID_Request()){
    1c3a:	0e 94 4b 06 	call	0xc96	; 0xc96 <Bluetooth_Verify_Command_Receiver_ID_Request>
    1c3e:	88 23       	and	r24, r24
    1c40:	21 f1       	breq	.+72     	; 0x1c8a <Bluetooth_Test_Mode_Cycle+0x14a>
				i2c_error = EEPROM_Load_Receiver_Central_ID((uint8_t *)temp_str);
    1c42:	ce 01       	movw	r24, r28
    1c44:	01 96       	adiw	r24, 0x01	; 1
    1c46:	0e 94 bf 07 	call	0xf7e	; 0xf7e <EEPROM_Load_Receiver_Central_ID>
    1c4a:	18 2f       	mov	r17, r24
				if(i2c_error == I2C_ERROR){
    1c4c:	81 30       	cpi	r24, 0x01	; 1
    1c4e:	b1 f4       	brne	.+44     	; 0x1c7c <Bluetooth_Test_Mode_Cycle+0x13c>
					Bluetooth_Serial_Rx_Disable();
    1c50:	0e 94 16 06 	call	0xc2c	; 0xc2c <Bluetooth_Serial_Rx_Disable>
					/* Turn off bluetooth module */
					Bluetooth_Interface_Off();
    1c54:	0e 94 4a 04 	call	0x894	; 0x894 <Bluetooth_Interface_Off>
					Delay_ms(BLUETOOTH_POWER_SETUP_TIME_MS);
    1c58:	64 ef       	ldi	r22, 0xF4	; 244
    1c5a:	71 e0       	ldi	r23, 0x01	; 1
    1c5c:	80 e0       	ldi	r24, 0x00	; 0
    1c5e:	90 e0       	ldi	r25, 0x00	; 0
    1c60:	0e 94 64 15 	call	0x2ac8	; 0x2ac8 <Delay_ms>
					/* Turn off boost power supply for digital devices */
					Boost_PSU_Power_Off();
    1c64:	0e 94 af 08 	call	0x115e	; 0x115e <Boost_PSU_Power_Off>
					Delay_ms(BOOST_PSU_SETUP_TIME_MS);
    1c68:	68 ee       	ldi	r22, 0xE8	; 232
    1c6a:	73 e0       	ldi	r23, 0x03	; 3
    1c6c:	80 e0       	ldi	r24, 0x00	; 0
    1c6e:	90 e0       	ldi	r25, 0x00	; 0
    1c70:	0e 94 64 15 	call	0x2ac8	; 0x2ac8 <Delay_ms>
					/* Disable Timer0 */
					Timer0_Off();
    1c74:	0e 94 e2 0a 	call	0x15c4	; 0x15c4 <Timer0_Off>
					return i2c_error;
    1c78:	81 2f       	mov	r24, r17
    1c7a:	ba c2       	rjmp	.+1396   	; 0x21f0 <Bluetooth_Test_Mode_Cycle+0x6b0>
				}
			
				temp_str[RECEIVER_CENTRAL_ID_SIZE_IN_BYTES - 2] = '\0';
    1c7c:	1a 86       	std	Y+10, r1	; 0x0a
				Bluetooth_Send_String(temp_str + 1);
    1c7e:	ce 01       	movw	r24, r28
    1c80:	02 96       	adiw	r24, 0x02	; 2
    1c82:	0e 94 4e 04 	call	0x89c	; 0x89c <Bluetooth_Send_String>
				
				keep_bluetooth_connected = 1;
    1c86:	91 e0       	ldi	r25, 0x01	; 1
    1c88:	9c c2       	rjmp	.+1336   	; 0x21c2 <Bluetooth_Test_Mode_Cycle+0x682>
			
			}else if(Bluetooth_Verify_Command_Part_Number_Request()){
    1c8a:	0e 94 1f 06 	call	0xc3e	; 0xc3e <Bluetooth_Verify_Command_Part_Number_Request>
    1c8e:	88 23       	and	r24, r24
    1c90:	21 f1       	breq	.+72     	; 0x1cda <Bluetooth_Test_Mode_Cycle+0x19a>
				i2c_error = EEPROM_Load_Part_Number((uint8_t *)temp_str);
    1c92:	ce 01       	movw	r24, r28
    1c94:	01 96       	adiw	r24, 0x01	; 1
    1c96:	0e 94 ad 07 	call	0xf5a	; 0xf5a <EEPROM_Load_Part_Number>
    1c9a:	18 2f       	mov	r17, r24
				if(i2c_error == I2C_ERROR){
    1c9c:	81 30       	cpi	r24, 0x01	; 1
    1c9e:	b1 f4       	brne	.+44     	; 0x1ccc <Bluetooth_Test_Mode_Cycle+0x18c>
					Bluetooth_Serial_Rx_Disable();
    1ca0:	0e 94 16 06 	call	0xc2c	; 0xc2c <Bluetooth_Serial_Rx_Disable>
					/* Turn off bluetooth module */
					Bluetooth_Interface_Off();
    1ca4:	0e 94 4a 04 	call	0x894	; 0x894 <Bluetooth_Interface_Off>
					Delay_ms(BLUETOOTH_POWER_SETUP_TIME_MS);
    1ca8:	64 ef       	ldi	r22, 0xF4	; 244
    1caa:	71 e0       	ldi	r23, 0x01	; 1
    1cac:	80 e0       	ldi	r24, 0x00	; 0
    1cae:	90 e0       	ldi	r25, 0x00	; 0
    1cb0:	0e 94 64 15 	call	0x2ac8	; 0x2ac8 <Delay_ms>
					/* Turn off boost power supply for digital devices */
					Boost_PSU_Power_Off();
    1cb4:	0e 94 af 08 	call	0x115e	; 0x115e <Boost_PSU_Power_Off>
					Delay_ms(BOOST_PSU_SETUP_TIME_MS);
    1cb8:	68 ee       	ldi	r22, 0xE8	; 232
    1cba:	73 e0       	ldi	r23, 0x03	; 3
    1cbc:	80 e0       	ldi	r24, 0x00	; 0
    1cbe:	90 e0       	ldi	r25, 0x00	; 0
    1cc0:	0e 94 64 15 	call	0x2ac8	; 0x2ac8 <Delay_ms>
					/* Disable Timer0 */
					Timer0_Off();
    1cc4:	0e 94 e2 0a 	call	0x15c4	; 0x15c4 <Timer0_Off>
					return i2c_error;
    1cc8:	81 2f       	mov	r24, r17
    1cca:	92 c2       	rjmp	.+1316   	; 0x21f0 <Bluetooth_Test_Mode_Cycle+0x6b0>
				}
			
				temp_str[PART_NUMBER_SIZE_IN_BYTES - 2] = '\0';
    1ccc:	1a 86       	std	Y+10, r1	; 0x0a
				Bluetooth_Send_String(temp_str + 1);
    1cce:	ce 01       	movw	r24, r28
    1cd0:	02 96       	adiw	r24, 0x02	; 2
    1cd2:	0e 94 4e 04 	call	0x89c	; 0x89c <Bluetooth_Send_String>
			
				keep_bluetooth_connected = 1;
    1cd6:	91 e0       	ldi	r25, 0x01	; 1
    1cd8:	74 c2       	rjmp	.+1256   	; 0x21c2 <Bluetooth_Test_Mode_Cycle+0x682>
			
			}else if(Bluetooth_Verify_Command_Date_And_Time_Request()){
    1cda:	0e 94 77 06 	call	0xcee	; 0xcee <Bluetooth_Verify_Command_Date_And_Time_Request>
    1cde:	88 23       	and	r24, r24
    1ce0:	09 f4       	brne	.+2      	; 0x1ce4 <Bluetooth_Test_Mode_Cycle+0x1a4>
    1ce2:	a3 c0       	rjmp	.+326    	; 0x1e2a <Bluetooth_Test_Mode_Cycle+0x2ea>
				i2c_error = System_Date_Update();
    1ce4:	0e 94 44 0a 	call	0x1488	; 0x1488 <System_Date_Update>
    1ce8:	18 2f       	mov	r17, r24
				if(i2c_error == I2C_ERROR){
    1cea:	81 30       	cpi	r24, 0x01	; 1
    1cec:	b1 f4       	brne	.+44     	; 0x1d1a <Bluetooth_Test_Mode_Cycle+0x1da>
					Bluetooth_Serial_Rx_Disable();
    1cee:	0e 94 16 06 	call	0xc2c	; 0xc2c <Bluetooth_Serial_Rx_Disable>
					/* Turn off bluetooth module */
					Bluetooth_Interface_Off();
    1cf2:	0e 94 4a 04 	call	0x894	; 0x894 <Bluetooth_Interface_Off>
					Delay_ms(BLUETOOTH_POWER_SETUP_TIME_MS);
    1cf6:	64 ef       	ldi	r22, 0xF4	; 244
    1cf8:	71 e0       	ldi	r23, 0x01	; 1
    1cfa:	80 e0       	ldi	r24, 0x00	; 0
    1cfc:	90 e0       	ldi	r25, 0x00	; 0
    1cfe:	0e 94 64 15 	call	0x2ac8	; 0x2ac8 <Delay_ms>
					/* Turn off boost power supply for digital devices */
					Boost_PSU_Power_Off();
    1d02:	0e 94 af 08 	call	0x115e	; 0x115e <Boost_PSU_Power_Off>
					Delay_ms(BOOST_PSU_SETUP_TIME_MS);
    1d06:	68 ee       	ldi	r22, 0xE8	; 232
    1d08:	73 e0       	ldi	r23, 0x03	; 3
    1d0a:	80 e0       	ldi	r24, 0x00	; 0
    1d0c:	90 e0       	ldi	r25, 0x00	; 0
    1d0e:	0e 94 64 15 	call	0x2ac8	; 0x2ac8 <Delay_ms>
					/* Disable Timer0 */
					Timer0_Off();
    1d12:	0e 94 e2 0a 	call	0x15c4	; 0x15c4 <Timer0_Off>
					return i2c_error;
    1d16:	81 2f       	mov	r24, r17
    1d18:	6b c2       	rjmp	.+1238   	; 0x21f0 <Bluetooth_Test_Mode_Cycle+0x6b0>
				}

				i2c_error = System_Time_Update();
    1d1a:	0e 94 4f 0a 	call	0x149e	; 0x149e <System_Time_Update>
    1d1e:	18 2f       	mov	r17, r24
				if(i2c_error == I2C_ERROR){
    1d20:	81 30       	cpi	r24, 0x01	; 1
    1d22:	b1 f4       	brne	.+44     	; 0x1d50 <Bluetooth_Test_Mode_Cycle+0x210>
					Bluetooth_Serial_Rx_Disable();
    1d24:	0e 94 16 06 	call	0xc2c	; 0xc2c <Bluetooth_Serial_Rx_Disable>
					/* Turn off bluetooth module */
					Bluetooth_Interface_Off();
    1d28:	0e 94 4a 04 	call	0x894	; 0x894 <Bluetooth_Interface_Off>
					Delay_ms(BLUETOOTH_POWER_SETUP_TIME_MS);
    1d2c:	64 ef       	ldi	r22, 0xF4	; 244
    1d2e:	71 e0       	ldi	r23, 0x01	; 1
    1d30:	80 e0       	ldi	r24, 0x00	; 0
    1d32:	90 e0       	ldi	r25, 0x00	; 0
    1d34:	0e 94 64 15 	call	0x2ac8	; 0x2ac8 <Delay_ms>
					/* Turn off boost power supply for digital devices */
					Boost_PSU_Power_Off();
    1d38:	0e 94 af 08 	call	0x115e	; 0x115e <Boost_PSU_Power_Off>
					Delay_ms(BOOST_PSU_SETUP_TIME_MS);
    1d3c:	68 ee       	ldi	r22, 0xE8	; 232
    1d3e:	73 e0       	ldi	r23, 0x03	; 3
    1d40:	80 e0       	ldi	r24, 0x00	; 0
    1d42:	90 e0       	ldi	r25, 0x00	; 0
    1d44:	0e 94 64 15 	call	0x2ac8	; 0x2ac8 <Delay_ms>
					/* Disable Timer0 */
					Timer0_Off();
    1d48:	0e 94 e2 0a 	call	0x15c4	; 0x15c4 <Timer0_Off>
					return i2c_error;
    1d4c:	81 2f       	mov	r24, r17
    1d4e:	50 c2       	rjmp	.+1184   	; 0x21f0 <Bluetooth_Test_Mode_Cycle+0x6b0>
				}
			
				/* Build date string and time string */
				sprintf(date_str, "%02d/%02d/%04d", date_buffer[0], date_buffer[1], 2000 + date_buffer[2]);
    1d50:	ea e0       	ldi	r30, 0x0A	; 10
    1d52:	f3 e0       	ldi	r31, 0x03	; 3
    1d54:	82 81       	ldd	r24, Z+2	; 0x02
    1d56:	31 81       	ldd	r19, Z+1	; 0x01
    1d58:	20 81       	ld	r18, Z
    1d5a:	90 e0       	ldi	r25, 0x00	; 0
    1d5c:	80 53       	subi	r24, 0x30	; 48
    1d5e:	98 4f       	sbci	r25, 0xF8	; 248
    1d60:	9f 93       	push	r25
    1d62:	8f 93       	push	r24
    1d64:	1f 92       	push	r1
    1d66:	3f 93       	push	r19
    1d68:	1f 92       	push	r1
    1d6a:	2f 93       	push	r18
    1d6c:	86 ee       	ldi	r24, 0xE6	; 230
    1d6e:	91 e0       	ldi	r25, 0x01	; 1
    1d70:	9f 93       	push	r25
    1d72:	8f 93       	push	r24
    1d74:	8f e1       	ldi	r24, 0x1F	; 31
    1d76:	95 e0       	ldi	r25, 0x05	; 5
    1d78:	9f 93       	push	r25
    1d7a:	8f 93       	push	r24
    1d7c:	0e 94 fb 21 	call	0x43f6	; 0x43f6 <sprintf>
	
				if(time_buffer[3] == AM){
    1d80:	80 91 09 03 	lds	r24, 0x0309	; 0x800309 <time_buffer+0x3>
    1d84:	0f b6       	in	r0, 0x3f	; 63
    1d86:	f8 94       	cli
    1d88:	de bf       	out	0x3e, r29	; 62
    1d8a:	0f be       	out	0x3f, r0	; 63
    1d8c:	cd bf       	out	0x3d, r28	; 61
    1d8e:	81 11       	cpse	r24, r1
    1d90:	18 c0       	rjmp	.+48     	; 0x1dc2 <Bluetooth_Test_Mode_Cycle+0x282>
					sprintf(time_str, "%02d:%02d a.m.", time_buffer[0], time_buffer[1]);
    1d92:	e6 e0       	ldi	r30, 0x06	; 6
    1d94:	f3 e0       	ldi	r31, 0x03	; 3
    1d96:	91 81       	ldd	r25, Z+1	; 0x01
    1d98:	80 81       	ld	r24, Z
    1d9a:	1f 92       	push	r1
    1d9c:	9f 93       	push	r25
    1d9e:	1f 92       	push	r1
    1da0:	8f 93       	push	r24
    1da2:	85 ef       	ldi	r24, 0xF5	; 245
    1da4:	91 e0       	ldi	r25, 0x01	; 1
    1da6:	9f 93       	push	r25
    1da8:	8f 93       	push	r24
    1daa:	8e e5       	ldi	r24, 0x5E	; 94
    1dac:	95 e0       	ldi	r25, 0x05	; 5
    1dae:	9f 93       	push	r25
    1db0:	8f 93       	push	r24
    1db2:	0e 94 fb 21 	call	0x43f6	; 0x43f6 <sprintf>
    1db6:	0f b6       	in	r0, 0x3f	; 63
    1db8:	f8 94       	cli
    1dba:	de bf       	out	0x3e, r29	; 62
    1dbc:	0f be       	out	0x3f, r0	; 63
    1dbe:	cd bf       	out	0x3d, r28	; 61
    1dc0:	17 c0       	rjmp	.+46     	; 0x1df0 <Bluetooth_Test_Mode_Cycle+0x2b0>
				}else{
					sprintf(time_str, "%02d:%02d p.m.", time_buffer[0], time_buffer[1]);
    1dc2:	e6 e0       	ldi	r30, 0x06	; 6
    1dc4:	f3 e0       	ldi	r31, 0x03	; 3
    1dc6:	91 81       	ldd	r25, Z+1	; 0x01
    1dc8:	80 81       	ld	r24, Z
    1dca:	1f 92       	push	r1
    1dcc:	9f 93       	push	r25
    1dce:	1f 92       	push	r1
    1dd0:	8f 93       	push	r24
    1dd2:	84 e0       	ldi	r24, 0x04	; 4
    1dd4:	92 e0       	ldi	r25, 0x02	; 2
    1dd6:	9f 93       	push	r25
    1dd8:	8f 93       	push	r24
    1dda:	8e e5       	ldi	r24, 0x5E	; 94
    1ddc:	95 e0       	ldi	r25, 0x05	; 5
    1dde:	9f 93       	push	r25
    1de0:	8f 93       	push	r24
    1de2:	0e 94 fb 21 	call	0x43f6	; 0x43f6 <sprintf>
    1de6:	0f b6       	in	r0, 0x3f	; 63
    1de8:	f8 94       	cli
    1dea:	de bf       	out	0x3e, r29	; 62
    1dec:	0f be       	out	0x3f, r0	; 63
    1dee:	cd bf       	out	0x3d, r28	; 61
				}
			
				sprintf(temp_str,"%s %s", date_str, time_str);
    1df0:	8e e5       	ldi	r24, 0x5E	; 94
    1df2:	95 e0       	ldi	r25, 0x05	; 5
    1df4:	9f 93       	push	r25
    1df6:	8f 93       	push	r24
    1df8:	8f e1       	ldi	r24, 0x1F	; 31
    1dfa:	95 e0       	ldi	r25, 0x05	; 5
    1dfc:	9f 93       	push	r25
    1dfe:	8f 93       	push	r24
    1e00:	83 e1       	ldi	r24, 0x13	; 19
    1e02:	92 e0       	ldi	r25, 0x02	; 2
    1e04:	9f 93       	push	r25
    1e06:	8f 93       	push	r24
    1e08:	ce 01       	movw	r24, r28
    1e0a:	01 96       	adiw	r24, 0x01	; 1
    1e0c:	7c 01       	movw	r14, r24
    1e0e:	9f 93       	push	r25
    1e10:	8f 93       	push	r24
    1e12:	0e 94 fb 21 	call	0x43f6	; 0x43f6 <sprintf>
				Bluetooth_Send_String(temp_str);
    1e16:	c7 01       	movw	r24, r14
    1e18:	0e 94 4e 04 	call	0x89c	; 0x89c <Bluetooth_Send_String>
    1e1c:	0f b6       	in	r0, 0x3f	; 63
    1e1e:	f8 94       	cli
    1e20:	de bf       	out	0x3e, r29	; 62
    1e22:	0f be       	out	0x3f, r0	; 63
    1e24:	cd bf       	out	0x3d, r28	; 61
				
				keep_bluetooth_connected = 1;
    1e26:	91 e0       	ldi	r25, 0x01	; 1
    1e28:	cc c1       	rjmp	.+920    	; 0x21c2 <Bluetooth_Test_Mode_Cycle+0x682>
			
			}else if(Bluetooth_Verify_Command_EEPROM_Reset()){
    1e2a:	0e 94 a3 06 	call	0xd46	; 0xd46 <Bluetooth_Verify_Command_EEPROM_Reset>
    1e2e:	88 23       	and	r24, r24
    1e30:	09 f1       	breq	.+66     	; 0x1e74 <Bluetooth_Test_Mode_Cycle+0x334>
				i2c_error = EEPROM_Clear_Data_Frames_Only();
    1e32:	0e 94 e8 07 	call	0xfd0	; 0xfd0 <EEPROM_Clear_Data_Frames_Only>
    1e36:	18 2f       	mov	r17, r24
				if(i2c_error == I2C_ERROR){
    1e38:	81 30       	cpi	r24, 0x01	; 1
    1e3a:	b1 f4       	brne	.+44     	; 0x1e68 <Bluetooth_Test_Mode_Cycle+0x328>
					Bluetooth_Serial_Rx_Disable();
    1e3c:	0e 94 16 06 	call	0xc2c	; 0xc2c <Bluetooth_Serial_Rx_Disable>
					/* Turn off bluetooth module */
					Bluetooth_Interface_Off();
    1e40:	0e 94 4a 04 	call	0x894	; 0x894 <Bluetooth_Interface_Off>
					Delay_ms(BLUETOOTH_POWER_SETUP_TIME_MS);
    1e44:	64 ef       	ldi	r22, 0xF4	; 244
    1e46:	71 e0       	ldi	r23, 0x01	; 1
    1e48:	80 e0       	ldi	r24, 0x00	; 0
    1e4a:	90 e0       	ldi	r25, 0x00	; 0
    1e4c:	0e 94 64 15 	call	0x2ac8	; 0x2ac8 <Delay_ms>
					/* Turn off boost power supply for digital devices */
					Boost_PSU_Power_Off();
    1e50:	0e 94 af 08 	call	0x115e	; 0x115e <Boost_PSU_Power_Off>
					Delay_ms(BOOST_PSU_SETUP_TIME_MS);
    1e54:	68 ee       	ldi	r22, 0xE8	; 232
    1e56:	73 e0       	ldi	r23, 0x03	; 3
    1e58:	80 e0       	ldi	r24, 0x00	; 0
    1e5a:	90 e0       	ldi	r25, 0x00	; 0
    1e5c:	0e 94 64 15 	call	0x2ac8	; 0x2ac8 <Delay_ms>
					/* Disable Timer0 */
					Timer0_Off();
    1e60:	0e 94 e2 0a 	call	0x15c4	; 0x15c4 <Timer0_Off>
					return i2c_error;
    1e64:	81 2f       	mov	r24, r17
    1e66:	c4 c1       	rjmp	.+904    	; 0x21f0 <Bluetooth_Test_Mode_Cycle+0x6b0>
				}
			
				Bluetooth_Send_String("Memoria de backup limpia.");
    1e68:	89 e1       	ldi	r24, 0x19	; 25
    1e6a:	92 e0       	ldi	r25, 0x02	; 2
    1e6c:	0e 94 4e 04 	call	0x89c	; 0x89c <Bluetooth_Send_String>
			
				keep_bluetooth_connected = 1;
    1e70:	91 e0       	ldi	r25, 0x01	; 1
    1e72:	a7 c1       	rjmp	.+846    	; 0x21c2 <Bluetooth_Test_Mode_Cycle+0x682>
			
			}else if(Bluetooth_Verify_Command_EEPROM_Data_Request()){
    1e74:	0e 94 8d 06 	call	0xd1a	; 0xd1a <Bluetooth_Verify_Command_EEPROM_Data_Request>
    1e78:	88 23       	and	r24, r24
    1e7a:	e1 f0       	breq	.+56     	; 0x1eb4 <Bluetooth_Test_Mode_Cycle+0x374>
				
				i2c_error = Bluetooth_Send_Backup_Data_Frames();
    1e7c:	0e 94 d1 05 	call	0xba2	; 0xba2 <Bluetooth_Send_Backup_Data_Frames>
    1e80:	18 2f       	mov	r17, r24
				if(i2c_error == I2C_ERROR){
    1e82:	81 30       	cpi	r24, 0x01	; 1
    1e84:	09 f0       	breq	.+2      	; 0x1e88 <Bluetooth_Test_Mode_Cycle+0x348>
    1e86:	90 c1       	rjmp	.+800    	; 0x21a8 <Bluetooth_Test_Mode_Cycle+0x668>
					Bluetooth_Serial_Rx_Disable();
    1e88:	0e 94 16 06 	call	0xc2c	; 0xc2c <Bluetooth_Serial_Rx_Disable>
					/* Turn off bluetooth module */
					Bluetooth_Interface_Off();
    1e8c:	0e 94 4a 04 	call	0x894	; 0x894 <Bluetooth_Interface_Off>
					Delay_ms(BLUETOOTH_POWER_SETUP_TIME_MS);
    1e90:	64 ef       	ldi	r22, 0xF4	; 244
    1e92:	71 e0       	ldi	r23, 0x01	; 1
    1e94:	80 e0       	ldi	r24, 0x00	; 0
    1e96:	90 e0       	ldi	r25, 0x00	; 0
    1e98:	0e 94 64 15 	call	0x2ac8	; 0x2ac8 <Delay_ms>
					/* Turn off boost power supply for digital devices */
					Boost_PSU_Power_Off();
    1e9c:	0e 94 af 08 	call	0x115e	; 0x115e <Boost_PSU_Power_Off>
					Delay_ms(BOOST_PSU_SETUP_TIME_MS);
    1ea0:	68 ee       	ldi	r22, 0xE8	; 232
    1ea2:	73 e0       	ldi	r23, 0x03	; 3
    1ea4:	80 e0       	ldi	r24, 0x00	; 0
    1ea6:	90 e0       	ldi	r25, 0x00	; 0
    1ea8:	0e 94 64 15 	call	0x2ac8	; 0x2ac8 <Delay_ms>
					/* Disable Timer0 */
					Timer0_Off();
    1eac:	0e 94 e2 0a 	call	0x15c4	; 0x15c4 <Timer0_Off>
					return i2c_error;
    1eb0:	81 2f       	mov	r24, r17
    1eb2:	9e c1       	rjmp	.+828    	; 0x21f0 <Bluetooth_Test_Mode_Cycle+0x6b0>
				}
			
				keep_bluetooth_connected = 1;
				
			}else if(Bluetooth_Verify_Command_Measure_Period_Set()){
    1eb4:	0e 94 cf 06 	call	0xd9e	; 0xd9e <Bluetooth_Verify_Command_Measure_Period_Set>
    1eb8:	88 23       	and	r24, r24
    1eba:	09 f4       	brne	.+2      	; 0x1ebe <Bluetooth_Test_Mode_Cycle+0x37e>
    1ebc:	45 c0       	rjmp	.+138    	; 0x1f48 <Bluetooth_Test_Mode_Cycle+0x408>
				
				if(Serial_Get_Measure_Period((uint8_t *)temp_str)){
    1ebe:	ce 01       	movw	r24, r28
    1ec0:	01 96       	adiw	r24, 0x01	; 1
    1ec2:	0e 94 33 1c 	call	0x3866	; 0x3866 <Serial_Get_Measure_Period>
    1ec6:	88 23       	and	r24, r24
    1ec8:	09 f4       	brne	.+2      	; 0x1ecc <Bluetooth_Test_Mode_Cycle+0x38c>
    1eca:	70 c1       	rjmp	.+736    	; 0x21ac <Bluetooth_Test_Mode_Cycle+0x66c>
					
					i2c_error = EEPROM_Save_Measure_Period_In_Days((uint8_t *)temp_str);	
    1ecc:	ce 01       	movw	r24, r28
    1ece:	01 96       	adiw	r24, 0x01	; 1
    1ed0:	0e 94 65 07 	call	0xeca	; 0xeca <EEPROM_Save_Measure_Period_In_Days>
    1ed4:	18 2f       	mov	r17, r24
					if(i2c_error == I2C_ERROR){
    1ed6:	81 30       	cpi	r24, 0x01	; 1
    1ed8:	b1 f4       	brne	.+44     	; 0x1f06 <Bluetooth_Test_Mode_Cycle+0x3c6>
						Bluetooth_Serial_Rx_Disable();
    1eda:	0e 94 16 06 	call	0xc2c	; 0xc2c <Bluetooth_Serial_Rx_Disable>
						/* Turn off bluetooth module */
						Bluetooth_Interface_Off();
    1ede:	0e 94 4a 04 	call	0x894	; 0x894 <Bluetooth_Interface_Off>
						Delay_ms(BLUETOOTH_POWER_SETUP_TIME_MS);
    1ee2:	64 ef       	ldi	r22, 0xF4	; 244
    1ee4:	71 e0       	ldi	r23, 0x01	; 1
    1ee6:	80 e0       	ldi	r24, 0x00	; 0
    1ee8:	90 e0       	ldi	r25, 0x00	; 0
    1eea:	0e 94 64 15 	call	0x2ac8	; 0x2ac8 <Delay_ms>
						/* Turn off boost power supply for digital devices */
						Boost_PSU_Power_Off();
    1eee:	0e 94 af 08 	call	0x115e	; 0x115e <Boost_PSU_Power_Off>
						Delay_ms(BOOST_PSU_SETUP_TIME_MS);
    1ef2:	68 ee       	ldi	r22, 0xE8	; 232
    1ef4:	73 e0       	ldi	r23, 0x03	; 3
    1ef6:	80 e0       	ldi	r24, 0x00	; 0
    1ef8:	90 e0       	ldi	r25, 0x00	; 0
    1efa:	0e 94 64 15 	call	0x2ac8	; 0x2ac8 <Delay_ms>
						/* Disable Timer0 */
						Timer0_Off();
    1efe:	0e 94 e2 0a 	call	0x15c4	; 0x15c4 <Timer0_Off>
						return i2c_error;
    1f02:	81 2f       	mov	r24, r17
    1f04:	75 c1       	rjmp	.+746    	; 0x21f0 <Bluetooth_Test_Mode_Cycle+0x6b0>
					}
			
					i2c_error = RTC_Configure_TimerA_Interrupt();
    1f06:	0e 94 70 0d 	call	0x1ae0	; 0x1ae0 <RTC_Configure_TimerA_Interrupt>
    1f0a:	18 2f       	mov	r17, r24
					if(i2c_error == I2C_ERROR){
    1f0c:	81 30       	cpi	r24, 0x01	; 1
    1f0e:	b1 f4       	brne	.+44     	; 0x1f3c <Bluetooth_Test_Mode_Cycle+0x3fc>
						Bluetooth_Serial_Rx_Disable();
    1f10:	0e 94 16 06 	call	0xc2c	; 0xc2c <Bluetooth_Serial_Rx_Disable>
						/* Turn off bluetooth module */
						Bluetooth_Interface_Off();
    1f14:	0e 94 4a 04 	call	0x894	; 0x894 <Bluetooth_Interface_Off>
						Delay_ms(BLUETOOTH_POWER_SETUP_TIME_MS);
    1f18:	64 ef       	ldi	r22, 0xF4	; 244
    1f1a:	71 e0       	ldi	r23, 0x01	; 1
    1f1c:	80 e0       	ldi	r24, 0x00	; 0
    1f1e:	90 e0       	ldi	r25, 0x00	; 0
    1f20:	0e 94 64 15 	call	0x2ac8	; 0x2ac8 <Delay_ms>
						/* Turn off boost power supply for digital devices */
						Boost_PSU_Power_Off();
    1f24:	0e 94 af 08 	call	0x115e	; 0x115e <Boost_PSU_Power_Off>
						Delay_ms(BOOST_PSU_SETUP_TIME_MS);
    1f28:	68 ee       	ldi	r22, 0xE8	; 232
    1f2a:	73 e0       	ldi	r23, 0x03	; 3
    1f2c:	80 e0       	ldi	r24, 0x00	; 0
    1f2e:	90 e0       	ldi	r25, 0x00	; 0
    1f30:	0e 94 64 15 	call	0x2ac8	; 0x2ac8 <Delay_ms>
						/* Disable Timer0 */
						Timer0_Off();
    1f34:	0e 94 e2 0a 	call	0x15c4	; 0x15c4 <Timer0_Off>
						return i2c_error;
    1f38:	81 2f       	mov	r24, r17
    1f3a:	5a c1       	rjmp	.+692    	; 0x21f0 <Bluetooth_Test_Mode_Cycle+0x6b0>
					}
					
					Bluetooth_Send_String("Periodo configurado.");			
    1f3c:	83 e3       	ldi	r24, 0x33	; 51
    1f3e:	92 e0       	ldi	r25, 0x02	; 2
    1f40:	0e 94 4e 04 	call	0x89c	; 0x89c <Bluetooth_Send_String>
				
				}
				 
				keep_bluetooth_connected = 1;
    1f44:	91 e0       	ldi	r25, 0x01	; 1
    1f46:	3d c1       	rjmp	.+634    	; 0x21c2 <Bluetooth_Test_Mode_Cycle+0x682>
			
			}else if(Bluetooth_Verify_Command_Emitter_ID_Set()){
    1f48:	0e 94 e5 06 	call	0xdca	; 0xdca <Bluetooth_Verify_Command_Emitter_ID_Set>
    1f4c:	88 23       	and	r24, r24
    1f4e:	b1 f1       	breq	.+108    	; 0x1fbc <Bluetooth_Test_Mode_Cycle+0x47c>
			
				Serial_Get_Emitter_ID((uint8_t *)temp_str);
    1f50:	8e 01       	movw	r16, r28
    1f52:	0f 5f       	subi	r16, 0xFF	; 255
    1f54:	1f 4f       	sbci	r17, 0xFF	; 255
    1f56:	c8 01       	movw	r24, r16
    1f58:	0e 94 49 1c 	call	0x3892	; 0x3892 <Serial_Get_Emitter_ID>
				sprintf(emitter_node_id_str, "\"%s\"", temp_str);
    1f5c:	1f 93       	push	r17
    1f5e:	0f 93       	push	r16
    1f60:	88 e4       	ldi	r24, 0x48	; 72
    1f62:	92 e0       	ldi	r25, 0x02	; 2
    1f64:	9f 93       	push	r25
    1f66:	8f 93       	push	r24
    1f68:	80 e4       	ldi	r24, 0x40	; 64
    1f6a:	95 e0       	ldi	r25, 0x05	; 5
    1f6c:	9f 93       	push	r25
    1f6e:	8f 93       	push	r24
    1f70:	0e 94 fb 21 	call	0x43f6	; 0x43f6 <sprintf>
				i2c_error = EEPROM_Save_Emitter_Node_ID((uint8_t *)emitter_node_id_str);
    1f74:	80 e4       	ldi	r24, 0x40	; 64
    1f76:	95 e0       	ldi	r25, 0x05	; 5
    1f78:	0e 94 6e 07 	call	0xedc	; 0xedc <EEPROM_Save_Emitter_Node_ID>
    1f7c:	18 2f       	mov	r17, r24
				if(i2c_error == I2C_ERROR){
    1f7e:	0f 90       	pop	r0
    1f80:	0f 90       	pop	r0
    1f82:	0f 90       	pop	r0
    1f84:	0f 90       	pop	r0
    1f86:	0f 90       	pop	r0
    1f88:	0f 90       	pop	r0
    1f8a:	81 30       	cpi	r24, 0x01	; 1
    1f8c:	09 f0       	breq	.+2      	; 0x1f90 <Bluetooth_Test_Mode_Cycle+0x450>
    1f8e:	10 c1       	rjmp	.+544    	; 0x21b0 <Bluetooth_Test_Mode_Cycle+0x670>
					Bluetooth_Serial_Rx_Disable();
    1f90:	0e 94 16 06 	call	0xc2c	; 0xc2c <Bluetooth_Serial_Rx_Disable>
					/* Turn off bluetooth module */
					Bluetooth_Interface_Off();
    1f94:	0e 94 4a 04 	call	0x894	; 0x894 <Bluetooth_Interface_Off>
					Delay_ms(BLUETOOTH_POWER_SETUP_TIME_MS);
    1f98:	64 ef       	ldi	r22, 0xF4	; 244
    1f9a:	71 e0       	ldi	r23, 0x01	; 1
    1f9c:	80 e0       	ldi	r24, 0x00	; 0
    1f9e:	90 e0       	ldi	r25, 0x00	; 0
    1fa0:	0e 94 64 15 	call	0x2ac8	; 0x2ac8 <Delay_ms>
					/* Turn off boost power supply for digital devices */
					Boost_PSU_Power_Off();
    1fa4:	0e 94 af 08 	call	0x115e	; 0x115e <Boost_PSU_Power_Off>
					Delay_ms(BOOST_PSU_SETUP_TIME_MS);
    1fa8:	68 ee       	ldi	r22, 0xE8	; 232
    1faa:	73 e0       	ldi	r23, 0x03	; 3
    1fac:	80 e0       	ldi	r24, 0x00	; 0
    1fae:	90 e0       	ldi	r25, 0x00	; 0
    1fb0:	0e 94 64 15 	call	0x2ac8	; 0x2ac8 <Delay_ms>
					/* Disable Timer0 */
					Timer0_Off();
    1fb4:	0e 94 e2 0a 	call	0x15c4	; 0x15c4 <Timer0_Off>
					return i2c_error;
    1fb8:	81 2f       	mov	r24, r17
    1fba:	1a c1       	rjmp	.+564    	; 0x21f0 <Bluetooth_Test_Mode_Cycle+0x6b0>
				}

				keep_bluetooth_connected = 1;
			
			}else if(Bluetooth_Verify_Command_Receiver_ID_Set()){
    1fbc:	0e 94 fb 06 	call	0xdf6	; 0xdf6 <Bluetooth_Verify_Command_Receiver_ID_Set>
    1fc0:	88 23       	and	r24, r24
    1fc2:	d9 f1       	breq	.+118    	; 0x203a <Bluetooth_Test_Mode_Cycle+0x4fa>
			
				Serial_Get_Receiver_ID((uint8_t *)temp_str);
    1fc4:	8e 01       	movw	r16, r28
    1fc6:	0f 5f       	subi	r16, 0xFF	; 255
    1fc8:	1f 4f       	sbci	r17, 0xFF	; 255
    1fca:	c8 01       	movw	r24, r16
    1fcc:	0e 94 60 1c 	call	0x38c0	; 0x38c0 <Serial_Get_Receiver_ID>
				sprintf(receiver_central_id_str, "\"%s\"", temp_str);
    1fd0:	1f 93       	push	r17
    1fd2:	0f 93       	push	r16
    1fd4:	88 e4       	ldi	r24, 0x48	; 72
    1fd6:	92 e0       	ldi	r25, 0x02	; 2
    1fd8:	9f 93       	push	r25
    1fda:	8f 93       	push	r24
    1fdc:	84 e1       	ldi	r24, 0x14	; 20
    1fde:	95 e0       	ldi	r25, 0x05	; 5
    1fe0:	9f 93       	push	r25
    1fe2:	8f 93       	push	r24
    1fe4:	0e 94 fb 21 	call	0x43f6	; 0x43f6 <sprintf>
				i2c_error = EEPROM_Save_Receiver_Central_ID((uint8_t *)receiver_central_id_str);
    1fe8:	84 e1       	ldi	r24, 0x14	; 20
    1fea:	95 e0       	ldi	r25, 0x05	; 5
    1fec:	0e 94 77 07 	call	0xeee	; 0xeee <EEPROM_Save_Receiver_Central_ID>
    1ff0:	18 2f       	mov	r17, r24
				if(i2c_error == I2C_ERROR){
    1ff2:	0f 90       	pop	r0
    1ff4:	0f 90       	pop	r0
    1ff6:	0f 90       	pop	r0
    1ff8:	0f 90       	pop	r0
    1ffa:	0f 90       	pop	r0
    1ffc:	0f 90       	pop	r0
    1ffe:	81 30       	cpi	r24, 0x01	; 1
    2000:	b1 f4       	brne	.+44     	; 0x202e <Bluetooth_Test_Mode_Cycle+0x4ee>
					Bluetooth_Serial_Rx_Disable();
    2002:	0e 94 16 06 	call	0xc2c	; 0xc2c <Bluetooth_Serial_Rx_Disable>
					/* Turn off bluetooth module */
					Bluetooth_Interface_Off();
    2006:	0e 94 4a 04 	call	0x894	; 0x894 <Bluetooth_Interface_Off>
					Delay_ms(BLUETOOTH_POWER_SETUP_TIME_MS);
    200a:	64 ef       	ldi	r22, 0xF4	; 244
    200c:	71 e0       	ldi	r23, 0x01	; 1
    200e:	80 e0       	ldi	r24, 0x00	; 0
    2010:	90 e0       	ldi	r25, 0x00	; 0
    2012:	0e 94 64 15 	call	0x2ac8	; 0x2ac8 <Delay_ms>
					/* Turn off boost power supply for digital devices */
					Boost_PSU_Power_Off();
    2016:	0e 94 af 08 	call	0x115e	; 0x115e <Boost_PSU_Power_Off>
					Delay_ms(BOOST_PSU_SETUP_TIME_MS);
    201a:	68 ee       	ldi	r22, 0xE8	; 232
    201c:	73 e0       	ldi	r23, 0x03	; 3
    201e:	80 e0       	ldi	r24, 0x00	; 0
    2020:	90 e0       	ldi	r25, 0x00	; 0
    2022:	0e 94 64 15 	call	0x2ac8	; 0x2ac8 <Delay_ms>
					/* Disable Timer0 */
					Timer0_Off();
    2026:	0e 94 e2 0a 	call	0x15c4	; 0x15c4 <Timer0_Off>
					return i2c_error;
    202a:	81 2f       	mov	r24, r17
    202c:	e1 c0       	rjmp	.+450    	; 0x21f0 <Bluetooth_Test_Mode_Cycle+0x6b0>
				}
				
				Bluetooth_Send_String("ID receptor configurado.");
    202e:	8d e4       	ldi	r24, 0x4D	; 77
    2030:	92 e0       	ldi	r25, 0x02	; 2
    2032:	0e 94 4e 04 	call	0x89c	; 0x89c <Bluetooth_Send_String>
			
				keep_bluetooth_connected = 1;
    2036:	91 e0       	ldi	r25, 0x01	; 1
    2038:	c4 c0       	rjmp	.+392    	; 0x21c2 <Bluetooth_Test_Mode_Cycle+0x682>
			
			}else if(Bluetooth_Verify_Command_Number_Of_Sensors_Set()){
    203a:	0e 94 11 07 	call	0xe22	; 0xe22 <Bluetooth_Verify_Command_Number_Of_Sensors_Set>
    203e:	88 23       	and	r24, r24
    2040:	39 f1       	breq	.+78     	; 0x2090 <Bluetooth_Test_Mode_Cycle+0x550>
			
				if(Serial_Get_Number_Of_Sensors((uint8_t *)temp_str)){
    2042:	ce 01       	movw	r24, r28
    2044:	01 96       	adiw	r24, 0x01	; 1
    2046:	0e 94 77 1c 	call	0x38ee	; 0x38ee <Serial_Get_Number_Of_Sensors>
    204a:	88 23       	and	r24, r24
    204c:	09 f4       	brne	.+2      	; 0x2050 <Bluetooth_Test_Mode_Cycle+0x510>
    204e:	b2 c0       	rjmp	.+356    	; 0x21b4 <Bluetooth_Test_Mode_Cycle+0x674>
					*temp_str = 1;
    2050:	81 e0       	ldi	r24, 0x01	; 1
    2052:	89 83       	std	Y+1, r24	; 0x01
					i2c_error = EEPROM_Save_Number_Of_Sensors((uint8_t *)temp_str);
    2054:	ce 01       	movw	r24, r28
    2056:	01 96       	adiw	r24, 0x01	; 1
    2058:	0e 94 5c 07 	call	0xeb8	; 0xeb8 <EEPROM_Save_Number_Of_Sensors>
    205c:	18 2f       	mov	r17, r24
					if(i2c_error == I2C_ERROR){
    205e:	81 30       	cpi	r24, 0x01	; 1
    2060:	09 f0       	breq	.+2      	; 0x2064 <Bluetooth_Test_Mode_Cycle+0x524>
    2062:	aa c0       	rjmp	.+340    	; 0x21b8 <Bluetooth_Test_Mode_Cycle+0x678>
						Bluetooth_Serial_Rx_Disable();
    2064:	0e 94 16 06 	call	0xc2c	; 0xc2c <Bluetooth_Serial_Rx_Disable>
						/* Turn off bluetooth module */
						Bluetooth_Interface_Off();
    2068:	0e 94 4a 04 	call	0x894	; 0x894 <Bluetooth_Interface_Off>
						Delay_ms(BLUETOOTH_POWER_SETUP_TIME_MS);
    206c:	64 ef       	ldi	r22, 0xF4	; 244
    206e:	71 e0       	ldi	r23, 0x01	; 1
    2070:	80 e0       	ldi	r24, 0x00	; 0
    2072:	90 e0       	ldi	r25, 0x00	; 0
    2074:	0e 94 64 15 	call	0x2ac8	; 0x2ac8 <Delay_ms>
						/* Turn off boost power supply for digital devices */
						Boost_PSU_Power_Off();
    2078:	0e 94 af 08 	call	0x115e	; 0x115e <Boost_PSU_Power_Off>
						Delay_ms(BOOST_PSU_SETUP_TIME_MS);
    207c:	68 ee       	ldi	r22, 0xE8	; 232
    207e:	73 e0       	ldi	r23, 0x03	; 3
    2080:	80 e0       	ldi	r24, 0x00	; 0
    2082:	90 e0       	ldi	r25, 0x00	; 0
    2084:	0e 94 64 15 	call	0x2ac8	; 0x2ac8 <Delay_ms>
						/* Disable Timer0 */
						Timer0_Off();
    2088:	0e 94 e2 0a 	call	0x15c4	; 0x15c4 <Timer0_Off>
						return i2c_error;
    208c:	81 2f       	mov	r24, r17
    208e:	b0 c0       	rjmp	.+352    	; 0x21f0 <Bluetooth_Test_Mode_Cycle+0x6b0>
				
				}
			
				keep_bluetooth_connected = 1;
			
			}else if(Bluetooth_Verify_Command_Servo_Enable_Disable()){
    2090:	0e 94 27 07 	call	0xe4e	; 0xe4e <Bluetooth_Verify_Command_Servo_Enable_Disable>
    2094:	88 23       	and	r24, r24
    2096:	99 f1       	breq	.+102    	; 0x20fe <Bluetooth_Test_Mode_Cycle+0x5be>
			
				if(Serial_Get_Servo_State((uint8_t *)temp_str)){
    2098:	ce 01       	movw	r24, r28
    209a:	01 96       	adiw	r24, 0x01	; 1
    209c:	0e 94 84 1c 	call	0x3908	; 0x3908 <Serial_Get_Servo_State>
    20a0:	88 23       	and	r24, r24
    20a2:	09 f4       	brne	.+2      	; 0x20a6 <Bluetooth_Test_Mode_Cycle+0x566>
    20a4:	8b c0       	rjmp	.+278    	; 0x21bc <Bluetooth_Test_Mode_Cycle+0x67c>
				
					i2c_error = EEPROM_Save_Servo_Indicator_State((uint8_t *)temp_str);
    20a6:	ce 01       	movw	r24, r28
    20a8:	01 96       	adiw	r24, 0x01	; 1
    20aa:	0e 94 53 07 	call	0xea6	; 0xea6 <EEPROM_Save_Servo_Indicator_State>
    20ae:	18 2f       	mov	r17, r24
					if(i2c_error == I2C_ERROR){
    20b0:	81 30       	cpi	r24, 0x01	; 1
    20b2:	b1 f4       	brne	.+44     	; 0x20e0 <Bluetooth_Test_Mode_Cycle+0x5a0>
						Bluetooth_Serial_Rx_Disable();
    20b4:	0e 94 16 06 	call	0xc2c	; 0xc2c <Bluetooth_Serial_Rx_Disable>
						/* Turn off bluetooth module */
						Bluetooth_Interface_Off();
    20b8:	0e 94 4a 04 	call	0x894	; 0x894 <Bluetooth_Interface_Off>
						Delay_ms(BLUETOOTH_POWER_SETUP_TIME_MS);
    20bc:	64 ef       	ldi	r22, 0xF4	; 244
    20be:	71 e0       	ldi	r23, 0x01	; 1
    20c0:	80 e0       	ldi	r24, 0x00	; 0
    20c2:	90 e0       	ldi	r25, 0x00	; 0
    20c4:	0e 94 64 15 	call	0x2ac8	; 0x2ac8 <Delay_ms>
						/* Turn off boost power supply for digital devices */
						Boost_PSU_Power_Off();
    20c8:	0e 94 af 08 	call	0x115e	; 0x115e <Boost_PSU_Power_Off>
						Delay_ms(BOOST_PSU_SETUP_TIME_MS);
    20cc:	68 ee       	ldi	r22, 0xE8	; 232
    20ce:	73 e0       	ldi	r23, 0x03	; 3
    20d0:	80 e0       	ldi	r24, 0x00	; 0
    20d2:	90 e0       	ldi	r25, 0x00	; 0
    20d4:	0e 94 64 15 	call	0x2ac8	; 0x2ac8 <Delay_ms>
						/* Disable Timer0 */
						Timer0_Off();
    20d8:	0e 94 e2 0a 	call	0x15c4	; 0x15c4 <Timer0_Off>
						return i2c_error;
    20dc:	81 2f       	mov	r24, r17
    20de:	88 c0       	rjmp	.+272    	; 0x21f0 <Bluetooth_Test_Mode_Cycle+0x6b0>
					}
					
					if(*temp_str == 1){
    20e0:	89 81       	ldd	r24, Y+1	; 0x01
    20e2:	81 30       	cpi	r24, 0x01	; 1
    20e4:	31 f4       	brne	.+12     	; 0x20f2 <Bluetooth_Test_Mode_Cycle+0x5b2>
						Bluetooth_Send_String("Indicador activado.");
    20e6:	86 e6       	ldi	r24, 0x66	; 102
    20e8:	92 e0       	ldi	r25, 0x02	; 2
    20ea:	0e 94 4e 04 	call	0x89c	; 0x89c <Bluetooth_Send_String>
						Bluetooth_Send_String("Indicador desactivado.");
					}
					
				}
			
				keep_bluetooth_connected = 1;
    20ee:	91 e0       	ldi	r25, 0x01	; 1
    20f0:	68 c0       	rjmp	.+208    	; 0x21c2 <Bluetooth_Test_Mode_Cycle+0x682>
					}
					
					if(*temp_str == 1){
						Bluetooth_Send_String("Indicador activado.");
					}else{
						Bluetooth_Send_String("Indicador desactivado.");
    20f2:	8a e7       	ldi	r24, 0x7A	; 122
    20f4:	92 e0       	ldi	r25, 0x02	; 2
    20f6:	0e 94 4e 04 	call	0x89c	; 0x89c <Bluetooth_Send_String>
					}
					
				}
			
				keep_bluetooth_connected = 1;
    20fa:	91 e0       	ldi	r25, 0x01	; 1
    20fc:	62 c0       	rjmp	.+196    	; 0x21c2 <Bluetooth_Test_Mode_Cycle+0x682>
			
			}else if(Bluetooth_Verify_Command_Date_And_Time_Set()){
    20fe:	0e 94 3d 07 	call	0xe7a	; 0xe7a <Bluetooth_Verify_Command_Date_And_Time_Set>
    2102:	88 23       	and	r24, r24
    2104:	09 f4       	brne	.+2      	; 0x2108 <Bluetooth_Test_Mode_Cycle+0x5c8>
    2106:	4a c0       	rjmp	.+148    	; 0x219c <Bluetooth_Test_Mode_Cycle+0x65c>
				
				if(Serial_Get_Date_And_Time((uint8_t *)temp_str)){
    2108:	ce 01       	movw	r24, r28
    210a:	01 96       	adiw	r24, 0x01	; 1
    210c:	0e 94 8f 1c 	call	0x391e	; 0x391e <Serial_Get_Date_And_Time>
    2110:	88 23       	and	r24, r24
    2112:	09 f4       	brne	.+2      	; 0x2116 <Bluetooth_Test_Mode_Cycle+0x5d6>
    2114:	55 c0       	rjmp	.+170    	; 0x21c0 <Bluetooth_Test_Mode_Cycle+0x680>
					
					i2c_error = RTC_Date_Set(*(temp_str), *(temp_str + 1), *(temp_str + 2));
    2116:	4b 81       	ldd	r20, Y+3	; 0x03
    2118:	6a 81       	ldd	r22, Y+2	; 0x02
    211a:	89 81       	ldd	r24, Y+1	; 0x01
    211c:	0e 94 73 16 	call	0x2ce6	; 0x2ce6 <RTC_Date_Set>
    2120:	18 2f       	mov	r17, r24
					if(i2c_error == I2C_ERROR){
    2122:	81 30       	cpi	r24, 0x01	; 1
    2124:	b1 f4       	brne	.+44     	; 0x2152 <Bluetooth_Test_Mode_Cycle+0x612>
						Bluetooth_Serial_Rx_Disable();
    2126:	0e 94 16 06 	call	0xc2c	; 0xc2c <Bluetooth_Serial_Rx_Disable>
						/* Turn off bluetooth module */
						Bluetooth_Interface_Off();
    212a:	0e 94 4a 04 	call	0x894	; 0x894 <Bluetooth_Interface_Off>
						Delay_ms(BLUETOOTH_POWER_SETUP_TIME_MS);
    212e:	64 ef       	ldi	r22, 0xF4	; 244
    2130:	71 e0       	ldi	r23, 0x01	; 1
    2132:	80 e0       	ldi	r24, 0x00	; 0
    2134:	90 e0       	ldi	r25, 0x00	; 0
    2136:	0e 94 64 15 	call	0x2ac8	; 0x2ac8 <Delay_ms>
						/* Turn off boost power supply for digital devices */
						Boost_PSU_Power_Off();
    213a:	0e 94 af 08 	call	0x115e	; 0x115e <Boost_PSU_Power_Off>
						Delay_ms(BOOST_PSU_SETUP_TIME_MS);
    213e:	68 ee       	ldi	r22, 0xE8	; 232
    2140:	73 e0       	ldi	r23, 0x03	; 3
    2142:	80 e0       	ldi	r24, 0x00	; 0
    2144:	90 e0       	ldi	r25, 0x00	; 0
    2146:	0e 94 64 15 	call	0x2ac8	; 0x2ac8 <Delay_ms>
						/* Disable Timer0 */
						Timer0_Off();
    214a:	0e 94 e2 0a 	call	0x15c4	; 0x15c4 <Timer0_Off>
						return i2c_error;
    214e:	81 2f       	mov	r24, r17
    2150:	4f c0       	rjmp	.+158    	; 0x21f0 <Bluetooth_Test_Mode_Cycle+0x6b0>
					}
					
					
					i2c_error = RTC_Time_Set_12h(*(temp_str + 3), *(temp_str + 4), 0, *(temp_str + 5));
    2152:	2e 81       	ldd	r18, Y+6	; 0x06
    2154:	6d 81       	ldd	r22, Y+5	; 0x05
    2156:	40 e0       	ldi	r20, 0x00	; 0
    2158:	8c 81       	ldd	r24, Y+4	; 0x04
    215a:	0e 94 af 15 	call	0x2b5e	; 0x2b5e <RTC_Time_Set_12h>
    215e:	18 2f       	mov	r17, r24
					if(i2c_error == I2C_ERROR){
    2160:	81 30       	cpi	r24, 0x01	; 1
    2162:	b1 f4       	brne	.+44     	; 0x2190 <Bluetooth_Test_Mode_Cycle+0x650>
						Bluetooth_Serial_Rx_Disable();
    2164:	0e 94 16 06 	call	0xc2c	; 0xc2c <Bluetooth_Serial_Rx_Disable>
						/* Turn off bluetooth module */
						Bluetooth_Interface_Off();
    2168:	0e 94 4a 04 	call	0x894	; 0x894 <Bluetooth_Interface_Off>
						Delay_ms(BLUETOOTH_POWER_SETUP_TIME_MS);
    216c:	64 ef       	ldi	r22, 0xF4	; 244
    216e:	71 e0       	ldi	r23, 0x01	; 1
    2170:	80 e0       	ldi	r24, 0x00	; 0
    2172:	90 e0       	ldi	r25, 0x00	; 0
    2174:	0e 94 64 15 	call	0x2ac8	; 0x2ac8 <Delay_ms>
						/* Turn off boost power supply for digital devices */
						Boost_PSU_Power_Off();
    2178:	0e 94 af 08 	call	0x115e	; 0x115e <Boost_PSU_Power_Off>
						Delay_ms(BOOST_PSU_SETUP_TIME_MS);
    217c:	68 ee       	ldi	r22, 0xE8	; 232
    217e:	73 e0       	ldi	r23, 0x03	; 3
    2180:	80 e0       	ldi	r24, 0x00	; 0
    2182:	90 e0       	ldi	r25, 0x00	; 0
    2184:	0e 94 64 15 	call	0x2ac8	; 0x2ac8 <Delay_ms>
						/* Disable Timer0 */
						Timer0_Off();
    2188:	0e 94 e2 0a 	call	0x15c4	; 0x15c4 <Timer0_Off>
						return i2c_error;
    218c:	81 2f       	mov	r24, r17
    218e:	30 c0       	rjmp	.+96     	; 0x21f0 <Bluetooth_Test_Mode_Cycle+0x6b0>
					}
					
					Bluetooth_Send_String("Fecha y hora configurada.");
    2190:	81 e9       	ldi	r24, 0x91	; 145
    2192:	92 e0       	ldi	r25, 0x02	; 2
    2194:	0e 94 4e 04 	call	0x89c	; 0x89c <Bluetooth_Send_String>
				}
				
				
				keep_bluetooth_connected = 1;
    2198:	91 e0       	ldi	r25, 0x01	; 1
    219a:	13 c0       	rjmp	.+38     	; 0x21c2 <Bluetooth_Test_Mode_Cycle+0x682>
			
			}else if(Bluetooth_Verify_Command_Disconnect()){
    219c:	0e 94 b9 06 	call	0xd72	; 0xd72 <Bluetooth_Verify_Command_Disconnect>
	
				keep_bluetooth_connected = 0;
    21a0:	90 e0       	ldi	r25, 0x00	; 0
    21a2:	0f c0       	rjmp	.+30     	; 0x21c2 <Bluetooth_Test_Mode_Cycle+0x682>
					/* Disable Timer0 */
					Timer0_Off();
					return i2c_error;				
				}
				
				keep_bluetooth_connected = 1;
    21a4:	91 e0       	ldi	r25, 0x01	; 1
    21a6:	0d c0       	rjmp	.+26     	; 0x21c2 <Bluetooth_Test_Mode_Cycle+0x682>
					/* Disable Timer0 */
					Timer0_Off();
					return i2c_error;
				}
			
				keep_bluetooth_connected = 1;
    21a8:	91 e0       	ldi	r25, 0x01	; 1
    21aa:	0b c0       	rjmp	.+22     	; 0x21c2 <Bluetooth_Test_Mode_Cycle+0x682>
					
					Bluetooth_Send_String("Periodo configurado.");			
				
				}
				 
				keep_bluetooth_connected = 1;
    21ac:	91 e0       	ldi	r25, 0x01	; 1
    21ae:	09 c0       	rjmp	.+18     	; 0x21c2 <Bluetooth_Test_Mode_Cycle+0x682>
					/* Disable Timer0 */
					Timer0_Off();
					return i2c_error;
				}

				keep_bluetooth_connected = 1;
    21b0:	91 e0       	ldi	r25, 0x01	; 1
    21b2:	07 c0       	rjmp	.+14     	; 0x21c2 <Bluetooth_Test_Mode_Cycle+0x682>
						return i2c_error;
					}
				
				}
			
				keep_bluetooth_connected = 1;
    21b4:	91 e0       	ldi	r25, 0x01	; 1
    21b6:	05 c0       	rjmp	.+10     	; 0x21c2 <Bluetooth_Test_Mode_Cycle+0x682>
    21b8:	91 e0       	ldi	r25, 0x01	; 1
    21ba:	03 c0       	rjmp	.+6      	; 0x21c2 <Bluetooth_Test_Mode_Cycle+0x682>
						Bluetooth_Send_String("Indicador desactivado.");
					}
					
				}
			
				keep_bluetooth_connected = 1;
    21bc:	91 e0       	ldi	r25, 0x01	; 1
    21be:	01 c0       	rjmp	.+2      	; 0x21c2 <Bluetooth_Test_Mode_Cycle+0x682>
					
					Bluetooth_Send_String("Fecha y hora configurada.");
				}
				
				
				keep_bluetooth_connected = 1;
    21c0:	91 e0       	ldi	r25, 0x01	; 1
	/* Turn on bluetooth module */
	Bluetooth_Interface_On();
	Delay_ms(BLUETOOTH_POWER_SETUP_TIME_MS);

	/* While the bluetooth module keeps receiving commands ... */
	while(keep_bluetooth_connected){
    21c2:	91 11       	cpse	r25, r1
    21c4:	e2 cc       	rjmp	.-1596   	; 0x1b8a <Bluetooth_Test_Mode_Cycle+0x4a>
			keep_bluetooth_connected = 0;
		}
		
	}
	
	Bluetooth_Serial_Rx_Disable();
    21c6:	0e 94 16 06 	call	0xc2c	; 0xc2c <Bluetooth_Serial_Rx_Disable>

	/* Turn off bluetooth module */
	Bluetooth_Interface_Off();
    21ca:	0e 94 4a 04 	call	0x894	; 0x894 <Bluetooth_Interface_Off>
	Delay_ms(BLUETOOTH_POWER_SETUP_TIME_MS);
    21ce:	64 ef       	ldi	r22, 0xF4	; 244
    21d0:	71 e0       	ldi	r23, 0x01	; 1
    21d2:	80 e0       	ldi	r24, 0x00	; 0
    21d4:	90 e0       	ldi	r25, 0x00	; 0
    21d6:	0e 94 64 15 	call	0x2ac8	; 0x2ac8 <Delay_ms>
	
	/* Turn on boost power supply for digital devices */
	Boost_PSU_Power_Off();
    21da:	0e 94 af 08 	call	0x115e	; 0x115e <Boost_PSU_Power_Off>
	Delay_ms(BOOST_PSU_SETUP_TIME_MS);
    21de:	68 ee       	ldi	r22, 0xE8	; 232
    21e0:	73 e0       	ldi	r23, 0x03	; 3
    21e2:	80 e0       	ldi	r24, 0x00	; 0
    21e4:	90 e0       	ldi	r25, 0x00	; 0
    21e6:	0e 94 64 15 	call	0x2ac8	; 0x2ac8 <Delay_ms>
	
	/* Disable Timer0 */
	Timer0_Off();
    21ea:	0e 94 e2 0a 	call	0x15c4	; 0x15c4 <Timer0_Off>
	
	return i2c_error;
    21ee:	81 2f       	mov	r24, r17
}
    21f0:	6e 96       	adiw	r28, 0x1e	; 30
    21f2:	0f b6       	in	r0, 0x3f	; 63
    21f4:	f8 94       	cli
    21f6:	de bf       	out	0x3e, r29	; 62
    21f8:	0f be       	out	0x3f, r0	; 63
    21fa:	cd bf       	out	0x3d, r28	; 61
    21fc:	df 91       	pop	r29
    21fe:	cf 91       	pop	r28
    2200:	1f 91       	pop	r17
    2202:	0f 91       	pop	r16
    2204:	ff 90       	pop	r15
    2206:	ef 90       	pop	r14
    2208:	08 95       	ret

0000220a <RTC_Boot_Time_Configuration>:
	return i2c_error;
		
}


uint8_t RTC_Boot_Time_Configuration(void){
    220a:	cf 93       	push	r28
	
	uint8_t i2c_error = I2C_OK;
	
	/* Turn on Timer0 (in order to implement delays and timeouts) */
	Timer0_On();
    220c:	0e 94 c8 0a 	call	0x1590	; 0x1590 <Timer0_On>
	
	/* Turn on boost power supply */
	Boost_PSU_Power_On();
    2210:	0e 94 ab 08 	call	0x1156	; 0x1156 <Boost_PSU_Power_On>
	Delay_ms(BOOST_PSU_SETUP_TIME_MS);
    2214:	68 ee       	ldi	r22, 0xE8	; 232
    2216:	73 e0       	ldi	r23, 0x03	; 3
    2218:	80 e0       	ldi	r24, 0x00	; 0
    221a:	90 e0       	ldi	r25, 0x00	; 0
    221c:	0e 94 64 15 	call	0x2ac8	; 0x2ac8 <Delay_ms>
	
	i2c_error = RTC_Set_Mode_12h();
    2220:	0e 94 86 15 	call	0x2b0c	; 0x2b0c <RTC_Set_Mode_12h>
	if(i2c_error == I2C_ERROR){
    2224:	81 30       	cpi	r24, 0x01	; 1
    2226:	e9 f0       	breq	.+58     	; 0x2262 <RTC_Boot_Time_Configuration+0x58>
		return i2c_error;
	}
	
	i2c_error = RTC_Date_Set(DATE_DAY_BY_DEFAULT, DATE_MONTH_BY_DEFAULT, DATE_YEAR_BY_DEFAULT);
    2228:	44 e1       	ldi	r20, 0x14	; 20
    222a:	61 e0       	ldi	r22, 0x01	; 1
    222c:	81 e0       	ldi	r24, 0x01	; 1
    222e:	0e 94 73 16 	call	0x2ce6	; 0x2ce6 <RTC_Date_Set>
	if(i2c_error == I2C_ERROR){
    2232:	81 30       	cpi	r24, 0x01	; 1
    2234:	b1 f0       	breq	.+44     	; 0x2262 <RTC_Boot_Time_Configuration+0x58>
		return i2c_error;
	}
	
	i2c_error = RTC_Time_Set_12h(TIME_HOUR_BY_DEFAULT, TIME_MINUTE_BY_DEFAULT, TIME_SECOND_BY_DEFAULT, TIME_MERIDIEN_BY_DEFAULT);	
    2236:	20 e0       	ldi	r18, 0x00	; 0
    2238:	40 e0       	ldi	r20, 0x00	; 0
    223a:	6b e3       	ldi	r22, 0x3B	; 59
    223c:	8b e0       	ldi	r24, 0x0B	; 11
    223e:	0e 94 af 15 	call	0x2b5e	; 0x2b5e <RTC_Time_Set_12h>
	if(i2c_error == I2C_ERROR){
    2242:	81 30       	cpi	r24, 0x01	; 1
    2244:	71 f0       	breq	.+28     	; 0x2262 <RTC_Boot_Time_Configuration+0x58>
		return i2c_error;
	}	
	
	i2c_error = RTC_Configure_TimerA_Interrupt();	
    2246:	0e 94 70 0d 	call	0x1ae0	; 0x1ae0 <RTC_Configure_TimerA_Interrupt>
    224a:	c8 2f       	mov	r28, r24

	/* Turn on boost power supply for digital devices */
	Boost_PSU_Power_Off();
    224c:	0e 94 af 08 	call	0x115e	; 0x115e <Boost_PSU_Power_Off>
	Delay_ms(BOOST_PSU_SETUP_TIME_MS);
    2250:	68 ee       	ldi	r22, 0xE8	; 232
    2252:	73 e0       	ldi	r23, 0x03	; 3
    2254:	80 e0       	ldi	r24, 0x00	; 0
    2256:	90 e0       	ldi	r25, 0x00	; 0
    2258:	0e 94 64 15 	call	0x2ac8	; 0x2ac8 <Delay_ms>

	/* Turn off Timer0 */
	Timer0_Off();
    225c:	0e 94 e2 0a 	call	0x15c4	; 0x15c4 <Timer0_Off>

	return i2c_error;
    2260:	8c 2f       	mov	r24, r28
	
}
    2262:	cf 91       	pop	r28
    2264:	08 95       	ret

00002266 <Microcontroller_Peripherals_Disable>:


void Microcontroller_Peripherals_Disable(void){
	
	/* Disable UART transmitter for Both Xbee and Bluetooth */
	UCSR0B &= ~(1 << TXEN0);
    2266:	e1 ec       	ldi	r30, 0xC1	; 193
    2268:	f0 e0       	ldi	r31, 0x00	; 0
    226a:	80 81       	ld	r24, Z
    226c:	87 7f       	andi	r24, 0xF7	; 247
    226e:	80 83       	st	Z, r24
	UCSR1B &= ~(1 << TXEN1);
    2270:	e9 ec       	ldi	r30, 0xC9	; 201
    2272:	f0 e0       	ldi	r31, 0x00	; 0
    2274:	80 81       	ld	r24, Z
    2276:	87 7f       	andi	r24, 0xF7	; 247
    2278:	80 83       	st	Z, r24
	
	/* Disable UART receiver for Bluetooth */
	UCSR1B &= ~(1 << RXEN1);
    227a:	80 81       	ld	r24, Z
    227c:	8f 7e       	andi	r24, 0xEF	; 239
    227e:	80 83       	st	Z, r24
	
	/* Disable ADC and ADC voltage reference */
	ADCSRA &= ~(1 << ADEN);
    2280:	ea e7       	ldi	r30, 0x7A	; 122
    2282:	f0 e0       	ldi	r31, 0x00	; 0
    2284:	80 81       	ld	r24, Z
    2286:	8f 77       	andi	r24, 0x7F	; 127
    2288:	80 83       	st	Z, r24
	ADMUX &= ~((1 << REFS1) | (1 << REFS0));
    228a:	ec e7       	ldi	r30, 0x7C	; 124
    228c:	f0 e0       	ldi	r31, 0x00	; 0
    228e:	80 81       	ld	r24, Z
    2290:	8f 73       	andi	r24, 0x3F	; 63
    2292:	80 83       	st	Z, r24
    2294:	08 95       	ret

00002296 <Microcontroller_Peripherals_Enable>:


void Microcontroller_Peripherals_Enable(void){
	
	/* Enable UART transmitter for Both Xbee and Bluetooth */
	UCSR0B |= (1 << TXEN0);
    2296:	e1 ec       	ldi	r30, 0xC1	; 193
    2298:	f0 e0       	ldi	r31, 0x00	; 0
    229a:	80 81       	ld	r24, Z
    229c:	88 60       	ori	r24, 0x08	; 8
    229e:	80 83       	st	Z, r24
	UCSR1B |= (1 << TXEN1);
    22a0:	e9 ec       	ldi	r30, 0xC9	; 201
    22a2:	f0 e0       	ldi	r31, 0x00	; 0
    22a4:	80 81       	ld	r24, Z
    22a6:	88 60       	ori	r24, 0x08	; 8
    22a8:	80 83       	st	Z, r24
	
	/* Enable UART receiver for Bluetooth */
	UCSR1B |= (1 << RXEN1);
    22aa:	80 81       	ld	r24, Z
    22ac:	80 61       	ori	r24, 0x10	; 16
    22ae:	80 83       	st	Z, r24
	
	/* Enable ADC and ADC voltage reference */
	ADCSRA |= (1 << ADEN);
    22b0:	ea e7       	ldi	r30, 0x7A	; 122
    22b2:	f0 e0       	ldi	r31, 0x00	; 0
    22b4:	80 81       	ld	r24, Z
    22b6:	80 68       	ori	r24, 0x80	; 128
    22b8:	80 83       	st	Z, r24
	ADMUX |= ((1 << REFS1) | (1 << REFS0));
    22ba:	ec e7       	ldi	r30, 0x7C	; 124
    22bc:	f0 e0       	ldi	r31, 0x00	; 0
    22be:	80 81       	ld	r24, Z
    22c0:	80 6c       	ori	r24, 0xC0	; 192
    22c2:	80 83       	st	Z, r24
    22c4:	08 95       	ret

000022c6 <main>:
int main(void)
{	
	uint8_t i2c_error = I2C_OK;
	
	/* Initialize system */
	System_Initialize();
    22c6:	0e 94 a3 0a 	call	0x1546	; 0x1546 <System_Initialize>
	/* Configure systemfor the first time */
	i2c_error = System_First_Time_Configuration();
	#endif
	
	/* Configure RTC (just in case it was reset)) */
	i2c_error = RTC_Boot_Time_Configuration();
    22ca:	0e 94 05 11 	call	0x220a	; 0x220a <RTC_Boot_Time_Configuration>
	/* Enable external interrupts */
	Test_Switch_Interrupt_Enable();
    22ce:	0e 94 67 08 	call	0x10ce	; 0x10ce <Test_Switch_Interrupt_Enable>
	RTC_Interrupt_Enable();
    22d2:	0e 94 7e 08 	call	0x10fc	; 0x10fc <RTC_Interrupt_Enable>
	
	/* Enable the System Power-Down Mode */
	set_sleep_mode(SLEEP_MODE_PWR_DOWN);
    22d6:	83 b7       	in	r24, 0x33	; 51
    22d8:	81 7f       	andi	r24, 0xF1	; 241
    22da:	84 60       	ori	r24, 0x04	; 4
    22dc:	83 bf       	out	0x33, r24	; 51
	sleep_enable();
    22de:	83 b7       	in	r24, 0x33	; 51
    22e0:	81 60       	ori	r24, 0x01	; 1
    22e2:	83 bf       	out	0x33, r24	; 51
    /* Replace with your application code */
    while (1) 
    {
	
		/* Enter to Power-Down Mode */
		Microcontroller_Peripherals_Disable();
    22e4:	0e 94 33 11 	call	0x2266	; 0x2266 <Microcontroller_Peripherals_Disable>
		sleep_cpu();
    22e8:	88 95       	sleep
		Microcontroller_Peripherals_Enable();
    22ea:	0e 94 4b 11 	call	0x2296	; 0x2296 <Microcontroller_Peripherals_Enable>
		
		switch(system_operation_mode){
    22ee:	80 91 11 03 	lds	r24, 0x0311	; 0x800311 <system_operation_mode>
    22f2:	82 30       	cpi	r24, 0x02	; 2
    22f4:	29 f0       	breq	.+10     	; 0x2300 <main+0x3a>
    22f6:	83 30       	cpi	r24, 0x03	; 3
    22f8:	91 f0       	breq	.+36     	; 0x231e <main+0x58>
    22fa:	81 30       	cpi	r24, 0x01	; 1
    22fc:	99 f7       	brne	.-26     	; 0x22e4 <main+0x1e>
    22fe:	1e c0       	rjmp	.+60     	; 0x233c <main+0x76>
			
			case SYSTEM_XBEE_TEST_MODE:
			
				RTC_Interrupt_Disable();
    2300:	0e 94 85 08 	call	0x110a	; 0x110a <RTC_Interrupt_Disable>
				Test_Switch_Interrupt_Disable();
    2304:	0e 94 6e 08 	call	0x10dc	; 0x10dc <Test_Switch_Interrupt_Disable>
				Xbee_Test_Mode_Cycle();
    2308:	0e 94 01 0c 	call	0x1802	; 0x1802 <Xbee_Test_Mode_Cycle>
				cli();
    230c:	f8 94       	cli
				system_operation_mode = SYSTEM_STAND_BY_MODE;
    230e:	10 92 11 03 	sts	0x0311, r1	; 0x800311 <system_operation_mode>
				sei();
    2312:	78 94       	sei
				Test_Switch_Interrupt_Enable();
    2314:	0e 94 67 08 	call	0x10ce	; 0x10ce <Test_Switch_Interrupt_Enable>
				RTC_Interrupt_Enable();
    2318:	0e 94 7e 08 	call	0x10fc	; 0x10fc <RTC_Interrupt_Enable>
				break;
    231c:	e3 cf       	rjmp	.-58     	; 0x22e4 <main+0x1e>
				
			case SYSTEM_BLUETOOTH_TEST_MODE:
			
				RTC_Interrupt_Disable();
    231e:	0e 94 85 08 	call	0x110a	; 0x110a <RTC_Interrupt_Disable>
				Test_Switch_Interrupt_Disable();
    2322:	0e 94 6e 08 	call	0x10dc	; 0x10dc <Test_Switch_Interrupt_Disable>
				Bluetooth_Test_Mode_Cycle();
    2326:	0e 94 a0 0d 	call	0x1b40	; 0x1b40 <Bluetooth_Test_Mode_Cycle>
				cli();
    232a:	f8 94       	cli
				system_operation_mode = SYSTEM_STAND_BY_MODE;
    232c:	10 92 11 03 	sts	0x0311, r1	; 0x800311 <system_operation_mode>
				sei();
    2330:	78 94       	sei
				Test_Switch_Interrupt_Enable();
    2332:	0e 94 67 08 	call	0x10ce	; 0x10ce <Test_Switch_Interrupt_Enable>
				RTC_Interrupt_Enable();
    2336:	0e 94 7e 08 	call	0x10fc	; 0x10fc <RTC_Interrupt_Enable>
				break;	
    233a:	d4 cf       	rjmp	.-88     	; 0x22e4 <main+0x1e>
	
			case SYSTEM_PERIODIC_MEASURE_MODE:
				
				Test_Switch_Interrupt_Disable();
    233c:	0e 94 6e 08 	call	0x10dc	; 0x10dc <Test_Switch_Interrupt_Disable>
				RTC_Interrupt_Disable();
    2340:	0e 94 85 08 	call	0x110a	; 0x110a <RTC_Interrupt_Disable>
				Xbee_Periodic_Measure_Mode_Cycle();
    2344:	0e 94 91 0c 	call	0x1922	; 0x1922 <Xbee_Periodic_Measure_Mode_Cycle>
				cli();
    2348:	f8 94       	cli
				system_operation_mode = SYSTEM_STAND_BY_MODE;
    234a:	10 92 11 03 	sts	0x0311, r1	; 0x800311 <system_operation_mode>
				sei();
    234e:	78 94       	sei
				RTC_Interrupt_Enable();
    2350:	0e 94 7e 08 	call	0x10fc	; 0x10fc <RTC_Interrupt_Enable>
				Test_Switch_Interrupt_Enable();
    2354:	0e 94 67 08 	call	0x10ce	; 0x10ce <Test_Switch_Interrupt_Enable>
				break;
    2358:	c5 cf       	rjmp	.-118    	; 0x22e4 <main+0x1e>

0000235a <__vector_14>:
	return 0;
}


/* Timer0 interrupts every 1ms */
ISR(TIMER0_COMPA_vect){
    235a:	1f 92       	push	r1
    235c:	0f 92       	push	r0
    235e:	0f b6       	in	r0, 0x3f	; 63
    2360:	0f 92       	push	r0
    2362:	11 24       	eor	r1, r1
    2364:	4f 93       	push	r20
    2366:	5f 93       	push	r21
    2368:	6f 93       	push	r22
    236a:	7f 93       	push	r23
    236c:	8f 93       	push	r24
    236e:	9f 93       	push	r25
    2370:	af 93       	push	r26
    2372:	bf 93       	push	r27

/* Inline function definition */

static inline void Timeout_Routine_ISR(void){
	
	if(!(system_flags & (1 << TIME_OUT_FLAG))){
    2374:	80 91 12 03 	lds	r24, 0x0312	; 0x800312 <system_flags>
    2378:	90 91 13 03 	lds	r25, 0x0313	; 0x800313 <system_flags+0x1>
    237c:	90 fd       	sbrc	r25, 0
    237e:	31 c0       	rjmp	.+98     	; 0x23e2 <__vector_14+0x88>
		timeout_counter_ms++;
    2380:	80 91 14 03 	lds	r24, 0x0314	; 0x800314 <timeout_counter_ms>
    2384:	90 91 15 03 	lds	r25, 0x0315	; 0x800315 <timeout_counter_ms+0x1>
    2388:	a0 91 16 03 	lds	r26, 0x0316	; 0x800316 <timeout_counter_ms+0x2>
    238c:	b0 91 17 03 	lds	r27, 0x0317	; 0x800317 <timeout_counter_ms+0x3>
    2390:	01 96       	adiw	r24, 0x01	; 1
    2392:	a1 1d       	adc	r26, r1
    2394:	b1 1d       	adc	r27, r1
    2396:	80 93 14 03 	sts	0x0314, r24	; 0x800314 <timeout_counter_ms>
    239a:	90 93 15 03 	sts	0x0315, r25	; 0x800315 <timeout_counter_ms+0x1>
    239e:	a0 93 16 03 	sts	0x0316, r26	; 0x800316 <timeout_counter_ms+0x2>
    23a2:	b0 93 17 03 	sts	0x0317, r27	; 0x800317 <timeout_counter_ms+0x3>
		if(timeout_counter_ms >= timeout_limit_ms){
    23a6:	40 91 14 03 	lds	r20, 0x0314	; 0x800314 <timeout_counter_ms>
    23aa:	50 91 15 03 	lds	r21, 0x0315	; 0x800315 <timeout_counter_ms+0x1>
    23ae:	60 91 16 03 	lds	r22, 0x0316	; 0x800316 <timeout_counter_ms+0x2>
    23b2:	70 91 17 03 	lds	r23, 0x0317	; 0x800317 <timeout_counter_ms+0x3>
    23b6:	80 91 18 03 	lds	r24, 0x0318	; 0x800318 <timeout_limit_ms>
    23ba:	90 91 19 03 	lds	r25, 0x0319	; 0x800319 <timeout_limit_ms+0x1>
    23be:	a0 91 1a 03 	lds	r26, 0x031A	; 0x80031a <timeout_limit_ms+0x2>
    23c2:	b0 91 1b 03 	lds	r27, 0x031B	; 0x80031b <timeout_limit_ms+0x3>
    23c6:	48 17       	cp	r20, r24
    23c8:	59 07       	cpc	r21, r25
    23ca:	6a 07       	cpc	r22, r26
    23cc:	7b 07       	cpc	r23, r27
    23ce:	48 f0       	brcs	.+18     	; 0x23e2 <__vector_14+0x88>
			system_flags |= (1 <<  TIME_OUT_FLAG);
    23d0:	80 91 12 03 	lds	r24, 0x0312	; 0x800312 <system_flags>
    23d4:	90 91 13 03 	lds	r25, 0x0313	; 0x800313 <system_flags+0x1>
    23d8:	91 60       	ori	r25, 0x01	; 1
    23da:	90 93 13 03 	sts	0x0313, r25	; 0x800313 <system_flags+0x1>
    23de:	80 93 12 03 	sts	0x0312, r24	; 0x800312 <system_flags>
	Timeout_Routine_ISR();
}
    23e2:	bf 91       	pop	r27
    23e4:	af 91       	pop	r26
    23e6:	9f 91       	pop	r25
    23e8:	8f 91       	pop	r24
    23ea:	7f 91       	pop	r23
    23ec:	6f 91       	pop	r22
    23ee:	5f 91       	pop	r21
    23f0:	4f 91       	pop	r20
    23f2:	0f 90       	pop	r0
    23f4:	0f be       	out	0x3f, r0	; 63
    23f6:	0f 90       	pop	r0
    23f8:	1f 90       	pop	r1
    23fa:	18 95       	reti

000023fc <__vector_11>:

/* Timer1 interrupts every time a PWM signal for the servo is completed */
ISR(TIMER1_COMPA_vect){
    23fc:	1f 92       	push	r1
    23fe:	0f 92       	push	r0
    2400:	0f b6       	in	r0, 0x3f	; 63
    2402:	0f 92       	push	r0
    2404:	11 24       	eor	r1, r1
    2406:	2f 93       	push	r18
    2408:	3f 93       	push	r19
    240a:	4f 93       	push	r20
    240c:	5f 93       	push	r21
    240e:	6f 93       	push	r22
    2410:	7f 93       	push	r23
    2412:	8f 93       	push	r24
    2414:	9f 93       	push	r25
    2416:	af 93       	push	r26
    2418:	bf 93       	push	r27
    241a:	ef 93       	push	r30
    241c:	ff 93       	push	r31

static inline void Servo_Auto_Disable_ISR(void){
	
	static uint16_t conta_20ms;
	
	conta_20ms++;
    241e:	80 91 0f 03 	lds	r24, 0x030F	; 0x80030f <conta_20ms.1962>
    2422:	90 91 10 03 	lds	r25, 0x0310	; 0x800310 <conta_20ms.1962+0x1>
    2426:	01 96       	adiw	r24, 0x01	; 1
    2428:	90 93 10 03 	sts	0x0310, r25	; 0x800310 <conta_20ms.1962+0x1>
    242c:	80 93 0f 03 	sts	0x030F, r24	; 0x80030f <conta_20ms.1962>
	
	/* Wait 2 sec so the servo reaches the desired position */
	if(conta_20ms >= 50){
    2430:	c2 97       	sbiw	r24, 0x32	; 50
    2432:	78 f0       	brcs	.+30     	; 0x2452 <__vector_11+0x56>
		conta_20ms = 0;
    2434:	10 92 10 03 	sts	0x0310, r1	; 0x800310 <conta_20ms.1962+0x1>
    2438:	10 92 0f 03 	sts	0x030F, r1	; 0x80030f <conta_20ms.1962>
		Servo_Stop();
    243c:	0e 94 b9 1d 	call	0x3b72	; 0x3b72 <Servo_Stop>
		system_flags |= (1 << SERVO_POS_COMPLETE_FLAG);
    2440:	80 91 12 03 	lds	r24, 0x0312	; 0x800312 <system_flags>
    2444:	90 91 13 03 	lds	r25, 0x0313	; 0x800313 <system_flags+0x1>
    2448:	84 60       	ori	r24, 0x04	; 4
    244a:	90 93 13 03 	sts	0x0313, r25	; 0x800313 <system_flags+0x1>
    244e:	80 93 12 03 	sts	0x0312, r24	; 0x800312 <system_flags>
	Servo_Auto_Disable_ISR();
}
    2452:	ff 91       	pop	r31
    2454:	ef 91       	pop	r30
    2456:	bf 91       	pop	r27
    2458:	af 91       	pop	r26
    245a:	9f 91       	pop	r25
    245c:	8f 91       	pop	r24
    245e:	7f 91       	pop	r23
    2460:	6f 91       	pop	r22
    2462:	5f 91       	pop	r21
    2464:	4f 91       	pop	r20
    2466:	3f 91       	pop	r19
    2468:	2f 91       	pop	r18
    246a:	0f 90       	pop	r0
    246c:	0f be       	out	0x3f, r0	; 63
    246e:	0f 90       	pop	r0
    2470:	1f 90       	pop	r1
    2472:	18 95       	reti

00002474 <__vector_18>:

/* USART0 interrupts every time it receives a character */
ISR(USART0_RX_vect){
    2474:	1f 92       	push	r1
    2476:	0f 92       	push	r0
    2478:	0f b6       	in	r0, 0x3f	; 63
    247a:	0f 92       	push	r0
    247c:	11 24       	eor	r1, r1
    247e:	2f 93       	push	r18
    2480:	3f 93       	push	r19
    2482:	4f 93       	push	r20
    2484:	5f 93       	push	r21
    2486:	6f 93       	push	r22
    2488:	7f 93       	push	r23
    248a:	8f 93       	push	r24
    248c:	9f 93       	push	r25
    248e:	af 93       	push	r26
    2490:	bf 93       	push	r27
    2492:	cf 93       	push	r28
    2494:	ef 93       	push	r30
    2496:	ff 93       	push	r31
	
	static uint8_t command_ending_counter = 0;
	uint8_t caracter;
	
	caracter = UDR0;
    2498:	c0 91 c6 00 	lds	r28, 0x00C6	; 0x8000c6 <__TEXT_REGION_LENGTH__+0x7f80c6>
	Serial_Rx_Buffer_Store_Byte(caracter);
    249c:	8c 2f       	mov	r24, r28
    249e:	0e 94 99 1b 	call	0x3732	; 0x3732 <Serial_Rx_Buffer_Store_Byte>
	
	/*  Detect end of frame from the central (every frame ends with "\n\n" ) */
	if(command_ending_counter == 0){
    24a2:	80 91 0e 03 	lds	r24, 0x030E	; 0x80030e <command_ending_counter.2532>
    24a6:	81 11       	cpse	r24, r1
    24a8:	06 c0       	rjmp	.+12     	; 0x24b6 <__vector_18+0x42>
		if(caracter == '\r'){
    24aa:	cd 30       	cpi	r28, 0x0D	; 13
    24ac:	f9 f4       	brne	.+62     	; 0x24ec <__vector_18+0x78>
			command_ending_counter++;
    24ae:	8f 5f       	subi	r24, 0xFF	; 255
    24b0:	80 93 0e 03 	sts	0x030E, r24	; 0x80030e <command_ending_counter.2532>
    24b4:	1b c0       	rjmp	.+54     	; 0x24ec <__vector_18+0x78>
		}
	}else if(command_ending_counter == 1){
    24b6:	81 30       	cpi	r24, 0x01	; 1
    24b8:	49 f4       	brne	.+18     	; 0x24cc <__vector_18+0x58>
		if(caracter == '\n'){
    24ba:	ca 30       	cpi	r28, 0x0A	; 10
    24bc:	21 f4       	brne	.+8      	; 0x24c6 <__vector_18+0x52>
			command_ending_counter++;
    24be:	8f 5f       	subi	r24, 0xFF	; 255
    24c0:	80 93 0e 03 	sts	0x030E, r24	; 0x80030e <command_ending_counter.2532>
    24c4:	13 c0       	rjmp	.+38     	; 0x24ec <__vector_18+0x78>
		}else{
			command_ending_counter = 0;
    24c6:	10 92 0e 03 	sts	0x030E, r1	; 0x80030e <command_ending_counter.2532>
    24ca:	10 c0       	rjmp	.+32     	; 0x24ec <__vector_18+0x78>
		}	
	}else{
		if(caracter == '\n'){
    24cc:	ca 30       	cpi	r28, 0x0A	; 10
    24ce:	61 f4       	brne	.+24     	; 0x24e8 <__vector_18+0x74>
			system_flags |= (1 << XBEE_COMM_RESPONSE_FLAG);
    24d0:	80 91 12 03 	lds	r24, 0x0312	; 0x800312 <system_flags>
    24d4:	90 91 13 03 	lds	r25, 0x0313	; 0x800313 <system_flags+0x1>
    24d8:	92 60       	ori	r25, 0x02	; 2
    24da:	90 93 13 03 	sts	0x0313, r25	; 0x800313 <system_flags+0x1>
    24de:	80 93 12 03 	sts	0x0312, r24	; 0x800312 <system_flags>
			command_ending_counter = 0;
    24e2:	10 92 0e 03 	sts	0x030E, r1	; 0x80030e <command_ending_counter.2532>
    24e6:	02 c0       	rjmp	.+4      	; 0x24ec <__vector_18+0x78>
		}else{
			command_ending_counter = 0;
    24e8:	10 92 0e 03 	sts	0x030E, r1	; 0x80030e <command_ending_counter.2532>
		}		
	}
}
    24ec:	ff 91       	pop	r31
    24ee:	ef 91       	pop	r30
    24f0:	cf 91       	pop	r28
    24f2:	bf 91       	pop	r27
    24f4:	af 91       	pop	r26
    24f6:	9f 91       	pop	r25
    24f8:	8f 91       	pop	r24
    24fa:	7f 91       	pop	r23
    24fc:	6f 91       	pop	r22
    24fe:	5f 91       	pop	r21
    2500:	4f 91       	pop	r20
    2502:	3f 91       	pop	r19
    2504:	2f 91       	pop	r18
    2506:	0f 90       	pop	r0
    2508:	0f be       	out	0x3f, r0	; 63
    250a:	0f 90       	pop	r0
    250c:	1f 90       	pop	r1
    250e:	18 95       	reti

00002510 <__vector_28>:


/* USART1 interrupts every time it receives a character */
ISR(USART1_RX_vect){
    2510:	1f 92       	push	r1
    2512:	0f 92       	push	r0
    2514:	0f b6       	in	r0, 0x3f	; 63
    2516:	0f 92       	push	r0
    2518:	11 24       	eor	r1, r1
    251a:	2f 93       	push	r18
    251c:	3f 93       	push	r19
    251e:	4f 93       	push	r20
    2520:	5f 93       	push	r21
    2522:	6f 93       	push	r22
    2524:	7f 93       	push	r23
    2526:	8f 93       	push	r24
    2528:	9f 93       	push	r25
    252a:	af 93       	push	r26
    252c:	bf 93       	push	r27
    252e:	cf 93       	push	r28
    2530:	ef 93       	push	r30
    2532:	ff 93       	push	r31
	
	static uint8_t command_ending_counter = 0;
	uint8_t caracter;
	
	caracter = UDR1;
    2534:	c0 91 ce 00 	lds	r28, 0x00CE	; 0x8000ce <__TEXT_REGION_LENGTH__+0x7f80ce>
	Serial_Rx_Buffer_Store_Byte(caracter);
    2538:	8c 2f       	mov	r24, r28
    253a:	0e 94 99 1b 	call	0x3732	; 0x3732 <Serial_Rx_Buffer_Store_Byte>
	
	/*  Detect end of frame from the central (every frame ends with "\n\n" ) */
	if(command_ending_counter == 0){
    253e:	80 91 0d 03 	lds	r24, 0x030D	; 0x80030d <command_ending_counter.2539>
    2542:	81 11       	cpse	r24, r1
    2544:	06 c0       	rjmp	.+12     	; 0x2552 <__vector_28+0x42>
		if(caracter == '\r'){
    2546:	cd 30       	cpi	r28, 0x0D	; 13
    2548:	f9 f4       	brne	.+62     	; 0x2588 <__vector_28+0x78>
			command_ending_counter++;
    254a:	8f 5f       	subi	r24, 0xFF	; 255
    254c:	80 93 0d 03 	sts	0x030D, r24	; 0x80030d <command_ending_counter.2539>
    2550:	1b c0       	rjmp	.+54     	; 0x2588 <__vector_28+0x78>
		}
	}else if(command_ending_counter == 1){
    2552:	81 30       	cpi	r24, 0x01	; 1
    2554:	49 f4       	brne	.+18     	; 0x2568 <__vector_28+0x58>
		if(caracter == '\n'){
    2556:	ca 30       	cpi	r28, 0x0A	; 10
    2558:	21 f4       	brne	.+8      	; 0x2562 <__vector_28+0x52>
			command_ending_counter++;
    255a:	8f 5f       	subi	r24, 0xFF	; 255
    255c:	80 93 0d 03 	sts	0x030D, r24	; 0x80030d <command_ending_counter.2539>
    2560:	13 c0       	rjmp	.+38     	; 0x2588 <__vector_28+0x78>
		}else{
			command_ending_counter = 0;
    2562:	10 92 0d 03 	sts	0x030D, r1	; 0x80030d <command_ending_counter.2539>
    2566:	10 c0       	rjmp	.+32     	; 0x2588 <__vector_28+0x78>
		}
	}else{
		if(caracter == '\n'){
    2568:	ca 30       	cpi	r28, 0x0A	; 10
    256a:	61 f4       	brne	.+24     	; 0x2584 <__vector_28+0x74>
			system_flags |= (1 << BT_COMM_RESPONSE_FLAG);
    256c:	80 91 12 03 	lds	r24, 0x0312	; 0x800312 <system_flags>
    2570:	90 91 13 03 	lds	r25, 0x0313	; 0x800313 <system_flags+0x1>
    2574:	94 60       	ori	r25, 0x04	; 4
    2576:	90 93 13 03 	sts	0x0313, r25	; 0x800313 <system_flags+0x1>
    257a:	80 93 12 03 	sts	0x0312, r24	; 0x800312 <system_flags>
			command_ending_counter = 0;
    257e:	10 92 0d 03 	sts	0x030D, r1	; 0x80030d <command_ending_counter.2539>
    2582:	02 c0       	rjmp	.+4      	; 0x2588 <__vector_28+0x78>
		}else{
			command_ending_counter = 0;
    2584:	10 92 0d 03 	sts	0x030D, r1	; 0x80030d <command_ending_counter.2539>
		}
	}
}
    2588:	ff 91       	pop	r31
    258a:	ef 91       	pop	r30
    258c:	cf 91       	pop	r28
    258e:	bf 91       	pop	r27
    2590:	af 91       	pop	r26
    2592:	9f 91       	pop	r25
    2594:	8f 91       	pop	r24
    2596:	7f 91       	pop	r23
    2598:	6f 91       	pop	r22
    259a:	5f 91       	pop	r21
    259c:	4f 91       	pop	r20
    259e:	3f 91       	pop	r19
    25a0:	2f 91       	pop	r18
    25a2:	0f 90       	pop	r0
    25a4:	0f be       	out	0x3f, r0	; 63
    25a6:	0f 90       	pop	r0
    25a8:	1f 90       	pop	r1
    25aa:	18 95       	reti

000025ac <__vector_1>:




/* External interrupt when the reed switch TEST_XBEE generates a falling edge */
ISR(INT0_vect){
    25ac:	1f 92       	push	r1
    25ae:	0f 92       	push	r0
    25b0:	0f b6       	in	r0, 0x3f	; 63
    25b2:	0f 92       	push	r0
    25b4:	11 24       	eor	r1, r1
    25b6:	8f 93       	push	r24
	
	if(!(PIN_TEST_BT & (1 << TEST_BT))){
    25b8:	4c 99       	sbic	0x09, 4	; 9
    25ba:	04 c0       	rjmp	.+8      	; 0x25c4 <__vector_1+0x18>
		system_operation_mode = SYSTEM_BLUETOOTH_TEST_MODE;
    25bc:	83 e0       	ldi	r24, 0x03	; 3
    25be:	80 93 11 03 	sts	0x0311, r24	; 0x800311 <system_operation_mode>
    25c2:	03 c0       	rjmp	.+6      	; 0x25ca <__vector_1+0x1e>
	}else{
		system_operation_mode = SYSTEM_XBEE_TEST_MODE;
    25c4:	82 e0       	ldi	r24, 0x02	; 2
    25c6:	80 93 11 03 	sts	0x0311, r24	; 0x800311 <system_operation_mode>
	}
	
	
	while(!(PIN_TEST_XBEE & (1 << TEST_XBEE))){
    25ca:	4a 9b       	sbis	0x09, 2	; 9
    25cc:	fe cf       	rjmp	.-4      	; 0x25ca <__vector_1+0x1e>
		/* Wait until the reed switch is released */	
	}
	
}
    25ce:	8f 91       	pop	r24
    25d0:	0f 90       	pop	r0
    25d2:	0f be       	out	0x3f, r0	; 63
    25d4:	0f 90       	pop	r0
    25d6:	1f 90       	pop	r1
    25d8:	18 95       	reti

000025da <__vector_2>:


/* External interrupt when RTC generates a falling edge at its pin INT */
ISR(INT1_vect){
    25da:	1f 92       	push	r1
    25dc:	0f 92       	push	r0
    25de:	0f b6       	in	r0, 0x3f	; 63
    25e0:	0f 92       	push	r0
    25e2:	11 24       	eor	r1, r1
    25e4:	8f 93       	push	r24
	system_operation_mode = SYSTEM_PERIODIC_MEASURE_MODE;
    25e6:	81 e0       	ldi	r24, 0x01	; 1
    25e8:	80 93 11 03 	sts	0x0311, r24	; 0x800311 <system_operation_mode>

	while(!(PIN_RTC_EXT_INT & (1 << RTC_EXT_INT))){
    25ec:	4b 9b       	sbis	0x09, 3	; 9
    25ee:	fe cf       	rjmp	.-4      	; 0x25ec <__vector_2+0x12>
		/* Wait until the signal is back to HIGH level */	
	}

}
    25f0:	8f 91       	pop	r24
    25f2:	0f 90       	pop	r0
    25f4:	0f be       	out	0x3f, r0	; 63
    25f6:	0f 90       	pop	r0
    25f8:	1f 90       	pop	r1
    25fa:	18 95       	reti

000025fc <EEPROM_24AAxx_Write>:
*  		  de 32 a 63 (Pgina 1), de 64 a 95 (Pgina 2), etc.
*  		  Si se inicializa la ubicacin de memoria con mem_addr = 30 y se
*  		  transmiten 5 bytes, el incremento automtico solo funcionar hasta
*  		  la ubicacin 31, por lo cualesta funcin no trabajar correctamente.
*****************************************************************************/
uint8_t EEPROM_24AAxx_Write(uint8_t slave_addr, uint16_t mem_addr, uint8_t n_bytes, uint8_t *buffer){
    25fc:	ef 92       	push	r14
    25fe:	ff 92       	push	r15
    2600:	0f 93       	push	r16
    2602:	1f 93       	push	r17
    2604:	cf 93       	push	r28
    2606:	df 93       	push	r29
    2608:	08 2f       	mov	r16, r24
    260a:	c6 2f       	mov	r28, r22
    260c:	d7 2f       	mov	r29, r23
    260e:	14 2f       	mov	r17, r20
    2610:	79 01       	movw	r14, r18
	uint8_t mem_address[2];
	uint8_t salida = I2C_OK;
	uint8_t index;

	/* Generar la condicin de start */
	salida = TWI0_Master_Start_Condition();
    2612:	0e 94 5a 19 	call	0x32b4	; 0x32b4 <TWI0_Master_Start_Condition>
	/* Transmitir direccin del esclavo en modo escritura */
	salida = TWI0_Master_Tx_Address(slave_addr, TWI_Addr_Write_Mode);
    2616:	60 e0       	ldi	r22, 0x00	; 0
    2618:	80 2f       	mov	r24, r16
    261a:	0e 94 6f 19 	call	0x32de	; 0x32de <TWI0_Master_Tx_Address>
	/* Transmitir la posicin de memoria en donde se desea empezar a escribir */
	mem_address[0] = ((uint16_t)mem_addr >> 8) & 0xFF;
	mem_address[1] = mem_addr & 0xFF;
	salida = TWI0_Master_Tx_Byte(mem_address[0]);
    261e:	8d 2f       	mov	r24, r29
    2620:	0e 94 9d 19 	call	0x333a	; 0x333a <TWI0_Master_Tx_Byte>
	salida = TWI0_Master_Tx_Byte(mem_address[1]);
    2624:	8c 2f       	mov	r24, r28
    2626:	0e 94 9d 19 	call	0x333a	; 0x333a <TWI0_Master_Tx_Byte>
    262a:	d8 2f       	mov	r29, r24
	/* Escribir los datos en posiciones consecutivas de memoria */
	for(index = 0; index < n_bytes; index++){
    262c:	c0 e0       	ldi	r28, 0x00	; 0
    262e:	0a c0       	rjmp	.+20     	; 0x2644 <EEPROM_24AAxx_Write+0x48>
		salida = TWI0_Master_Tx_Byte(*(buffer + index));
    2630:	f7 01       	movw	r30, r14
    2632:	ec 0f       	add	r30, r28
    2634:	f1 1d       	adc	r31, r1
    2636:	80 81       	ld	r24, Z
    2638:	0e 94 9d 19 	call	0x333a	; 0x333a <TWI0_Master_Tx_Byte>
    263c:	d8 2f       	mov	r29, r24
		if(salida == I2C_ERROR){
    263e:	81 30       	cpi	r24, 0x01	; 1
    2640:	19 f0       	breq	.+6      	; 0x2648 <EEPROM_24AAxx_Write+0x4c>
	mem_address[0] = ((uint16_t)mem_addr >> 8) & 0xFF;
	mem_address[1] = mem_addr & 0xFF;
	salida = TWI0_Master_Tx_Byte(mem_address[0]);
	salida = TWI0_Master_Tx_Byte(mem_address[1]);
	/* Escribir los datos en posiciones consecutivas de memoria */
	for(index = 0; index < n_bytes; index++){
    2642:	cf 5f       	subi	r28, 0xFF	; 255
    2644:	c1 17       	cp	r28, r17
    2646:	a0 f3       	brcs	.-24     	; 0x2630 <EEPROM_24AAxx_Write+0x34>
		if(salida == I2C_ERROR){
			break;
		}
	}

	TWI0_Master_Stop_Condition();
    2648:	0e 94 e6 19 	call	0x33cc	; 0x33cc <TWI0_Master_Stop_Condition>
	#else
		//round up by default
		__ticks_dc = (uint32_t)(ceil(fabs(__tmp)));
	#endif

	__builtin_avr_delay_cycles(__ticks_dc);
    264c:	8f e0       	ldi	r24, 0x0F	; 15
    264e:	97 e2       	ldi	r25, 0x27	; 39
    2650:	01 97       	sbiw	r24, 0x01	; 1
    2652:	f1 f7       	brne	.-4      	; 0x2650 <EEPROM_24AAxx_Write+0x54>
    2654:	00 c0       	rjmp	.+0      	; 0x2656 <EEPROM_24AAxx_Write+0x5a>
    2656:	00 00       	nop
	
	_delay_ms(10);

	return salida;
}
    2658:	8d 2f       	mov	r24, r29
    265a:	df 91       	pop	r29
    265c:	cf 91       	pop	r28
    265e:	1f 91       	pop	r17
    2660:	0f 91       	pop	r16
    2662:	ff 90       	pop	r15
    2664:	ef 90       	pop	r14
    2666:	08 95       	ret

00002668 <EEPROM_24AAxx_Clear>:


uint8_t EEPROM_24AAxx_Clear(uint8_t slave_addr, uint16_t mem_addr, uint8_t n_bytes){
    2668:	0f 93       	push	r16
    266a:	1f 93       	push	r17
    266c:	cf 93       	push	r28
    266e:	df 93       	push	r29
    2670:	08 2f       	mov	r16, r24
    2672:	c6 2f       	mov	r28, r22
    2674:	d7 2f       	mov	r29, r23
    2676:	14 2f       	mov	r17, r20
	uint8_t mem_address[2];
	uint8_t salida = I2C_OK;
	uint8_t index;

	/* Generar la condicin de start */
	salida = TWI0_Master_Start_Condition();
    2678:	0e 94 5a 19 	call	0x32b4	; 0x32b4 <TWI0_Master_Start_Condition>
	/* Transmitir direccin del esclavo en modo escritura */
	salida = TWI0_Master_Tx_Address(slave_addr, TWI_Addr_Write_Mode);
    267c:	60 e0       	ldi	r22, 0x00	; 0
    267e:	80 2f       	mov	r24, r16
    2680:	0e 94 6f 19 	call	0x32de	; 0x32de <TWI0_Master_Tx_Address>
	/* Transmitir la posicin de memoria en donde se desea empezar a escribir */
	mem_address[0] = (mem_addr >> 8) & 0xFF;
	mem_address[1] = mem_addr & 0xFF;
	salida = TWI0_Master_Tx_Byte(mem_address[0]);
    2684:	8d 2f       	mov	r24, r29
    2686:	0e 94 9d 19 	call	0x333a	; 0x333a <TWI0_Master_Tx_Byte>
	salida = TWI0_Master_Tx_Byte(mem_address[1]);
    268a:	8c 2f       	mov	r24, r28
    268c:	0e 94 9d 19 	call	0x333a	; 0x333a <TWI0_Master_Tx_Byte>
    2690:	d8 2f       	mov	r29, r24
	/* Escribir los datos en posiciones consecutivas de memoria */
	for(index = 0; index < n_bytes; index++){
    2692:	c0 e0       	ldi	r28, 0x00	; 0
    2694:	07 c0       	rjmp	.+14     	; 0x26a4 <EEPROM_24AAxx_Clear+0x3c>
		salida = TWI0_Master_Tx_Byte(0);
    2696:	80 e0       	ldi	r24, 0x00	; 0
    2698:	0e 94 9d 19 	call	0x333a	; 0x333a <TWI0_Master_Tx_Byte>
    269c:	d8 2f       	mov	r29, r24
		if(salida == I2C_ERROR){
    269e:	81 30       	cpi	r24, 0x01	; 1
    26a0:	19 f0       	breq	.+6      	; 0x26a8 <EEPROM_24AAxx_Clear+0x40>
	mem_address[0] = (mem_addr >> 8) & 0xFF;
	mem_address[1] = mem_addr & 0xFF;
	salida = TWI0_Master_Tx_Byte(mem_address[0]);
	salida = TWI0_Master_Tx_Byte(mem_address[1]);
	/* Escribir los datos en posiciones consecutivas de memoria */
	for(index = 0; index < n_bytes; index++){
    26a2:	cf 5f       	subi	r28, 0xFF	; 255
    26a4:	c1 17       	cp	r28, r17
    26a6:	b8 f3       	brcs	.-18     	; 0x2696 <EEPROM_24AAxx_Clear+0x2e>
		if(salida == I2C_ERROR){
			break;
		}
	}

	TWI0_Master_Stop_Condition();
    26a8:	0e 94 e6 19 	call	0x33cc	; 0x33cc <TWI0_Master_Stop_Condition>
    26ac:	8f e0       	ldi	r24, 0x0F	; 15
    26ae:	97 e2       	ldi	r25, 0x27	; 39
    26b0:	01 97       	sbiw	r24, 0x01	; 1
    26b2:	f1 f7       	brne	.-4      	; 0x26b0 <EEPROM_24AAxx_Clear+0x48>
    26b4:	00 c0       	rjmp	.+0      	; 0x26b6 <EEPROM_24AAxx_Clear+0x4e>
    26b6:	00 00       	nop
	
	_delay_ms(10);

	return salida;	

}
    26b8:	8d 2f       	mov	r24, r29
    26ba:	df 91       	pop	r29
    26bc:	cf 91       	pop	r28
    26be:	1f 91       	pop	r17
    26c0:	0f 91       	pop	r16
    26c2:	08 95       	ret

000026c4 <EEPROM_24AAxx_Read>:
*  		  de 32 a 63 (Pgina 1), de 64 a 95 (Pgina 2), etc.
*  		  Si se inicializa la ubicacin de memoria con mem_addr = 30 y se
*  		  leen 5 bytes, el incremento automtico solo funcionar hasta la
*  		  ubicacin 31, por lo cual esta funcin no trabajar correctamente.
*****************************************************************************/
uint8_t EEPROM_24AAxx_Read(uint8_t slave_addr, uint16_t mem_addr, uint8_t n_bytes, uint8_t *buffer){
    26c4:	ef 92       	push	r14
    26c6:	ff 92       	push	r15
    26c8:	0f 93       	push	r16
    26ca:	1f 93       	push	r17
    26cc:	cf 93       	push	r28
    26ce:	df 93       	push	r29
    26d0:	00 d0       	rcall	.+0      	; 0x26d2 <EEPROM_24AAxx_Read+0xe>
    26d2:	cd b7       	in	r28, 0x3d	; 61
    26d4:	de b7       	in	r29, 0x3e	; 62
    26d6:	18 2f       	mov	r17, r24
    26d8:	04 2f       	mov	r16, r20
    26da:	79 01       	movw	r14, r18

	uint8_t mem_address[2];
	uint8_t salida = I2C_OK;

	/* Transmitir la posicin de memoria en donde se desea empezar a leer */
	mem_address[0] = (mem_addr >> 8) & 0xFF;
    26dc:	79 83       	std	Y+1, r23	; 0x01
	mem_address[1] = mem_addr & 0xFF;
    26de:	6a 83       	std	Y+2, r22	; 0x02
	salida = TWI0_Master_Write_Data(slave_addr, 2, mem_address);
    26e0:	ae 01       	movw	r20, r28
    26e2:	4f 5f       	subi	r20, 0xFF	; 255
    26e4:	5f 4f       	sbci	r21, 0xFF	; 255
    26e6:	62 e0       	ldi	r22, 0x02	; 2
    26e8:	0e 94 ea 19 	call	0x33d4	; 0x33d4 <TWI0_Master_Write_Data>
	/* Leer los datos en posiciones consecutivas de memoria */
	salida = TWI0_Master_Read_Data(slave_addr, n_bytes, buffer);
    26ec:	a7 01       	movw	r20, r14
    26ee:	60 2f       	mov	r22, r16
    26f0:	81 2f       	mov	r24, r17
    26f2:	0e 94 19 1a 	call	0x3432	; 0x3432 <TWI0_Master_Read_Data>
    26f6:	ef e0       	ldi	r30, 0x0F	; 15
    26f8:	f7 e2       	ldi	r31, 0x27	; 39
    26fa:	31 97       	sbiw	r30, 0x01	; 1
    26fc:	f1 f7       	brne	.-4      	; 0x26fa <EEPROM_24AAxx_Read+0x36>
    26fe:	00 c0       	rjmp	.+0      	; 0x2700 <EEPROM_24AAxx_Read+0x3c>
    2700:	00 00       	nop
	
	_delay_ms(10);

	return salida;
}
    2702:	0f 90       	pop	r0
    2704:	0f 90       	pop	r0
    2706:	df 91       	pop	r29
    2708:	cf 91       	pop	r28
    270a:	1f 91       	pop	r17
    270c:	0f 91       	pop	r16
    270e:	ff 90       	pop	r15
    2710:	ef 90       	pop	r14
    2712:	08 95       	ret

00002714 <EEPROM_24AAxx_Write_Extended>:


uint8_t EEPROM_24AAxx_Write_Extended(uint8_t slave_addr, uint16_t mem_addr, uint16_t n_bytes, uint8_t *buffer){
    2714:	7f 92       	push	r7
    2716:	8f 92       	push	r8
    2718:	9f 92       	push	r9
    271a:	af 92       	push	r10
    271c:	bf 92       	push	r11
    271e:	cf 92       	push	r12
    2720:	df 92       	push	r13
    2722:	ef 92       	push	r14
    2724:	ff 92       	push	r15
    2726:	0f 93       	push	r16
    2728:	1f 93       	push	r17
    272a:	cf 93       	push	r28
    272c:	df 93       	push	r29
    272e:	78 2e       	mov	r7, r24
    2730:	7b 01       	movw	r14, r22
    2732:	69 01       	movw	r12, r18
	uint16_t offset = 0;
	uint8_t *buffer_ptr = 0;
	uint16_t new_mem_addr = 0;

	/* Calculate number of bytes of the first segment */
	if((mem_addr % EEPROM_PAGE_SIZE_BYTES) == 0){
    2734:	cb 01       	movw	r24, r22
    2736:	8f 73       	andi	r24, 0x3F	; 63
    2738:	99 27       	eor	r25, r25
    273a:	00 97       	sbiw	r24, 0x00	; 0
    273c:	29 f0       	breq	.+10     	; 0x2748 <EEPROM_24AAxx_Write_Extended+0x34>
		n_bytes_1 = 0;
	}else{
		n_bytes_1 = EEPROM_PAGE_SIZE_BYTES - (mem_addr % EEPROM_PAGE_SIZE_BYTES);
    273e:	c0 e4       	ldi	r28, 0x40	; 64
    2740:	d0 e0       	ldi	r29, 0x00	; 0
    2742:	c8 1b       	sub	r28, r24
    2744:	d9 0b       	sbc	r29, r25
    2746:	02 c0       	rjmp	.+4      	; 0x274c <EEPROM_24AAxx_Write_Extended+0x38>
	uint8_t *buffer_ptr = 0;
	uint16_t new_mem_addr = 0;

	/* Calculate number of bytes of the first segment */
	if((mem_addr % EEPROM_PAGE_SIZE_BYTES) == 0){
		n_bytes_1 = 0;
    2748:	c0 e0       	ldi	r28, 0x00	; 0
    274a:	d0 e0       	ldi	r29, 0x00	; 0
	}else{
		n_bytes_1 = EEPROM_PAGE_SIZE_BYTES - (mem_addr % EEPROM_PAGE_SIZE_BYTES);
	}
	
	if(n_bytes_1 > n_bytes){
    274c:	4c 17       	cp	r20, r28
    274e:	5d 07       	cpc	r21, r29
    2750:	08 f4       	brcc	.+2      	; 0x2754 <EEPROM_24AAxx_Write_Extended+0x40>
		n_bytes_1 = n_bytes;
    2752:	ea 01       	movw	r28, r20
	}
	
	n_bytes_left = n_bytes - n_bytes_1;
    2754:	4c 1b       	sub	r20, r28
    2756:	5d 0b       	sbc	r21, r29
	
	/* Determine if data will be loaded in more than one page */ 
	if(n_bytes_left == 0){
    2758:	79 f0       	breq	.+30     	; 0x2778 <EEPROM_24AAxx_Write_Extended+0x64>
		n_pages = 0;
		n_bytes_2 = 0;
	}else{
		n_pages = n_bytes_left / EEPROM_PAGE_SIZE_BYTES;
    275a:	5a 01       	movw	r10, r20
    275c:	00 24       	eor	r0, r0
    275e:	aa 0c       	add	r10, r10
    2760:	bb 1c       	adc	r11, r11
    2762:	00 1c       	adc	r0, r0
    2764:	aa 0c       	add	r10, r10
    2766:	bb 1c       	adc	r11, r11
    2768:	00 1c       	adc	r0, r0
    276a:	ab 2c       	mov	r10, r11
    276c:	b0 2c       	mov	r11, r0
		n_bytes_2 = n_bytes_left % EEPROM_PAGE_SIZE_BYTES;
    276e:	4a 01       	movw	r8, r20
    2770:	8f e3       	ldi	r24, 0x3F	; 63
    2772:	88 22       	and	r8, r24
    2774:	99 24       	eor	r9, r9
    2776:	04 c0       	rjmp	.+8      	; 0x2780 <EEPROM_24AAxx_Write_Extended+0x6c>
	
	n_bytes_left = n_bytes - n_bytes_1;
	
	/* Determine if data will be loaded in more than one page */ 
	if(n_bytes_left == 0){
		n_pages = 0;
    2778:	a1 2c       	mov	r10, r1
    277a:	b1 2c       	mov	r11, r1
		n_bytes_2 = 0;
    277c:	81 2c       	mov	r8, r1
    277e:	91 2c       	mov	r9, r1
	/* Pointer value at the beginning of the writing */
	buffer_ptr = buffer;
	new_mem_addr = mem_addr;
	
	/* Load the first segment (if it is the case) */
	if(n_bytes_1 != 0){
    2780:	20 97       	sbiw	r28, 0x00	; 0
    2782:	69 f0       	breq	.+26     	; 0x279e <EEPROM_24AAxx_Write_Extended+0x8a>
		salida = EEPROM_24AAxx_Write(slave_addr, new_mem_addr, n_bytes_1, buffer_ptr);
    2784:	96 01       	movw	r18, r12
    2786:	4c 2f       	mov	r20, r28
    2788:	b7 01       	movw	r22, r14
    278a:	87 2d       	mov	r24, r7
    278c:	0e 94 fe 12 	call	0x25fc	; 0x25fc <EEPROM_24AAxx_Write>
		if(salida == I2C_ERROR){
    2790:	81 30       	cpi	r24, 0x01	; 1
    2792:	69 f1       	breq	.+90     	; 0x27ee <EEPROM_24AAxx_Write_Extended+0xda>
			return salida;
		}	
		buffer_ptr += n_bytes_1;
    2794:	cc 0e       	add	r12, r28
    2796:	dd 1e       	adc	r13, r29
		new_mem_addr += n_bytes_1;
    2798:	ec 0e       	add	r14, r28
    279a:	fd 1e       	adc	r15, r29
    279c:	01 c0       	rjmp	.+2      	; 0x27a0 <EEPROM_24AAxx_Write_Extended+0x8c>
}


uint8_t EEPROM_24AAxx_Write_Extended(uint8_t slave_addr, uint16_t mem_addr, uint16_t n_bytes, uint8_t *buffer){

	uint8_t salida = I2C_OK;
    279e:	80 e0       	ldi	r24, 0x00	; 0
	
	uint16_t n_bytes_left = 0;
	uint16_t n_bytes_1 = 0, n_bytes_2 = 0;
	uint16_t n_pages = 0;
	int16_t index;
	uint16_t offset = 0;
    27a0:	c0 e0       	ldi	r28, 0x00	; 0
    27a2:	d0 e0       	ldi	r29, 0x00	; 0
		buffer_ptr += n_bytes_1;
		new_mem_addr += n_bytes_1;
	}

	/* Load an integer number of pages */
	for(index = 0; index < n_pages; index++){
    27a4:	00 e0       	ldi	r16, 0x00	; 0
    27a6:	10 e0       	ldi	r17, 0x00	; 0
    27a8:	10 c0       	rjmp	.+32     	; 0x27ca <EEPROM_24AAxx_Write_Extended+0xb6>
		salida = EEPROM_24AAxx_Write(slave_addr, new_mem_addr + offset, EEPROM_PAGE_SIZE_BYTES, buffer_ptr + offset);
    27aa:	96 01       	movw	r18, r12
    27ac:	2c 0f       	add	r18, r28
    27ae:	3d 1f       	adc	r19, r29
    27b0:	be 01       	movw	r22, r28
    27b2:	6e 0d       	add	r22, r14
    27b4:	7f 1d       	adc	r23, r15
    27b6:	40 e4       	ldi	r20, 0x40	; 64
    27b8:	87 2d       	mov	r24, r7
    27ba:	0e 94 fe 12 	call	0x25fc	; 0x25fc <EEPROM_24AAxx_Write>
		offset += EEPROM_PAGE_SIZE_BYTES;
    27be:	c0 5c       	subi	r28, 0xC0	; 192
    27c0:	df 4f       	sbci	r29, 0xFF	; 255
		if(salida == I2C_ERROR){
    27c2:	81 30       	cpi	r24, 0x01	; 1
    27c4:	29 f0       	breq	.+10     	; 0x27d0 <EEPROM_24AAxx_Write_Extended+0xbc>
		buffer_ptr += n_bytes_1;
		new_mem_addr += n_bytes_1;
	}

	/* Load an integer number of pages */
	for(index = 0; index < n_pages; index++){
    27c6:	0f 5f       	subi	r16, 0xFF	; 255
    27c8:	1f 4f       	sbci	r17, 0xFF	; 255
    27ca:	0a 15       	cp	r16, r10
    27cc:	1b 05       	cpc	r17, r11
    27ce:	68 f3       	brcs	.-38     	; 0x27aa <EEPROM_24AAxx_Write_Extended+0x96>
		if(salida == I2C_ERROR){
			break;
		}
	}

	if(salida == I2C_ERROR){
    27d0:	81 30       	cpi	r24, 0x01	; 1
    27d2:	69 f0       	breq	.+26     	; 0x27ee <EEPROM_24AAxx_Write_Extended+0xda>
		return salida;
	}
		
	buffer_ptr += offset;
    27d4:	96 01       	movw	r18, r12
    27d6:	2c 0f       	add	r18, r28
    27d8:	3d 1f       	adc	r19, r29
	new_mem_addr += offset;
    27da:	be 01       	movw	r22, r28
    27dc:	6e 0d       	add	r22, r14
    27de:	7f 1d       	adc	r23, r15
		
		
	if(n_bytes_2 != 0){
    27e0:	81 14       	cp	r8, r1
    27e2:	91 04       	cpc	r9, r1
    27e4:	21 f0       	breq	.+8      	; 0x27ee <EEPROM_24AAxx_Write_Extended+0xda>
		salida = EEPROM_24AAxx_Write(slave_addr, new_mem_addr, n_bytes_2, buffer_ptr);
    27e6:	48 2d       	mov	r20, r8
    27e8:	87 2d       	mov	r24, r7
    27ea:	0e 94 fe 12 	call	0x25fc	; 0x25fc <EEPROM_24AAxx_Write>
	}
	
	return salida;
}
    27ee:	df 91       	pop	r29
    27f0:	cf 91       	pop	r28
    27f2:	1f 91       	pop	r17
    27f4:	0f 91       	pop	r16
    27f6:	ff 90       	pop	r15
    27f8:	ef 90       	pop	r14
    27fa:	df 90       	pop	r13
    27fc:	cf 90       	pop	r12
    27fe:	bf 90       	pop	r11
    2800:	af 90       	pop	r10
    2802:	9f 90       	pop	r9
    2804:	8f 90       	pop	r8
    2806:	7f 90       	pop	r7
    2808:	08 95       	ret

0000280a <EEPROM_24AAxx_Clear_Extended>:



uint8_t EEPROM_24AAxx_Clear_Extended(uint8_t slave_addr, uint16_t mem_addr, uint16_t n_bytes){
    280a:	9f 92       	push	r9
    280c:	af 92       	push	r10
    280e:	bf 92       	push	r11
    2810:	cf 92       	push	r12
    2812:	df 92       	push	r13
    2814:	ef 92       	push	r14
    2816:	ff 92       	push	r15
    2818:	0f 93       	push	r16
    281a:	1f 93       	push	r17
    281c:	cf 93       	push	r28
    281e:	df 93       	push	r29
    2820:	98 2e       	mov	r9, r24
    2822:	7b 01       	movw	r14, r22
	int16_t index;
	uint16_t offset = 0;
	uint16_t new_mem_addr = 0;

	/* Calculate number of bytes of the first segment */
	if((mem_addr % EEPROM_PAGE_SIZE_BYTES) == 0){
    2824:	cb 01       	movw	r24, r22
    2826:	8f 73       	andi	r24, 0x3F	; 63
    2828:	99 27       	eor	r25, r25
    282a:	00 97       	sbiw	r24, 0x00	; 0
    282c:	29 f0       	breq	.+10     	; 0x2838 <EEPROM_24AAxx_Clear_Extended+0x2e>
		n_bytes_1 = 0;
	}else{
		n_bytes_1 = EEPROM_PAGE_SIZE_BYTES - (mem_addr % EEPROM_PAGE_SIZE_BYTES);
    282e:	c0 e4       	ldi	r28, 0x40	; 64
    2830:	d0 e0       	ldi	r29, 0x00	; 0
    2832:	c8 1b       	sub	r28, r24
    2834:	d9 0b       	sbc	r29, r25
    2836:	02 c0       	rjmp	.+4      	; 0x283c <EEPROM_24AAxx_Clear_Extended+0x32>
	uint16_t offset = 0;
	uint16_t new_mem_addr = 0;

	/* Calculate number of bytes of the first segment */
	if((mem_addr % EEPROM_PAGE_SIZE_BYTES) == 0){
		n_bytes_1 = 0;
    2838:	c0 e0       	ldi	r28, 0x00	; 0
    283a:	d0 e0       	ldi	r29, 0x00	; 0
	}else{
		n_bytes_1 = EEPROM_PAGE_SIZE_BYTES - (mem_addr % EEPROM_PAGE_SIZE_BYTES);
	}
	
	if(n_bytes_1 >= n_bytes){
    283c:	c4 17       	cp	r28, r20
    283e:	d5 07       	cpc	r29, r21
    2840:	08 f0       	brcs	.+2      	; 0x2844 <EEPROM_24AAxx_Clear_Extended+0x3a>
		n_bytes_1 = n_bytes;
    2842:	ea 01       	movw	r28, r20
	}
	
	n_bytes_left = n_bytes - n_bytes_1;
    2844:	4c 1b       	sub	r20, r28
    2846:	5d 0b       	sbc	r21, r29
	
	/* Determine if data will be loaded in more than one page */
	if(n_bytes_left == 0){
    2848:	79 f0       	breq	.+30     	; 0x2868 <EEPROM_24AAxx_Clear_Extended+0x5e>
		n_pages = 0;
		n_bytes_2 = 0;
	}else{
		n_pages = n_bytes_left / EEPROM_PAGE_SIZE_BYTES;
    284a:	6a 01       	movw	r12, r20
    284c:	00 24       	eor	r0, r0
    284e:	cc 0c       	add	r12, r12
    2850:	dd 1c       	adc	r13, r13
    2852:	00 1c       	adc	r0, r0
    2854:	cc 0c       	add	r12, r12
    2856:	dd 1c       	adc	r13, r13
    2858:	00 1c       	adc	r0, r0
    285a:	cd 2c       	mov	r12, r13
    285c:	d0 2c       	mov	r13, r0
		n_bytes_2 = n_bytes_left % EEPROM_PAGE_SIZE_BYTES;
    285e:	5a 01       	movw	r10, r20
    2860:	8f e3       	ldi	r24, 0x3F	; 63
    2862:	a8 22       	and	r10, r24
    2864:	bb 24       	eor	r11, r11
    2866:	04 c0       	rjmp	.+8      	; 0x2870 <EEPROM_24AAxx_Clear_Extended+0x66>
	
	n_bytes_left = n_bytes - n_bytes_1;
	
	/* Determine if data will be loaded in more than one page */
	if(n_bytes_left == 0){
		n_pages = 0;
    2868:	c1 2c       	mov	r12, r1
    286a:	d1 2c       	mov	r13, r1
		n_bytes_2 = 0;
    286c:	a1 2c       	mov	r10, r1
    286e:	b1 2c       	mov	r11, r1

	/* Pointer value at the beginning of the writing */
	new_mem_addr = mem_addr;
	
	/* Load the first segment (if it is the case) */
	if(n_bytes_1 != 0){
    2870:	20 97       	sbiw	r28, 0x00	; 0
    2872:	51 f0       	breq	.+20     	; 0x2888 <EEPROM_24AAxx_Clear_Extended+0x7e>
		salida = EEPROM_24AAxx_Clear(slave_addr, mem_addr, n_bytes_1);
    2874:	4c 2f       	mov	r20, r28
    2876:	b7 01       	movw	r22, r14
    2878:	89 2d       	mov	r24, r9
    287a:	0e 94 34 13 	call	0x2668	; 0x2668 <EEPROM_24AAxx_Clear>
		if(salida == I2C_ERROR){
    287e:	81 30       	cpi	r24, 0x01	; 1
    2880:	29 f1       	breq	.+74     	; 0x28cc <EEPROM_24AAxx_Clear_Extended+0xc2>
			return salida;
		}
		new_mem_addr += n_bytes_1;
    2882:	ec 0e       	add	r14, r28
    2884:	fd 1e       	adc	r15, r29
    2886:	01 c0       	rjmp	.+2      	; 0x288a <EEPROM_24AAxx_Clear_Extended+0x80>



uint8_t EEPROM_24AAxx_Clear_Extended(uint8_t slave_addr, uint16_t mem_addr, uint16_t n_bytes){

	uint8_t salida = I2C_OK;
    2888:	80 e0       	ldi	r24, 0x00	; 0
	
	uint16_t n_bytes_left = 0;
	uint16_t n_bytes_1 = 0, n_bytes_2 = 0;
	uint16_t n_pages = 0;
	int16_t index;
	uint16_t offset = 0;
    288a:	c0 e0       	ldi	r28, 0x00	; 0
    288c:	d0 e0       	ldi	r29, 0x00	; 0
		}
		new_mem_addr += n_bytes_1;
	}

	/* Load an integer number of pages */
	for(index = 0; index < n_pages; index++){
    288e:	00 e0       	ldi	r16, 0x00	; 0
    2890:	10 e0       	ldi	r17, 0x00	; 0
    2892:	0d c0       	rjmp	.+26     	; 0x28ae <EEPROM_24AAxx_Clear_Extended+0xa4>
		salida = EEPROM_24AAxx_Clear(slave_addr, new_mem_addr + offset, EEPROM_PAGE_SIZE_BYTES);
    2894:	be 01       	movw	r22, r28
    2896:	6e 0d       	add	r22, r14
    2898:	7f 1d       	adc	r23, r15
    289a:	40 e4       	ldi	r20, 0x40	; 64
    289c:	89 2d       	mov	r24, r9
    289e:	0e 94 34 13 	call	0x2668	; 0x2668 <EEPROM_24AAxx_Clear>
		offset += EEPROM_PAGE_SIZE_BYTES;
    28a2:	c0 5c       	subi	r28, 0xC0	; 192
    28a4:	df 4f       	sbci	r29, 0xFF	; 255
		if(salida == I2C_ERROR){
    28a6:	81 30       	cpi	r24, 0x01	; 1
    28a8:	29 f0       	breq	.+10     	; 0x28b4 <EEPROM_24AAxx_Clear_Extended+0xaa>
		}
		new_mem_addr += n_bytes_1;
	}

	/* Load an integer number of pages */
	for(index = 0; index < n_pages; index++){
    28aa:	0f 5f       	subi	r16, 0xFF	; 255
    28ac:	1f 4f       	sbci	r17, 0xFF	; 255
    28ae:	0c 15       	cp	r16, r12
    28b0:	1d 05       	cpc	r17, r13
    28b2:	80 f3       	brcs	.-32     	; 0x2894 <EEPROM_24AAxx_Clear_Extended+0x8a>
		if(salida == I2C_ERROR){
			break;
		}
	}

	if(salida == I2C_ERROR){
    28b4:	81 30       	cpi	r24, 0x01	; 1
    28b6:	51 f0       	breq	.+20     	; 0x28cc <EEPROM_24AAxx_Clear_Extended+0xc2>
		return salida;
	}
	
	new_mem_addr += offset;
    28b8:	be 01       	movw	r22, r28
    28ba:	6e 0d       	add	r22, r14
    28bc:	7f 1d       	adc	r23, r15
	
	
	if(n_bytes_2 != 0){
    28be:	a1 14       	cp	r10, r1
    28c0:	b1 04       	cpc	r11, r1
    28c2:	21 f0       	breq	.+8      	; 0x28cc <EEPROM_24AAxx_Clear_Extended+0xc2>
		salida = EEPROM_24AAxx_Clear(slave_addr, new_mem_addr, n_bytes_2);
    28c4:	4a 2d       	mov	r20, r10
    28c6:	89 2d       	mov	r24, r9
    28c8:	0e 94 34 13 	call	0x2668	; 0x2668 <EEPROM_24AAxx_Clear>
	}
	
	return salida;
}
    28cc:	df 91       	pop	r29
    28ce:	cf 91       	pop	r28
    28d0:	1f 91       	pop	r17
    28d2:	0f 91       	pop	r16
    28d4:	ff 90       	pop	r15
    28d6:	ef 90       	pop	r14
    28d8:	df 90       	pop	r13
    28da:	cf 90       	pop	r12
    28dc:	bf 90       	pop	r11
    28de:	af 90       	pop	r10
    28e0:	9f 90       	pop	r9
    28e2:	08 95       	ret

000028e4 <EEPROM_24AAxx_Read_Extended>:



uint8_t EEPROM_24AAxx_Read_Extended(uint8_t slave_addr, uint16_t mem_addr, uint16_t n_bytes, uint8_t *buffer){
    28e4:	7f 92       	push	r7
    28e6:	8f 92       	push	r8
    28e8:	9f 92       	push	r9
    28ea:	af 92       	push	r10
    28ec:	bf 92       	push	r11
    28ee:	cf 92       	push	r12
    28f0:	df 92       	push	r13
    28f2:	ef 92       	push	r14
    28f4:	ff 92       	push	r15
    28f6:	0f 93       	push	r16
    28f8:	1f 93       	push	r17
    28fa:	cf 93       	push	r28
    28fc:	df 93       	push	r29
    28fe:	78 2e       	mov	r7, r24
    2900:	7b 01       	movw	r14, r22
    2902:	69 01       	movw	r12, r18
	uint16_t offset = 0;
	uint8_t *buffer_ptr = 0;
	uint16_t new_mem_addr = 0;

	/* Calculate number of bytes of the first segment */
	if((mem_addr % EEPROM_PAGE_SIZE_BYTES) == 0){
    2904:	cb 01       	movw	r24, r22
    2906:	8f 73       	andi	r24, 0x3F	; 63
    2908:	99 27       	eor	r25, r25
    290a:	00 97       	sbiw	r24, 0x00	; 0
    290c:	29 f0       	breq	.+10     	; 0x2918 <EEPROM_24AAxx_Read_Extended+0x34>
		n_bytes_1 = 0;
	}else{
		n_bytes_1 = EEPROM_PAGE_SIZE_BYTES - (mem_addr % EEPROM_PAGE_SIZE_BYTES);
    290e:	c0 e4       	ldi	r28, 0x40	; 64
    2910:	d0 e0       	ldi	r29, 0x00	; 0
    2912:	c8 1b       	sub	r28, r24
    2914:	d9 0b       	sbc	r29, r25
    2916:	02 c0       	rjmp	.+4      	; 0x291c <EEPROM_24AAxx_Read_Extended+0x38>
	uint8_t *buffer_ptr = 0;
	uint16_t new_mem_addr = 0;

	/* Calculate number of bytes of the first segment */
	if((mem_addr % EEPROM_PAGE_SIZE_BYTES) == 0){
		n_bytes_1 = 0;
    2918:	c0 e0       	ldi	r28, 0x00	; 0
    291a:	d0 e0       	ldi	r29, 0x00	; 0
	}else{
		n_bytes_1 = EEPROM_PAGE_SIZE_BYTES - (mem_addr % EEPROM_PAGE_SIZE_BYTES);
	}
	
	if(n_bytes_1 >= n_bytes){
    291c:	c4 17       	cp	r28, r20
    291e:	d5 07       	cpc	r29, r21
    2920:	08 f0       	brcs	.+2      	; 0x2924 <EEPROM_24AAxx_Read_Extended+0x40>
		n_bytes_1 = n_bytes;
    2922:	ea 01       	movw	r28, r20
	}
	
	n_bytes_left = n_bytes - n_bytes_1;
    2924:	4c 1b       	sub	r20, r28
    2926:	5d 0b       	sbc	r21, r29
	
	/* Determine if data will be loaded in more than one page */
	if(n_bytes_left == 0){
    2928:	79 f0       	breq	.+30     	; 0x2948 <EEPROM_24AAxx_Read_Extended+0x64>
		n_pages = 0;
		n_bytes_2 = 0;
	}else{
		n_pages = n_bytes_left / EEPROM_PAGE_SIZE_BYTES;
    292a:	5a 01       	movw	r10, r20
    292c:	00 24       	eor	r0, r0
    292e:	aa 0c       	add	r10, r10
    2930:	bb 1c       	adc	r11, r11
    2932:	00 1c       	adc	r0, r0
    2934:	aa 0c       	add	r10, r10
    2936:	bb 1c       	adc	r11, r11
    2938:	00 1c       	adc	r0, r0
    293a:	ab 2c       	mov	r10, r11
    293c:	b0 2c       	mov	r11, r0
		n_bytes_2 = n_bytes_left % EEPROM_PAGE_SIZE_BYTES;
    293e:	4a 01       	movw	r8, r20
    2940:	8f e3       	ldi	r24, 0x3F	; 63
    2942:	88 22       	and	r8, r24
    2944:	99 24       	eor	r9, r9
    2946:	04 c0       	rjmp	.+8      	; 0x2950 <EEPROM_24AAxx_Read_Extended+0x6c>
	
	n_bytes_left = n_bytes - n_bytes_1;
	
	/* Determine if data will be loaded in more than one page */
	if(n_bytes_left == 0){
		n_pages = 0;
    2948:	a1 2c       	mov	r10, r1
    294a:	b1 2c       	mov	r11, r1
		n_bytes_2 = 0;
    294c:	81 2c       	mov	r8, r1
    294e:	91 2c       	mov	r9, r1
	/* Pointer value at the beginning of the writing */
	buffer_ptr = buffer;
	new_mem_addr = mem_addr;
	
	/* Load the first segment (if it is the case) */
	if(n_bytes_1 != 0){
    2950:	20 97       	sbiw	r28, 0x00	; 0
    2952:	69 f0       	breq	.+26     	; 0x296e <EEPROM_24AAxx_Read_Extended+0x8a>
		salida = EEPROM_24AAxx_Read(slave_addr, mem_addr, n_bytes_1, buffer);
    2954:	96 01       	movw	r18, r12
    2956:	4c 2f       	mov	r20, r28
    2958:	b7 01       	movw	r22, r14
    295a:	87 2d       	mov	r24, r7
    295c:	0e 94 62 13 	call	0x26c4	; 0x26c4 <EEPROM_24AAxx_Read>
		if(salida == I2C_ERROR){
    2960:	81 30       	cpi	r24, 0x01	; 1
    2962:	69 f1       	breq	.+90     	; 0x29be <EEPROM_24AAxx_Read_Extended+0xda>
			return salida;
		}
		buffer_ptr += n_bytes_1;
    2964:	cc 0e       	add	r12, r28
    2966:	dd 1e       	adc	r13, r29
		new_mem_addr += n_bytes_1;
    2968:	ec 0e       	add	r14, r28
    296a:	fd 1e       	adc	r15, r29
    296c:	01 c0       	rjmp	.+2      	; 0x2970 <EEPROM_24AAxx_Read_Extended+0x8c>



uint8_t EEPROM_24AAxx_Read_Extended(uint8_t slave_addr, uint16_t mem_addr, uint16_t n_bytes, uint8_t *buffer){

	uint8_t salida = I2C_OK;
    296e:	80 e0       	ldi	r24, 0x00	; 0
	
	uint16_t n_bytes_left = 0;
	uint16_t n_bytes_1 = 0, n_bytes_2 = 0;
	uint16_t n_pages = 0;
	int16_t index;
	uint16_t offset = 0;
    2970:	c0 e0       	ldi	r28, 0x00	; 0
    2972:	d0 e0       	ldi	r29, 0x00	; 0
		buffer_ptr += n_bytes_1;
		new_mem_addr += n_bytes_1;
	}

	/* Load an integer number of pages */
	for(index = 0; index < n_pages; index++){
    2974:	00 e0       	ldi	r16, 0x00	; 0
    2976:	10 e0       	ldi	r17, 0x00	; 0
    2978:	10 c0       	rjmp	.+32     	; 0x299a <EEPROM_24AAxx_Read_Extended+0xb6>
		salida = EEPROM_24AAxx_Read(slave_addr, new_mem_addr + offset, EEPROM_PAGE_SIZE_BYTES, buffer_ptr  + offset);
    297a:	96 01       	movw	r18, r12
    297c:	2c 0f       	add	r18, r28
    297e:	3d 1f       	adc	r19, r29
    2980:	be 01       	movw	r22, r28
    2982:	6e 0d       	add	r22, r14
    2984:	7f 1d       	adc	r23, r15
    2986:	40 e4       	ldi	r20, 0x40	; 64
    2988:	87 2d       	mov	r24, r7
    298a:	0e 94 62 13 	call	0x26c4	; 0x26c4 <EEPROM_24AAxx_Read>
		offset += EEPROM_PAGE_SIZE_BYTES;
    298e:	c0 5c       	subi	r28, 0xC0	; 192
    2990:	df 4f       	sbci	r29, 0xFF	; 255
		if(salida == I2C_ERROR){
    2992:	81 30       	cpi	r24, 0x01	; 1
    2994:	29 f0       	breq	.+10     	; 0x29a0 <EEPROM_24AAxx_Read_Extended+0xbc>
		buffer_ptr += n_bytes_1;
		new_mem_addr += n_bytes_1;
	}

	/* Load an integer number of pages */
	for(index = 0; index < n_pages; index++){
    2996:	0f 5f       	subi	r16, 0xFF	; 255
    2998:	1f 4f       	sbci	r17, 0xFF	; 255
    299a:	0a 15       	cp	r16, r10
    299c:	1b 05       	cpc	r17, r11
    299e:	68 f3       	brcs	.-38     	; 0x297a <EEPROM_24AAxx_Read_Extended+0x96>
		if(salida == I2C_ERROR){
			break;
		}
	}

	if(salida == I2C_ERROR){
    29a0:	81 30       	cpi	r24, 0x01	; 1
    29a2:	69 f0       	breq	.+26     	; 0x29be <EEPROM_24AAxx_Read_Extended+0xda>
		return salida;
	}
	
	buffer_ptr += offset;
    29a4:	96 01       	movw	r18, r12
    29a6:	2c 0f       	add	r18, r28
    29a8:	3d 1f       	adc	r19, r29
	new_mem_addr += offset;
    29aa:	be 01       	movw	r22, r28
    29ac:	6e 0d       	add	r22, r14
    29ae:	7f 1d       	adc	r23, r15
	
	
	if(n_bytes_2 != 0){
    29b0:	81 14       	cp	r8, r1
    29b2:	91 04       	cpc	r9, r1
    29b4:	21 f0       	breq	.+8      	; 0x29be <EEPROM_24AAxx_Read_Extended+0xda>
		salida = EEPROM_24AAxx_Read(slave_addr, new_mem_addr, n_bytes_2, buffer_ptr);
    29b6:	48 2d       	mov	r20, r8
    29b8:	87 2d       	mov	r24, r7
    29ba:	0e 94 62 13 	call	0x26c4	; 0x26c4 <EEPROM_24AAxx_Read>
	}
	
	return salida;
}
    29be:	df 91       	pop	r29
    29c0:	cf 91       	pop	r28
    29c2:	1f 91       	pop	r17
    29c4:	0f 91       	pop	r16
    29c6:	ff 90       	pop	r15
    29c8:	ef 90       	pop	r14
    29ca:	df 90       	pop	r13
    29cc:	cf 90       	pop	r12
    29ce:	bf 90       	pop	r11
    29d0:	af 90       	pop	r10
    29d2:	9f 90       	pop	r9
    29d4:	8f 90       	pop	r8
    29d6:	7f 90       	pop	r7
    29d8:	08 95       	ret

000029da <ADC_Configurar>:
* 				el mdulo ADC.
* Notas : Esta funcin no est diseada para configurar canales diferenciales
* 		  ni ganancias. Tampoco permite deshabilitar las entradas digitales
* 		  que no se van a utilizar.
*****************************************************************************/
void ADC_Configurar(ADC_t *adc_param){
    29da:	cf 93       	push	r28
    29dc:	df 93       	push	r29
    29de:	dc 01       	movw	r26, r24

	/* Inicializar los registros de configuracin */
	ADMUX = 0;
    29e0:	cc e7       	ldi	r28, 0x7C	; 124
    29e2:	d0 e0       	ldi	r29, 0x00	; 0
    29e4:	18 82       	st	Y, r1
	ADCSRB = 0;
    29e6:	2b e7       	ldi	r18, 0x7B	; 123
    29e8:	30 e0       	ldi	r19, 0x00	; 0
    29ea:	f9 01       	movw	r30, r18
    29ec:	10 82       	st	Z, r1
	ADCSRA = 0;
    29ee:	ea e7       	ldi	r30, 0x7A	; 122
    29f0:	f0 e0       	ldi	r31, 0x00	; 0
    29f2:	10 82       	st	Z, r1

	/* Habilitar el ADC */
	ADCSRA |= (1 << ADEN);
    29f4:	80 81       	ld	r24, Z
    29f6:	80 68       	ori	r24, 0x80	; 128
    29f8:	80 83       	st	Z, r24
	/* Configurar el Pre-Scaler del ADC */
	ADCSRA |= (adc_param->prescaler) << ADPS0;
    29fa:	90 81       	ld	r25, Z
    29fc:	8c 91       	ld	r24, X
    29fe:	89 2b       	or	r24, r25
    2a00:	80 83       	st	Z, r24
	/* Configurar el voltaje de referencia */
	ADMUX |= (adc_param->vref) << REFS0;
    2a02:	48 81       	ld	r20, Y
    2a04:	11 96       	adiw	r26, 0x01	; 1
    2a06:	9c 91       	ld	r25, X
    2a08:	11 97       	sbiw	r26, 0x01	; 1
    2a0a:	50 e4       	ldi	r21, 0x40	; 64
    2a0c:	95 9f       	mul	r25, r21
    2a0e:	c0 01       	movw	r24, r0
    2a10:	11 24       	eor	r1, r1
    2a12:	84 2b       	or	r24, r20
    2a14:	88 83       	st	Y, r24
	/* Cargar los nuevos valores de los bits selectores de canal */
	ADMUX |= (adc_param->channel & 0x07) << MUX0;
    2a16:	98 81       	ld	r25, Y
    2a18:	12 96       	adiw	r26, 0x02	; 2
    2a1a:	8c 91       	ld	r24, X
    2a1c:	12 97       	sbiw	r26, 0x02	; 2
    2a1e:	87 70       	andi	r24, 0x07	; 7
    2a20:	89 2b       	or	r24, r25
    2a22:	88 83       	st	Y, r24
	/* Configurar el trigger automtico */
	ADCSRA |= (adc_param->auto_trigger) << ADATE;
    2a24:	40 81       	ld	r20, Z
    2a26:	13 96       	adiw	r26, 0x03	; 3
    2a28:	9c 91       	ld	r25, X
    2a2a:	13 97       	sbiw	r26, 0x03	; 3
    2a2c:	c0 e2       	ldi	r28, 0x20	; 32
    2a2e:	9c 9f       	mul	r25, r28
    2a30:	c0 01       	movw	r24, r0
    2a32:	11 24       	eor	r1, r1
    2a34:	84 2b       	or	r24, r20
    2a36:	80 83       	st	Z, r24
	ADCSRB |= (adc_param->trigger_source) << ADTS0;
    2a38:	e9 01       	movw	r28, r18
    2a3a:	98 81       	ld	r25, Y
    2a3c:	14 96       	adiw	r26, 0x04	; 4
    2a3e:	8c 91       	ld	r24, X
    2a40:	14 97       	sbiw	r26, 0x04	; 4
    2a42:	89 2b       	or	r24, r25
    2a44:	88 83       	st	Y, r24
	/* Configurar el habilitador de interrupcin */
	ADCSRA |= adc_param->interrupt_mask;
    2a46:	90 81       	ld	r25, Z
    2a48:	15 96       	adiw	r26, 0x05	; 5
    2a4a:	8c 91       	ld	r24, X
    2a4c:	89 2b       	or	r24, r25
    2a4e:	80 83       	st	Z, r24
	/* Llevar a cabo una primera conversin */
    ADCSRA |= (1 << ADSC);
    2a50:	80 81       	ld	r24, Z
    2a52:	80 64       	ori	r24, 0x40	; 64
    2a54:	80 83       	st	Z, r24
	while(!(ADCSRA & (1 << ADIF))){
    2a56:	80 91 7a 00 	lds	r24, 0x007A	; 0x80007a <__TEXT_REGION_LENGTH__+0x7f807a>
    2a5a:	84 ff       	sbrs	r24, 4
    2a5c:	fc cf       	rjmp	.-8      	; 0x2a56 <ADC_Configurar+0x7c>
		/* No hacer nada hasta que la conversin finalice */
	}
	/* Limpiar la bandera de conversin completa */
	ADCSRA |= (1 << ADIF);
    2a5e:	ea e7       	ldi	r30, 0x7A	; 122
    2a60:	f0 e0       	ldi	r31, 0x00	; 0
    2a62:	80 81       	ld	r24, Z
    2a64:	80 61       	ori	r24, 0x10	; 16
    2a66:	80 83       	st	Z, r24
}
    2a68:	df 91       	pop	r29
    2a6a:	cf 91       	pop	r28
    2a6c:	08 95       	ret

00002a6e <ADC_Seleccionar_Canal>:
* 		  permite seleccionar los canales simples de 0 a 15 (no permite
* 		  seleccionar canales diferenciales con ganancia programable). La
* 		  funcin cuenta con un "filtro" interno en caso que el parmetro
* 		  ingresado se encuentre fuera del rango de 0 a 15.
*****************************************************************************/
void ADC_Seleccionar_Canal(uint8_t canal){
    2a6e:	cf 93       	push	r28
    2a70:	df 93       	push	r29
    2a72:	cd b7       	in	r28, 0x3d	; 61
    2a74:	de b7       	in	r29, 0x3e	; 62
    2a76:	28 97       	sbiw	r28, 0x08	; 8
    2a78:	0f b6       	in	r0, 0x3f	; 63
    2a7a:	f8 94       	cli
    2a7c:	de bf       	out	0x3e, r29	; 62
    2a7e:	0f be       	out	0x3f, r0	; 63
    2a80:	cd bf       	out	0x3d, r28	; 61

	ADC_Channel_t selector;

	/* Tabla para la configuracin de los canales */
	ADC_Channel_t tabla_canales[] ={
    2a82:	98 e0       	ldi	r25, 0x08	; 8
    2a84:	e9 e0       	ldi	r30, 0x09	; 9
    2a86:	f1 e0       	ldi	r31, 0x01	; 1
    2a88:	de 01       	movw	r26, r28
    2a8a:	11 96       	adiw	r26, 0x01	; 1
    2a8c:	01 90       	ld	r0, Z+
    2a8e:	0d 92       	st	X+, r0
    2a90:	9a 95       	dec	r25
    2a92:	e1 f7       	brne	.-8      	; 0x2a8c <ADC_Seleccionar_Canal+0x1e>
										ADC_Channel_6,
										ADC_Channel_7
									};

	/* Filtrar el parmetro canal para que no apunte fuera de la tabla */
	canal &= 0x07;
    2a94:	87 70       	andi	r24, 0x07	; 7
	/* Cargar el valor correspondiente al selector */
	selector = tabla_canales[canal];
    2a96:	e1 e0       	ldi	r30, 0x01	; 1
    2a98:	f0 e0       	ldi	r31, 0x00	; 0
    2a9a:	ec 0f       	add	r30, r28
    2a9c:	fd 1f       	adc	r31, r29
    2a9e:	e8 0f       	add	r30, r24
    2aa0:	f1 1d       	adc	r31, r1
    2aa2:	80 81       	ld	r24, Z
	/* Limpiar todos los bits selectores de canal del ADC */
	ADMUX &= ~((1 << MUX2) | (1 << MUX1) | (1 << MUX0));
    2aa4:	ec e7       	ldi	r30, 0x7C	; 124
    2aa6:	f0 e0       	ldi	r31, 0x00	; 0
    2aa8:	90 81       	ld	r25, Z
    2aaa:	98 7f       	andi	r25, 0xF8	; 248
    2aac:	90 83       	st	Z, r25
	/* Cargar los nuevos valores de los bits selectores */
	ADMUX |= (selector & 0x07) << MUX0;
    2aae:	90 81       	ld	r25, Z
    2ab0:	87 70       	andi	r24, 0x07	; 7
    2ab2:	89 2b       	or	r24, r25
    2ab4:	80 83       	st	Z, r24
}
    2ab6:	28 96       	adiw	r28, 0x08	; 8
    2ab8:	0f b6       	in	r0, 0x3f	; 63
    2aba:	f8 94       	cli
    2abc:	de bf       	out	0x3e, r29	; 62
    2abe:	0f be       	out	0x3f, r0	; 63
    2ac0:	cd bf       	out	0x3d, r28	; 61
    2ac2:	df 91       	pop	r29
    2ac4:	cf 91       	pop	r28
    2ac6:	08 95       	ret

00002ac8 <Delay_ms>:

/* Function definition */

void Delay_ms(uint32_t value_ms){
	
	timeout_limit_ms = value_ms;
    2ac8:	60 93 18 03 	sts	0x0318, r22	; 0x800318 <timeout_limit_ms>
    2acc:	70 93 19 03 	sts	0x0319, r23	; 0x800319 <timeout_limit_ms+0x1>
    2ad0:	80 93 1a 03 	sts	0x031A, r24	; 0x80031a <timeout_limit_ms+0x2>
    2ad4:	90 93 1b 03 	sts	0x031B, r25	; 0x80031b <timeout_limit_ms+0x3>
	timeout_counter_ms = 0;
    2ad8:	10 92 14 03 	sts	0x0314, r1	; 0x800314 <timeout_counter_ms>
    2adc:	10 92 15 03 	sts	0x0315, r1	; 0x800315 <timeout_counter_ms+0x1>
    2ae0:	10 92 16 03 	sts	0x0316, r1	; 0x800316 <timeout_counter_ms+0x2>
    2ae4:	10 92 17 03 	sts	0x0317, r1	; 0x800317 <timeout_counter_ms+0x3>
	
	cli();
    2ae8:	f8 94       	cli
	system_flags &= ~(1 << TIME_OUT_FLAG);
    2aea:	80 91 12 03 	lds	r24, 0x0312	; 0x800312 <system_flags>
    2aee:	90 91 13 03 	lds	r25, 0x0313	; 0x800313 <system_flags+0x1>
    2af2:	9e 7f       	andi	r25, 0xFE	; 254
    2af4:	90 93 13 03 	sts	0x0313, r25	; 0x800313 <system_flags+0x1>
    2af8:	80 93 12 03 	sts	0x0312, r24	; 0x800312 <system_flags>
	sei();
    2afc:	78 94       	sei
	
	while(!(system_flags & (1 << TIME_OUT_FLAG))){
    2afe:	80 91 12 03 	lds	r24, 0x0312	; 0x800312 <system_flags>
    2b02:	90 91 13 03 	lds	r25, 0x0313	; 0x800313 <system_flags+0x1>
    2b06:	90 ff       	sbrs	r25, 0
    2b08:	fa cf       	rjmp	.-12     	; 0x2afe <Delay_ms+0x36>
		// Wait until the desired time has elapsed
	}
	
}
    2b0a:	08 95       	ret

00002b0c <RTC_Set_Mode_12h>:
	i2c_tx_buffer[1] = clk_src;
	salida = TWI0_Master_Write_Data(PCF8523_SLAVE_ADDR, 2, i2c_tx_buffer);
	
	return salida;
	
}
    2b0c:	cf 93       	push	r28
    2b0e:	df 93       	push	r29
    2b10:	1f 92       	push	r1
    2b12:	cd b7       	in	r28, 0x3d	; 61
    2b14:	de b7       	in	r29, 0x3e	; 62
    2b16:	19 82       	std	Y+1, r1	; 0x01
    2b18:	10 92 3a 03 	sts	0x033A, r1	; 0x80033a <i2c_tx_buffer>
    2b1c:	4a e3       	ldi	r20, 0x3A	; 58
    2b1e:	53 e0       	ldi	r21, 0x03	; 3
    2b20:	61 e0       	ldi	r22, 0x01	; 1
    2b22:	88 e6       	ldi	r24, 0x68	; 104
    2b24:	0e 94 ea 19 	call	0x33d4	; 0x33d4 <TWI0_Master_Write_Data>
    2b28:	81 30       	cpi	r24, 0x01	; 1
    2b2a:	a9 f0       	breq	.+42     	; 0x2b56 <RTC_Set_Mode_12h+0x4a>
    2b2c:	ae 01       	movw	r20, r28
    2b2e:	4f 5f       	subi	r20, 0xFF	; 255
    2b30:	5f 4f       	sbci	r21, 0xFF	; 255
    2b32:	61 e0       	ldi	r22, 0x01	; 1
    2b34:	88 e6       	ldi	r24, 0x68	; 104
    2b36:	0e 94 19 1a 	call	0x3432	; 0x3432 <TWI0_Master_Read_Data>
    2b3a:	81 30       	cpi	r24, 0x01	; 1
    2b3c:	61 f0       	breq	.+24     	; 0x2b56 <RTC_Set_Mode_12h+0x4a>
    2b3e:	89 81       	ldd	r24, Y+1	; 0x01
    2b40:	88 60       	ori	r24, 0x08	; 8
    2b42:	89 83       	std	Y+1, r24	; 0x01
    2b44:	ea e3       	ldi	r30, 0x3A	; 58
    2b46:	f3 e0       	ldi	r31, 0x03	; 3
    2b48:	10 82       	st	Z, r1
    2b4a:	81 83       	std	Z+1, r24	; 0x01
    2b4c:	af 01       	movw	r20, r30
    2b4e:	62 e0       	ldi	r22, 0x02	; 2
    2b50:	88 e6       	ldi	r24, 0x68	; 104
    2b52:	0e 94 ea 19 	call	0x33d4	; 0x33d4 <TWI0_Master_Write_Data>
    2b56:	0f 90       	pop	r0
    2b58:	df 91       	pop	r29
    2b5a:	cf 91       	pop	r28
    2b5c:	08 95       	ret

00002b5e <RTC_Time_Set_12h>:
    2b5e:	cf 93       	push	r28
    2b60:	9d ec       	ldi	r25, 0xCD	; 205
    2b62:	89 9f       	mul	r24, r25
    2b64:	c1 2d       	mov	r28, r1
    2b66:	11 24       	eor	r1, r1
    2b68:	5c 2f       	mov	r21, r28
    2b6a:	56 95       	lsr	r21
    2b6c:	56 95       	lsr	r21
    2b6e:	56 95       	lsr	r21
    2b70:	55 0f       	add	r21, r21
    2b72:	35 2f       	mov	r19, r21
    2b74:	33 0f       	add	r19, r19
    2b76:	33 0f       	add	r19, r19
    2b78:	53 0f       	add	r21, r19
    2b7a:	85 1b       	sub	r24, r21
    2b7c:	58 2f       	mov	r21, r24
    2b7e:	69 9f       	mul	r22, r25
    2b80:	31 2d       	mov	r19, r1
    2b82:	11 24       	eor	r1, r1
    2b84:	73 2f       	mov	r23, r19
    2b86:	76 95       	lsr	r23
    2b88:	76 95       	lsr	r23
    2b8a:	76 95       	lsr	r23
    2b8c:	87 2f       	mov	r24, r23
    2b8e:	88 0f       	add	r24, r24
    2b90:	a8 2f       	mov	r26, r24
    2b92:	aa 0f       	add	r26, r26
    2b94:	aa 0f       	add	r26, r26
    2b96:	8a 0f       	add	r24, r26
    2b98:	76 2f       	mov	r23, r22
    2b9a:	78 1b       	sub	r23, r24
    2b9c:	63 2f       	mov	r22, r19
    2b9e:	66 95       	lsr	r22
    2ba0:	66 95       	lsr	r22
    2ba2:	66 95       	lsr	r22
    2ba4:	69 9f       	mul	r22, r25
    2ba6:	31 2d       	mov	r19, r1
    2ba8:	11 24       	eor	r1, r1
    2baa:	36 95       	lsr	r19
    2bac:	36 95       	lsr	r19
    2bae:	36 95       	lsr	r19
    2bb0:	33 0f       	add	r19, r19
    2bb2:	83 2f       	mov	r24, r19
    2bb4:	88 0f       	add	r24, r24
    2bb6:	88 0f       	add	r24, r24
    2bb8:	38 0f       	add	r19, r24
    2bba:	63 1b       	sub	r22, r19
    2bbc:	36 2f       	mov	r19, r22
    2bbe:	49 9f       	mul	r20, r25
    2bc0:	a1 2d       	mov	r26, r1
    2bc2:	11 24       	eor	r1, r1
    2bc4:	6a 2f       	mov	r22, r26
    2bc6:	66 95       	lsr	r22
    2bc8:	66 95       	lsr	r22
    2bca:	66 95       	lsr	r22
    2bcc:	86 2f       	mov	r24, r22
    2bce:	88 0f       	add	r24, r24
    2bd0:	68 2f       	mov	r22, r24
    2bd2:	66 0f       	add	r22, r22
    2bd4:	66 0f       	add	r22, r22
    2bd6:	86 0f       	add	r24, r22
    2bd8:	64 2f       	mov	r22, r20
    2bda:	68 1b       	sub	r22, r24
    2bdc:	4a 2f       	mov	r20, r26
    2bde:	46 95       	lsr	r20
    2be0:	46 95       	lsr	r20
    2be2:	46 95       	lsr	r20
    2be4:	49 9f       	mul	r20, r25
    2be6:	91 2d       	mov	r25, r1
    2be8:	11 24       	eor	r1, r1
    2bea:	96 95       	lsr	r25
    2bec:	96 95       	lsr	r25
    2bee:	96 95       	lsr	r25
    2bf0:	99 0f       	add	r25, r25
    2bf2:	89 2f       	mov	r24, r25
    2bf4:	88 0f       	add	r24, r24
    2bf6:	88 0f       	add	r24, r24
    2bf8:	98 0f       	add	r25, r24
    2bfa:	49 1b       	sub	r20, r25
    2bfc:	94 2f       	mov	r25, r20
    2bfe:	aa e3       	ldi	r26, 0x3A	; 58
    2c00:	b3 e0       	ldi	r27, 0x03	; 3
    2c02:	83 e0       	ldi	r24, 0x03	; 3
    2c04:	8c 93       	st	X, r24
    2c06:	40 e1       	ldi	r20, 0x10	; 16
    2c08:	94 9f       	mul	r25, r20
    2c0a:	c0 01       	movw	r24, r0
    2c0c:	11 24       	eor	r1, r1
    2c0e:	86 2b       	or	r24, r22
    2c10:	11 96       	adiw	r26, 0x01	; 1
    2c12:	8c 93       	st	X, r24
    2c14:	11 97       	sbiw	r26, 0x01	; 1
    2c16:	40 e1       	ldi	r20, 0x10	; 16
    2c18:	34 9f       	mul	r19, r20
    2c1a:	c0 01       	movw	r24, r0
    2c1c:	11 24       	eor	r1, r1
    2c1e:	87 2b       	or	r24, r23
    2c20:	12 96       	adiw	r26, 0x02	; 2
    2c22:	8c 93       	st	X, r24
    2c24:	12 97       	sbiw	r26, 0x02	; 2
    2c26:	80 e2       	ldi	r24, 0x20	; 32
    2c28:	28 9f       	mul	r18, r24
    2c2a:	90 01       	movw	r18, r0
    2c2c:	11 24       	eor	r1, r1
    2c2e:	c3 fb       	bst	r28, 3
    2c30:	ee 27       	eor	r30, r30
    2c32:	e0 f9       	bld	r30, 0
    2c34:	f0 e0       	ldi	r31, 0x00	; 0
    2c36:	e2 95       	swap	r30
    2c38:	f2 95       	swap	r31
    2c3a:	f0 7f       	andi	r31, 0xF0	; 240
    2c3c:	fe 27       	eor	r31, r30
    2c3e:	e0 7f       	andi	r30, 0xF0	; 240
    2c40:	fe 27       	eor	r31, r30
    2c42:	e2 2b       	or	r30, r18
    2c44:	e5 2b       	or	r30, r21
    2c46:	13 96       	adiw	r26, 0x03	; 3
    2c48:	ec 93       	st	X, r30
    2c4a:	13 97       	sbiw	r26, 0x03	; 3
    2c4c:	ad 01       	movw	r20, r26
    2c4e:	64 e0       	ldi	r22, 0x04	; 4
    2c50:	88 e6       	ldi	r24, 0x68	; 104
    2c52:	0e 94 ea 19 	call	0x33d4	; 0x33d4 <TWI0_Master_Write_Data>
    2c56:	cf 91       	pop	r28
    2c58:	08 95       	ret

00002c5a <RTC_Time_Read_12h>:
    2c5a:	83 e0       	ldi	r24, 0x03	; 3
    2c5c:	80 93 3a 03 	sts	0x033A, r24	; 0x80033a <i2c_tx_buffer>
    2c60:	4a e3       	ldi	r20, 0x3A	; 58
    2c62:	53 e0       	ldi	r21, 0x03	; 3
    2c64:	61 e0       	ldi	r22, 0x01	; 1
    2c66:	88 e6       	ldi	r24, 0x68	; 104
    2c68:	0e 94 ea 19 	call	0x33d4	; 0x33d4 <TWI0_Master_Write_Data>
    2c6c:	81 30       	cpi	r24, 0x01	; 1
    2c6e:	d1 f1       	breq	.+116    	; 0x2ce4 <RTC_Time_Read_12h+0x8a>
    2c70:	4c e1       	ldi	r20, 0x1C	; 28
    2c72:	53 e0       	ldi	r21, 0x03	; 3
    2c74:	63 e0       	ldi	r22, 0x03	; 3
    2c76:	88 e6       	ldi	r24, 0x68	; 104
    2c78:	0e 94 19 1a 	call	0x3432	; 0x3432 <TWI0_Master_Read_Data>
    2c7c:	81 30       	cpi	r24, 0x01	; 1
    2c7e:	91 f1       	breq	.+100    	; 0x2ce4 <RTC_Time_Read_12h+0x8a>
    2c80:	ac e1       	ldi	r26, 0x1C	; 28
    2c82:	b3 e0       	ldi	r27, 0x03	; 3
    2c84:	2c 91       	ld	r18, X
    2c86:	32 2f       	mov	r19, r18
    2c88:	3f 70       	andi	r19, 0x0F	; 15
    2c8a:	92 2f       	mov	r25, r18
    2c8c:	92 95       	swap	r25
    2c8e:	9f 70       	andi	r25, 0x0F	; 15
    2c90:	97 70       	andi	r25, 0x07	; 7
    2c92:	e6 e7       	ldi	r30, 0x76	; 118
    2c94:	f5 e0       	ldi	r31, 0x05	; 5
    2c96:	99 0f       	add	r25, r25
    2c98:	29 2f       	mov	r18, r25
    2c9a:	22 0f       	add	r18, r18
    2c9c:	22 0f       	add	r18, r18
    2c9e:	92 0f       	add	r25, r18
    2ca0:	93 0f       	add	r25, r19
    2ca2:	92 83       	std	Z+2, r25	; 0x02
    2ca4:	11 96       	adiw	r26, 0x01	; 1
    2ca6:	9c 91       	ld	r25, X
    2ca8:	11 97       	sbiw	r26, 0x01	; 1
    2caa:	29 2f       	mov	r18, r25
    2cac:	2f 70       	andi	r18, 0x0F	; 15
    2cae:	92 95       	swap	r25
    2cb0:	9f 70       	andi	r25, 0x0F	; 15
    2cb2:	99 0f       	add	r25, r25
    2cb4:	39 2f       	mov	r19, r25
    2cb6:	33 0f       	add	r19, r19
    2cb8:	33 0f       	add	r19, r19
    2cba:	93 0f       	add	r25, r19
    2cbc:	92 0f       	add	r25, r18
    2cbe:	91 83       	std	Z+1, r25	; 0x01
    2cc0:	12 96       	adiw	r26, 0x02	; 2
    2cc2:	9c 91       	ld	r25, X
    2cc4:	39 2f       	mov	r19, r25
    2cc6:	3f 70       	andi	r19, 0x0F	; 15
    2cc8:	94 fb       	bst	r25, 4
    2cca:	22 27       	eor	r18, r18
    2ccc:	20 f9       	bld	r18, 0
    2cce:	22 0f       	add	r18, r18
    2cd0:	42 2f       	mov	r20, r18
    2cd2:	44 0f       	add	r20, r20
    2cd4:	44 0f       	add	r20, r20
    2cd6:	24 0f       	add	r18, r20
    2cd8:	23 0f       	add	r18, r19
    2cda:	20 83       	st	Z, r18
    2cdc:	95 fb       	bst	r25, 5
    2cde:	99 27       	eor	r25, r25
    2ce0:	90 f9       	bld	r25, 0
    2ce2:	93 83       	std	Z+3, r25	; 0x03
    2ce4:	08 95       	ret

00002ce6 <RTC_Date_Set>:
    2ce6:	0f 93       	push	r16
    2ce8:	1f 93       	push	r17
    2cea:	cf 93       	push	r28
    2cec:	df 93       	push	r29
    2cee:	58 2f       	mov	r21, r24
    2cf0:	2d ec       	ldi	r18, 0xCD	; 205
    2cf2:	42 9f       	mul	r20, r18
    2cf4:	91 2d       	mov	r25, r1
    2cf6:	11 24       	eor	r1, r1
    2cf8:	d9 2f       	mov	r29, r25
    2cfa:	d6 95       	lsr	r29
    2cfc:	d6 95       	lsr	r29
    2cfe:	d6 95       	lsr	r29
    2d00:	dd 0f       	add	r29, r29
    2d02:	3d 2f       	mov	r19, r29
    2d04:	33 0f       	add	r19, r19
    2d06:	33 0f       	add	r19, r19
    2d08:	d3 0f       	add	r29, r19
    2d0a:	4d 1b       	sub	r20, r29
    2d0c:	d4 2f       	mov	r29, r20
    2d0e:	96 95       	lsr	r25
    2d10:	96 95       	lsr	r25
    2d12:	96 95       	lsr	r25
    2d14:	92 9f       	mul	r25, r18
    2d16:	81 2d       	mov	r24, r1
    2d18:	11 24       	eor	r1, r1
    2d1a:	c8 2f       	mov	r28, r24
    2d1c:	c6 95       	lsr	r28
    2d1e:	c6 95       	lsr	r28
    2d20:	c6 95       	lsr	r28
    2d22:	cc 0f       	add	r28, r28
    2d24:	3c 2f       	mov	r19, r28
    2d26:	33 0f       	add	r19, r19
    2d28:	33 0f       	add	r19, r19
    2d2a:	c3 0f       	add	r28, r19
    2d2c:	9c 1b       	sub	r25, r28
    2d2e:	c9 2f       	mov	r28, r25
    2d30:	62 9f       	mul	r22, r18
    2d32:	91 2d       	mov	r25, r1
    2d34:	11 24       	eor	r1, r1
    2d36:	19 2f       	mov	r17, r25
    2d38:	16 95       	lsr	r17
    2d3a:	16 95       	lsr	r17
    2d3c:	16 95       	lsr	r17
    2d3e:	11 0f       	add	r17, r17
    2d40:	31 2f       	mov	r19, r17
    2d42:	33 0f       	add	r19, r19
    2d44:	33 0f       	add	r19, r19
    2d46:	13 0f       	add	r17, r19
    2d48:	61 1b       	sub	r22, r17
    2d4a:	16 2f       	mov	r17, r22
    2d4c:	96 95       	lsr	r25
    2d4e:	96 95       	lsr	r25
    2d50:	96 95       	lsr	r25
    2d52:	92 9f       	mul	r25, r18
    2d54:	81 2d       	mov	r24, r1
    2d56:	11 24       	eor	r1, r1
    2d58:	08 2f       	mov	r16, r24
    2d5a:	06 95       	lsr	r16
    2d5c:	06 95       	lsr	r16
    2d5e:	06 95       	lsr	r16
    2d60:	00 0f       	add	r16, r16
    2d62:	30 2f       	mov	r19, r16
    2d64:	33 0f       	add	r19, r19
    2d66:	33 0f       	add	r19, r19
    2d68:	03 0f       	add	r16, r19
    2d6a:	90 1b       	sub	r25, r16
    2d6c:	09 2f       	mov	r16, r25
    2d6e:	52 9f       	mul	r21, r18
    2d70:	91 2d       	mov	r25, r1
    2d72:	11 24       	eor	r1, r1
    2d74:	39 2f       	mov	r19, r25
    2d76:	36 95       	lsr	r19
    2d78:	36 95       	lsr	r19
    2d7a:	36 95       	lsr	r19
    2d7c:	33 0f       	add	r19, r19
    2d7e:	43 2f       	mov	r20, r19
    2d80:	44 0f       	add	r20, r20
    2d82:	44 0f       	add	r20, r20
    2d84:	34 0f       	add	r19, r20
    2d86:	53 1b       	sub	r21, r19
    2d88:	96 95       	lsr	r25
    2d8a:	96 95       	lsr	r25
    2d8c:	96 95       	lsr	r25
    2d8e:	92 9f       	mul	r25, r18
    2d90:	21 2d       	mov	r18, r1
    2d92:	11 24       	eor	r1, r1
    2d94:	26 95       	lsr	r18
    2d96:	26 95       	lsr	r18
    2d98:	26 95       	lsr	r18
    2d9a:	22 0f       	add	r18, r18
    2d9c:	82 2f       	mov	r24, r18
    2d9e:	88 0f       	add	r24, r24
    2da0:	88 0f       	add	r24, r24
    2da2:	28 0f       	add	r18, r24
    2da4:	92 1b       	sub	r25, r18
    2da6:	93 70       	andi	r25, 0x03	; 3
    2da8:	ea e3       	ldi	r30, 0x3A	; 58
    2daa:	f3 e0       	ldi	r31, 0x03	; 3
    2dac:	86 e0       	ldi	r24, 0x06	; 6
    2dae:	80 83       	st	Z, r24
    2db0:	20 e1       	ldi	r18, 0x10	; 16
    2db2:	92 9f       	mul	r25, r18
    2db4:	c0 01       	movw	r24, r0
    2db6:	11 24       	eor	r1, r1
    2db8:	85 2b       	or	r24, r21
    2dba:	81 83       	std	Z+1, r24	; 0x01
    2dbc:	af 01       	movw	r20, r30
    2dbe:	62 e0       	ldi	r22, 0x02	; 2
    2dc0:	88 e6       	ldi	r24, 0x68	; 104
    2dc2:	0e 94 ea 19 	call	0x33d4	; 0x33d4 <TWI0_Master_Write_Data>
    2dc6:	81 30       	cpi	r24, 0x01	; 1
    2dc8:	a9 f0       	breq	.+42     	; 0x2df4 <RTC_Date_Set+0x10e>
    2dca:	ea e3       	ldi	r30, 0x3A	; 58
    2dcc:	f3 e0       	ldi	r31, 0x03	; 3
    2dce:	88 e0       	ldi	r24, 0x08	; 8
    2dd0:	80 83       	st	Z, r24
    2dd2:	20 e1       	ldi	r18, 0x10	; 16
    2dd4:	02 9f       	mul	r16, r18
    2dd6:	c0 01       	movw	r24, r0
    2dd8:	11 24       	eor	r1, r1
    2dda:	81 2b       	or	r24, r17
    2ddc:	81 83       	std	Z+1, r24	; 0x01
    2dde:	20 e1       	ldi	r18, 0x10	; 16
    2de0:	c2 9f       	mul	r28, r18
    2de2:	c0 01       	movw	r24, r0
    2de4:	11 24       	eor	r1, r1
    2de6:	8d 2b       	or	r24, r29
    2de8:	82 83       	std	Z+2, r24	; 0x02
    2dea:	af 01       	movw	r20, r30
    2dec:	63 e0       	ldi	r22, 0x03	; 3
    2dee:	88 e6       	ldi	r24, 0x68	; 104
    2df0:	0e 94 ea 19 	call	0x33d4	; 0x33d4 <TWI0_Master_Write_Data>
    2df4:	df 91       	pop	r29
    2df6:	cf 91       	pop	r28
    2df8:	1f 91       	pop	r17
    2dfa:	0f 91       	pop	r16
    2dfc:	08 95       	ret

00002dfe <RTC_Date_Read>:
    2dfe:	86 e0       	ldi	r24, 0x06	; 6
    2e00:	80 93 3a 03 	sts	0x033A, r24	; 0x80033a <i2c_tx_buffer>
    2e04:	4a e3       	ldi	r20, 0x3A	; 58
    2e06:	53 e0       	ldi	r21, 0x03	; 3
    2e08:	61 e0       	ldi	r22, 0x01	; 1
    2e0a:	88 e6       	ldi	r24, 0x68	; 104
    2e0c:	0e 94 ea 19 	call	0x33d4	; 0x33d4 <TWI0_Master_Write_Data>
    2e10:	81 30       	cpi	r24, 0x01	; 1
    2e12:	09 f4       	brne	.+2      	; 0x2e16 <RTC_Date_Read+0x18>
    2e14:	45 c0       	rjmp	.+138    	; 0x2ea0 <RTC_Date_Read+0xa2>
    2e16:	4c e1       	ldi	r20, 0x1C	; 28
    2e18:	53 e0       	ldi	r21, 0x03	; 3
    2e1a:	61 e0       	ldi	r22, 0x01	; 1
    2e1c:	88 e6       	ldi	r24, 0x68	; 104
    2e1e:	0e 94 19 1a 	call	0x3432	; 0x3432 <TWI0_Master_Read_Data>
    2e22:	81 30       	cpi	r24, 0x01	; 1
    2e24:	e9 f1       	breq	.+122    	; 0x2ea0 <RTC_Date_Read+0xa2>
    2e26:	88 e0       	ldi	r24, 0x08	; 8
    2e28:	80 93 3a 03 	sts	0x033A, r24	; 0x80033a <i2c_tx_buffer>
    2e2c:	4a e3       	ldi	r20, 0x3A	; 58
    2e2e:	53 e0       	ldi	r21, 0x03	; 3
    2e30:	61 e0       	ldi	r22, 0x01	; 1
    2e32:	88 e6       	ldi	r24, 0x68	; 104
    2e34:	0e 94 ea 19 	call	0x33d4	; 0x33d4 <TWI0_Master_Write_Data>
    2e38:	81 30       	cpi	r24, 0x01	; 1
    2e3a:	91 f1       	breq	.+100    	; 0x2ea0 <RTC_Date_Read+0xa2>
    2e3c:	4d e1       	ldi	r20, 0x1D	; 29
    2e3e:	53 e0       	ldi	r21, 0x03	; 3
    2e40:	62 e0       	ldi	r22, 0x02	; 2
    2e42:	88 e6       	ldi	r24, 0x68	; 104
    2e44:	0e 94 19 1a 	call	0x3432	; 0x3432 <TWI0_Master_Read_Data>
    2e48:	ac e1       	ldi	r26, 0x1C	; 28
    2e4a:	b3 e0       	ldi	r27, 0x03	; 3
    2e4c:	9c 91       	ld	r25, X
    2e4e:	29 2f       	mov	r18, r25
    2e50:	2f 70       	andi	r18, 0x0F	; 15
    2e52:	92 95       	swap	r25
    2e54:	9f 70       	andi	r25, 0x0F	; 15
    2e56:	93 70       	andi	r25, 0x03	; 3
    2e58:	ea e7       	ldi	r30, 0x7A	; 122
    2e5a:	f5 e0       	ldi	r31, 0x05	; 5
    2e5c:	99 0f       	add	r25, r25
    2e5e:	39 2f       	mov	r19, r25
    2e60:	33 0f       	add	r19, r19
    2e62:	33 0f       	add	r19, r19
    2e64:	93 0f       	add	r25, r19
    2e66:	92 0f       	add	r25, r18
    2e68:	90 83       	st	Z, r25
    2e6a:	11 96       	adiw	r26, 0x01	; 1
    2e6c:	9c 91       	ld	r25, X
    2e6e:	11 97       	sbiw	r26, 0x01	; 1
    2e70:	29 2f       	mov	r18, r25
    2e72:	2f 70       	andi	r18, 0x0F	; 15
    2e74:	92 95       	swap	r25
    2e76:	91 70       	andi	r25, 0x01	; 1
    2e78:	99 0f       	add	r25, r25
    2e7a:	39 2f       	mov	r19, r25
    2e7c:	33 0f       	add	r19, r19
    2e7e:	33 0f       	add	r19, r19
    2e80:	93 0f       	add	r25, r19
    2e82:	92 0f       	add	r25, r18
    2e84:	91 83       	std	Z+1, r25	; 0x01
    2e86:	12 96       	adiw	r26, 0x02	; 2
    2e88:	9c 91       	ld	r25, X
    2e8a:	29 2f       	mov	r18, r25
    2e8c:	2f 70       	andi	r18, 0x0F	; 15
    2e8e:	92 95       	swap	r25
    2e90:	9f 70       	andi	r25, 0x0F	; 15
    2e92:	99 0f       	add	r25, r25
    2e94:	39 2f       	mov	r19, r25
    2e96:	33 0f       	add	r19, r19
    2e98:	33 0f       	add	r19, r19
    2e9a:	93 0f       	add	r25, r19
    2e9c:	92 0f       	add	r25, r18
    2e9e:	92 83       	std	Z+2, r25	; 0x02
    2ea0:	08 95       	ret

00002ea2 <RTC_Get_Time_12h>:
    2ea2:	fc 01       	movw	r30, r24
    2ea4:	a6 e7       	ldi	r26, 0x76	; 118
    2ea6:	b5 e0       	ldi	r27, 0x05	; 5
    2ea8:	8c 91       	ld	r24, X
    2eaa:	80 83       	st	Z, r24
    2eac:	11 96       	adiw	r26, 0x01	; 1
    2eae:	8c 91       	ld	r24, X
    2eb0:	11 97       	sbiw	r26, 0x01	; 1
    2eb2:	81 83       	std	Z+1, r24	; 0x01
    2eb4:	12 96       	adiw	r26, 0x02	; 2
    2eb6:	8c 91       	ld	r24, X
    2eb8:	12 97       	sbiw	r26, 0x02	; 2
    2eba:	82 83       	std	Z+2, r24	; 0x02
    2ebc:	13 96       	adiw	r26, 0x03	; 3
    2ebe:	8c 91       	ld	r24, X
    2ec0:	83 83       	std	Z+3, r24	; 0x03
    2ec2:	08 95       	ret

00002ec4 <RTC_Get_Date>:
    2ec4:	fc 01       	movw	r30, r24
    2ec6:	aa e7       	ldi	r26, 0x7A	; 122
    2ec8:	b5 e0       	ldi	r27, 0x05	; 5
    2eca:	8c 91       	ld	r24, X
    2ecc:	80 83       	st	Z, r24
    2ece:	11 96       	adiw	r26, 0x01	; 1
    2ed0:	8c 91       	ld	r24, X
    2ed2:	11 97       	sbiw	r26, 0x01	; 1
    2ed4:	81 83       	std	Z+1, r24	; 0x01
    2ed6:	12 96       	adiw	r26, 0x02	; 2
    2ed8:	8c 91       	ld	r24, X
    2eda:	82 83       	std	Z+2, r24	; 0x02
    2edc:	08 95       	ret

00002ede <RTC_TimerA_Load_Value>:
    2ede:	ea e3       	ldi	r30, 0x3A	; 58
    2ee0:	f3 e0       	ldi	r31, 0x03	; 3
    2ee2:	91 e1       	ldi	r25, 0x11	; 17
    2ee4:	90 83       	st	Z, r25
    2ee6:	81 83       	std	Z+1, r24	; 0x01
    2ee8:	af 01       	movw	r20, r30
    2eea:	62 e0       	ldi	r22, 0x02	; 2
    2eec:	88 e6       	ldi	r24, 0x68	; 104
    2eee:	0e 94 ea 19 	call	0x33d4	; 0x33d4 <TWI0_Master_Write_Data>
    2ef2:	08 95       	ret

00002ef4 <RTC_TimerA_Enable>:
    2ef4:	cf 93       	push	r28
    2ef6:	df 93       	push	r29
    2ef8:	1f 92       	push	r1
    2efa:	cd b7       	in	r28, 0x3d	; 61
    2efc:	de b7       	in	r29, 0x3e	; 62
    2efe:	19 82       	std	Y+1, r1	; 0x01
    2f00:	8f e0       	ldi	r24, 0x0F	; 15
    2f02:	80 93 3a 03 	sts	0x033A, r24	; 0x80033a <i2c_tx_buffer>
    2f06:	4a e3       	ldi	r20, 0x3A	; 58
    2f08:	53 e0       	ldi	r21, 0x03	; 3
    2f0a:	61 e0       	ldi	r22, 0x01	; 1
    2f0c:	88 e6       	ldi	r24, 0x68	; 104
    2f0e:	0e 94 ea 19 	call	0x33d4	; 0x33d4 <TWI0_Master_Write_Data>
    2f12:	81 30       	cpi	r24, 0x01	; 1
    2f14:	b9 f0       	breq	.+46     	; 0x2f44 <RTC_TimerA_Enable+0x50>
    2f16:	ae 01       	movw	r20, r28
    2f18:	4f 5f       	subi	r20, 0xFF	; 255
    2f1a:	5f 4f       	sbci	r21, 0xFF	; 255
    2f1c:	61 e0       	ldi	r22, 0x01	; 1
    2f1e:	88 e6       	ldi	r24, 0x68	; 104
    2f20:	0e 94 19 1a 	call	0x3432	; 0x3432 <TWI0_Master_Read_Data>
    2f24:	81 30       	cpi	r24, 0x01	; 1
    2f26:	71 f0       	breq	.+28     	; 0x2f44 <RTC_TimerA_Enable+0x50>
    2f28:	89 81       	ldd	r24, Y+1	; 0x01
    2f2a:	8b 7f       	andi	r24, 0xFB	; 251
    2f2c:	82 68       	ori	r24, 0x82	; 130
    2f2e:	89 83       	std	Y+1, r24	; 0x01
    2f30:	ea e3       	ldi	r30, 0x3A	; 58
    2f32:	f3 e0       	ldi	r31, 0x03	; 3
    2f34:	9f e0       	ldi	r25, 0x0F	; 15
    2f36:	90 83       	st	Z, r25
    2f38:	81 83       	std	Z+1, r24	; 0x01
    2f3a:	af 01       	movw	r20, r30
    2f3c:	62 e0       	ldi	r22, 0x02	; 2
    2f3e:	88 e6       	ldi	r24, 0x68	; 104
    2f40:	0e 94 ea 19 	call	0x33d4	; 0x33d4 <TWI0_Master_Write_Data>
    2f44:	0f 90       	pop	r0
    2f46:	df 91       	pop	r29
    2f48:	cf 91       	pop	r28
    2f4a:	08 95       	ret

00002f4c <RTC_TimerA_Disable>:
    2f4c:	cf 93       	push	r28
    2f4e:	df 93       	push	r29
    2f50:	1f 92       	push	r1
    2f52:	cd b7       	in	r28, 0x3d	; 61
    2f54:	de b7       	in	r29, 0x3e	; 62
    2f56:	19 82       	std	Y+1, r1	; 0x01
    2f58:	8f e0       	ldi	r24, 0x0F	; 15
    2f5a:	80 93 3a 03 	sts	0x033A, r24	; 0x80033a <i2c_tx_buffer>
    2f5e:	4a e3       	ldi	r20, 0x3A	; 58
    2f60:	53 e0       	ldi	r21, 0x03	; 3
    2f62:	61 e0       	ldi	r22, 0x01	; 1
    2f64:	88 e6       	ldi	r24, 0x68	; 104
    2f66:	0e 94 ea 19 	call	0x33d4	; 0x33d4 <TWI0_Master_Write_Data>
    2f6a:	81 30       	cpi	r24, 0x01	; 1
    2f6c:	b1 f0       	breq	.+44     	; 0x2f9a <RTC_TimerA_Disable+0x4e>
    2f6e:	ae 01       	movw	r20, r28
    2f70:	4f 5f       	subi	r20, 0xFF	; 255
    2f72:	5f 4f       	sbci	r21, 0xFF	; 255
    2f74:	61 e0       	ldi	r22, 0x01	; 1
    2f76:	88 e6       	ldi	r24, 0x68	; 104
    2f78:	0e 94 19 1a 	call	0x3432	; 0x3432 <TWI0_Master_Read_Data>
    2f7c:	81 30       	cpi	r24, 0x01	; 1
    2f7e:	69 f0       	breq	.+26     	; 0x2f9a <RTC_TimerA_Disable+0x4e>
    2f80:	89 81       	ldd	r24, Y+1	; 0x01
    2f82:	89 7f       	andi	r24, 0xF9	; 249
    2f84:	89 83       	std	Y+1, r24	; 0x01
    2f86:	ea e3       	ldi	r30, 0x3A	; 58
    2f88:	f3 e0       	ldi	r31, 0x03	; 3
    2f8a:	9f e0       	ldi	r25, 0x0F	; 15
    2f8c:	90 83       	st	Z, r25
    2f8e:	81 83       	std	Z+1, r24	; 0x01
    2f90:	af 01       	movw	r20, r30
    2f92:	62 e0       	ldi	r22, 0x02	; 2
    2f94:	88 e6       	ldi	r24, 0x68	; 104
    2f96:	0e 94 ea 19 	call	0x33d4	; 0x33d4 <TWI0_Master_Write_Data>
    2f9a:	0f 90       	pop	r0
    2f9c:	df 91       	pop	r29
    2f9e:	cf 91       	pop	r28
    2fa0:	08 95       	ret

00002fa2 <RTC_TimerA_Int_Enable>:
    2fa2:	cf 93       	push	r28
    2fa4:	df 93       	push	r29
    2fa6:	1f 92       	push	r1
    2fa8:	cd b7       	in	r28, 0x3d	; 61
    2faa:	de b7       	in	r29, 0x3e	; 62
    2fac:	19 82       	std	Y+1, r1	; 0x01
    2fae:	81 e0       	ldi	r24, 0x01	; 1
    2fb0:	80 93 3a 03 	sts	0x033A, r24	; 0x80033a <i2c_tx_buffer>
    2fb4:	4a e3       	ldi	r20, 0x3A	; 58
    2fb6:	53 e0       	ldi	r21, 0x03	; 3
    2fb8:	61 e0       	ldi	r22, 0x01	; 1
    2fba:	88 e6       	ldi	r24, 0x68	; 104
    2fbc:	0e 94 ea 19 	call	0x33d4	; 0x33d4 <TWI0_Master_Write_Data>
    2fc0:	81 30       	cpi	r24, 0x01	; 1
    2fc2:	b1 f0       	breq	.+44     	; 0x2ff0 <RTC_TimerA_Int_Enable+0x4e>
    2fc4:	ae 01       	movw	r20, r28
    2fc6:	4f 5f       	subi	r20, 0xFF	; 255
    2fc8:	5f 4f       	sbci	r21, 0xFF	; 255
    2fca:	61 e0       	ldi	r22, 0x01	; 1
    2fcc:	88 e6       	ldi	r24, 0x68	; 104
    2fce:	0e 94 19 1a 	call	0x3432	; 0x3432 <TWI0_Master_Read_Data>
    2fd2:	81 30       	cpi	r24, 0x01	; 1
    2fd4:	69 f0       	breq	.+26     	; 0x2ff0 <RTC_TimerA_Int_Enable+0x4e>
    2fd6:	89 81       	ldd	r24, Y+1	; 0x01
    2fd8:	82 60       	ori	r24, 0x02	; 2
    2fda:	89 83       	std	Y+1, r24	; 0x01
    2fdc:	ea e3       	ldi	r30, 0x3A	; 58
    2fde:	f3 e0       	ldi	r31, 0x03	; 3
    2fe0:	91 e0       	ldi	r25, 0x01	; 1
    2fe2:	90 83       	st	Z, r25
    2fe4:	81 83       	std	Z+1, r24	; 0x01
    2fe6:	af 01       	movw	r20, r30
    2fe8:	62 e0       	ldi	r22, 0x02	; 2
    2fea:	88 e6       	ldi	r24, 0x68	; 104
    2fec:	0e 94 ea 19 	call	0x33d4	; 0x33d4 <TWI0_Master_Write_Data>
    2ff0:	0f 90       	pop	r0
    2ff2:	df 91       	pop	r29
    2ff4:	cf 91       	pop	r28
    2ff6:	08 95       	ret

00002ff8 <RTC_TimerA_Int_Disable>:
    2ff8:	cf 93       	push	r28
    2ffa:	df 93       	push	r29
    2ffc:	1f 92       	push	r1
    2ffe:	cd b7       	in	r28, 0x3d	; 61
    3000:	de b7       	in	r29, 0x3e	; 62
    3002:	19 82       	std	Y+1, r1	; 0x01
    3004:	81 e0       	ldi	r24, 0x01	; 1
    3006:	80 93 3a 03 	sts	0x033A, r24	; 0x80033a <i2c_tx_buffer>
    300a:	4a e3       	ldi	r20, 0x3A	; 58
    300c:	53 e0       	ldi	r21, 0x03	; 3
    300e:	61 e0       	ldi	r22, 0x01	; 1
    3010:	88 e6       	ldi	r24, 0x68	; 104
    3012:	0e 94 ea 19 	call	0x33d4	; 0x33d4 <TWI0_Master_Write_Data>
    3016:	81 30       	cpi	r24, 0x01	; 1
    3018:	b1 f0       	breq	.+44     	; 0x3046 <RTC_TimerA_Int_Disable+0x4e>
    301a:	ae 01       	movw	r20, r28
    301c:	4f 5f       	subi	r20, 0xFF	; 255
    301e:	5f 4f       	sbci	r21, 0xFF	; 255
    3020:	61 e0       	ldi	r22, 0x01	; 1
    3022:	88 e6       	ldi	r24, 0x68	; 104
    3024:	0e 94 19 1a 	call	0x3432	; 0x3432 <TWI0_Master_Read_Data>
    3028:	81 30       	cpi	r24, 0x01	; 1
    302a:	69 f0       	breq	.+26     	; 0x3046 <RTC_TimerA_Int_Disable+0x4e>
    302c:	89 81       	ldd	r24, Y+1	; 0x01
    302e:	8d 7f       	andi	r24, 0xFD	; 253
    3030:	89 83       	std	Y+1, r24	; 0x01
    3032:	ea e3       	ldi	r30, 0x3A	; 58
    3034:	f3 e0       	ldi	r31, 0x03	; 3
    3036:	91 e0       	ldi	r25, 0x01	; 1
    3038:	90 83       	st	Z, r25
    303a:	81 83       	std	Z+1, r24	; 0x01
    303c:	af 01       	movw	r20, r30
    303e:	62 e0       	ldi	r22, 0x02	; 2
    3040:	88 e6       	ldi	r24, 0x68	; 104
    3042:	0e 94 ea 19 	call	0x33d4	; 0x33d4 <TWI0_Master_Write_Data>
    3046:	0f 90       	pop	r0
    3048:	df 91       	pop	r29
    304a:	cf 91       	pop	r28
    304c:	08 95       	ret

0000304e <RTC_TimerA_Int_Flag_Clear>:
    304e:	cf 93       	push	r28
    3050:	df 93       	push	r29
    3052:	1f 92       	push	r1
    3054:	cd b7       	in	r28, 0x3d	; 61
    3056:	de b7       	in	r29, 0x3e	; 62
    3058:	19 82       	std	Y+1, r1	; 0x01
    305a:	81 e0       	ldi	r24, 0x01	; 1
    305c:	80 93 3a 03 	sts	0x033A, r24	; 0x80033a <i2c_tx_buffer>
    3060:	4a e3       	ldi	r20, 0x3A	; 58
    3062:	53 e0       	ldi	r21, 0x03	; 3
    3064:	61 e0       	ldi	r22, 0x01	; 1
    3066:	88 e6       	ldi	r24, 0x68	; 104
    3068:	0e 94 ea 19 	call	0x33d4	; 0x33d4 <TWI0_Master_Write_Data>
    306c:	81 30       	cpi	r24, 0x01	; 1
    306e:	b1 f0       	breq	.+44     	; 0x309c <RTC_TimerA_Int_Flag_Clear+0x4e>
    3070:	ae 01       	movw	r20, r28
    3072:	4f 5f       	subi	r20, 0xFF	; 255
    3074:	5f 4f       	sbci	r21, 0xFF	; 255
    3076:	61 e0       	ldi	r22, 0x01	; 1
    3078:	88 e6       	ldi	r24, 0x68	; 104
    307a:	0e 94 19 1a 	call	0x3432	; 0x3432 <TWI0_Master_Read_Data>
    307e:	81 30       	cpi	r24, 0x01	; 1
    3080:	69 f0       	breq	.+26     	; 0x309c <RTC_TimerA_Int_Flag_Clear+0x4e>
    3082:	89 81       	ldd	r24, Y+1	; 0x01
    3084:	8f 7b       	andi	r24, 0xBF	; 191
    3086:	89 83       	std	Y+1, r24	; 0x01
    3088:	ea e3       	ldi	r30, 0x3A	; 58
    308a:	f3 e0       	ldi	r31, 0x03	; 3
    308c:	91 e0       	ldi	r25, 0x01	; 1
    308e:	90 83       	st	Z, r25
    3090:	81 83       	std	Z+1, r24	; 0x01
    3092:	af 01       	movw	r20, r30
    3094:	62 e0       	ldi	r22, 0x02	; 2
    3096:	88 e6       	ldi	r24, 0x68	; 104
    3098:	0e 94 ea 19 	call	0x33d4	; 0x33d4 <TWI0_Master_Write_Data>
    309c:	0f 90       	pop	r0
    309e:	df 91       	pop	r29
    30a0:	cf 91       	pop	r28
    30a2:	08 95       	ret

000030a4 <RTC_TimerA_Clock_Source_Select>:
    30a4:	ea e3       	ldi	r30, 0x3A	; 58
    30a6:	f3 e0       	ldi	r31, 0x03	; 3
    30a8:	90 e1       	ldi	r25, 0x10	; 16
    30aa:	90 83       	st	Z, r25
    30ac:	81 83       	std	Z+1, r24	; 0x01
    30ae:	af 01       	movw	r20, r30
    30b0:	62 e0       	ldi	r22, 0x02	; 2
    30b2:	88 e6       	ldi	r24, 0x68	; 104
    30b4:	0e 94 ea 19 	call	0x33d4	; 0x33d4 <TWI0_Master_Write_Data>
    30b8:	08 95       	ret

000030ba <RTC_Clockout_Source_Select>:


uint8_t RTC_Clockout_Source_Select(rtc_clockout_src_t clk_src){
    30ba:	1f 93       	push	r17
    30bc:	cf 93       	push	r28
    30be:	df 93       	push	r29
    30c0:	1f 92       	push	r1
    30c2:	cd b7       	in	r28, 0x3d	; 61
    30c4:	de b7       	in	r29, 0x3e	; 62
    30c6:	18 2f       	mov	r17, r24

	uint8_t salida = I2C_OK;
	uint8_t temp = 0;
    30c8:	19 82       	std	Y+1, r1	; 0x01

	/* Cargar direccin del registro de configuracion */
	i2c_tx_buffer[0] = TMR_CLKOUT_CTRL_REG;
    30ca:	8f e0       	ldi	r24, 0x0F	; 15
    30cc:	80 93 3a 03 	sts	0x033A, r24	; 0x80033a <i2c_tx_buffer>
	salida = TWI0_Master_Write_Data(PCF8523_SLAVE_ADDR, 1, i2c_tx_buffer);
    30d0:	4a e3       	ldi	r20, 0x3A	; 58
    30d2:	53 e0       	ldi	r21, 0x03	; 3
    30d4:	61 e0       	ldi	r22, 0x01	; 1
    30d6:	88 e6       	ldi	r24, 0x68	; 104
    30d8:	0e 94 ea 19 	call	0x33d4	; 0x33d4 <TWI0_Master_Write_Data>
	if(salida == I2C_ERROR){
    30dc:	81 30       	cpi	r24, 0x01	; 1
    30de:	09 f1       	breq	.+66     	; 0x3122 <RTC_Clockout_Source_Select+0x68>
		return salida;
	}
	/* Leer el valor actual del registro */
	salida = TWI0_Master_Read_Data(PCF8523_SLAVE_ADDR, 1, &temp);
    30e0:	ae 01       	movw	r20, r28
    30e2:	4f 5f       	subi	r20, 0xFF	; 255
    30e4:	5f 4f       	sbci	r21, 0xFF	; 255
    30e6:	61 e0       	ldi	r22, 0x01	; 1
    30e8:	88 e6       	ldi	r24, 0x68	; 104
    30ea:	0e 94 19 1a 	call	0x3432	; 0x3432 <TWI0_Master_Read_Data>
	if(salida == I2C_ERROR){
    30ee:	81 30       	cpi	r24, 0x01	; 1
    30f0:	c1 f0       	breq	.+48     	; 0x3122 <RTC_Clockout_Source_Select+0x68>
		return salida;
	}

	/* Forzar a 1 os bits correspondientes */
	temp &= ~((1 << BIT_COF0) | (1 << BIT_COF1) |(1 <<BIT_COF2));
    30f2:	89 81       	ldd	r24, Y+1	; 0x01
    30f4:	28 2f       	mov	r18, r24
    30f6:	27 7c       	andi	r18, 0xC7	; 199
	temp |= ((clk_src & 0x07) << BIT_COF0);
    30f8:	17 70       	andi	r17, 0x07	; 7
    30fa:	81 2f       	mov	r24, r17
    30fc:	90 e0       	ldi	r25, 0x00	; 0
    30fe:	88 0f       	add	r24, r24
    3100:	99 1f       	adc	r25, r25
    3102:	88 0f       	add	r24, r24
    3104:	99 1f       	adc	r25, r25
    3106:	88 0f       	add	r24, r24
    3108:	99 1f       	adc	r25, r25
    310a:	82 2b       	or	r24, r18
    310c:	89 83       	std	Y+1, r24	; 0x01

	/* Cargar direccin del registro de configuracion */
	i2c_tx_buffer[0] = TMR_CLKOUT_CTRL_REG;
    310e:	ea e3       	ldi	r30, 0x3A	; 58
    3110:	f3 e0       	ldi	r31, 0x03	; 3
    3112:	9f e0       	ldi	r25, 0x0F	; 15
    3114:	90 83       	st	Z, r25
	/* Cargar el valor actualizado */
	i2c_tx_buffer[1] = temp;
    3116:	81 83       	std	Z+1, r24	; 0x01
	/* Transmitir los 2 bytes al RTC */
	salida = TWI0_Master_Write_Data(PCF8523_SLAVE_ADDR, 2, i2c_tx_buffer);
    3118:	af 01       	movw	r20, r30
    311a:	62 e0       	ldi	r22, 0x02	; 2
    311c:	88 e6       	ldi	r24, 0x68	; 104
    311e:	0e 94 ea 19 	call	0x33d4	; 0x33d4 <TWI0_Master_Write_Data>

	return salida;
}
    3122:	0f 90       	pop	r0
    3124:	df 91       	pop	r29
    3126:	cf 91       	pop	r28
    3128:	1f 91       	pop	r17
    312a:	08 95       	ret

0000312c <Timer0_Configurar>:
	TCCR2A |= (timer_param->OCA) << COM2A0;
	/* Configurar la salida por comparacin OC0B */
	TCCR2A |= (timer_param->OCB) << COM2B0;
	/* Habilitar las interrupciones que sean necesarias */
	TIMSK2 |= timer_param->interrupt_mask;
}
    312c:	fc 01       	movw	r30, r24
    312e:	14 bc       	out	0x24, r1	; 36
    3130:	15 bc       	out	0x25, r1	; 37
    3132:	ae e6       	ldi	r26, 0x6E	; 110
    3134:	b0 e0       	ldi	r27, 0x00	; 0
    3136:	1c 92       	st	X, r1
    3138:	80 81       	ld	r24, Z
    313a:	87 bd       	out	0x27, r24	; 39
    313c:	81 81       	ldd	r24, Z+1	; 0x01
    313e:	88 bd       	out	0x28, r24	; 40
    3140:	95 b5       	in	r25, 0x25	; 37
    3142:	82 81       	ldd	r24, Z+2	; 0x02
    3144:	87 70       	andi	r24, 0x07	; 7
    3146:	89 2b       	or	r24, r25
    3148:	85 bd       	out	0x25, r24	; 37
    314a:	25 b5       	in	r18, 0x25	; 37
    314c:	93 81       	ldd	r25, Z+3	; 0x03
    314e:	89 2f       	mov	r24, r25
    3150:	90 e0       	ldi	r25, 0x00	; 0
    3152:	88 0f       	add	r24, r24
    3154:	99 1f       	adc	r25, r25
    3156:	88 70       	andi	r24, 0x08	; 8
    3158:	82 2b       	or	r24, r18
    315a:	85 bd       	out	0x25, r24	; 37
    315c:	94 b5       	in	r25, 0x24	; 36
    315e:	83 81       	ldd	r24, Z+3	; 0x03
    3160:	83 70       	andi	r24, 0x03	; 3
    3162:	89 2b       	or	r24, r25
    3164:	84 bd       	out	0x24, r24	; 36
    3166:	24 b5       	in	r18, 0x24	; 36
    3168:	94 81       	ldd	r25, Z+4	; 0x04
    316a:	30 e4       	ldi	r19, 0x40	; 64
    316c:	93 9f       	mul	r25, r19
    316e:	c0 01       	movw	r24, r0
    3170:	11 24       	eor	r1, r1
    3172:	82 2b       	or	r24, r18
    3174:	84 bd       	out	0x24, r24	; 36
    3176:	24 b5       	in	r18, 0x24	; 36
    3178:	95 81       	ldd	r25, Z+5	; 0x05
    317a:	30 e1       	ldi	r19, 0x10	; 16
    317c:	93 9f       	mul	r25, r19
    317e:	c0 01       	movw	r24, r0
    3180:	11 24       	eor	r1, r1
    3182:	82 2b       	or	r24, r18
    3184:	84 bd       	out	0x24, r24	; 36
    3186:	9c 91       	ld	r25, X
    3188:	86 81       	ldd	r24, Z+6	; 0x06
    318a:	89 2b       	or	r24, r25
    318c:	8c 93       	st	X, r24
    318e:	08 95       	ret

00003190 <Timer1_Configurar>:
*               (la cual contiene los parmetros de configuracin) y configura
* 				el mdulo Timer1.
* Notas : Si se desea emplear el generador de seales con los pines OC1A,
* 		  OC1B u OC1C, antes es necesario configurar estos pines como salida.
*****************************************************************************/
void Timer1_Configurar(Timer_16b_t *timer_param){
    3190:	cf 93       	push	r28
    3192:	df 93       	push	r29
    3194:	fc 01       	movw	r30, r24

	/* Inicializar los registros de configuracin */
	TCCR1A = 0;
    3196:	60 e8       	ldi	r22, 0x80	; 128
    3198:	70 e0       	ldi	r23, 0x00	; 0
    319a:	db 01       	movw	r26, r22
    319c:	1c 92       	st	X, r1
	TCCR1B = 0;
    319e:	a1 e8       	ldi	r26, 0x81	; 129
    31a0:	b0 e0       	ldi	r27, 0x00	; 0
    31a2:	1c 92       	st	X, r1
	TIMSK1 = 0;
    31a4:	2f e6       	ldi	r18, 0x6F	; 111
    31a6:	30 e0       	ldi	r19, 0x00	; 0
    31a8:	e9 01       	movw	r28, r18
    31aa:	18 82       	st	Y, r1
    /* Cargar los valores de OCRA, OCRB, OCRC e ICR */
    OCR1A = timer_param->OCRA;
    31ac:	80 81       	ld	r24, Z
    31ae:	91 81       	ldd	r25, Z+1	; 0x01
    31b0:	90 93 89 00 	sts	0x0089, r25	; 0x800089 <__TEXT_REGION_LENGTH__+0x7f8089>
    31b4:	80 93 88 00 	sts	0x0088, r24	; 0x800088 <__TEXT_REGION_LENGTH__+0x7f8088>
    OCR1B = timer_param->OCRB;
    31b8:	82 81       	ldd	r24, Z+2	; 0x02
    31ba:	93 81       	ldd	r25, Z+3	; 0x03
    31bc:	90 93 8b 00 	sts	0x008B, r25	; 0x80008b <__TEXT_REGION_LENGTH__+0x7f808b>
    31c0:	80 93 8a 00 	sts	0x008A, r24	; 0x80008a <__TEXT_REGION_LENGTH__+0x7f808a>
    ICR1 =  timer_param->ICR;
    31c4:	84 81       	ldd	r24, Z+4	; 0x04
    31c6:	95 81       	ldd	r25, Z+5	; 0x05
    31c8:	90 93 87 00 	sts	0x0087, r25	; 0x800087 <__TEXT_REGION_LENGTH__+0x7f8087>
    31cc:	80 93 86 00 	sts	0x0086, r24	; 0x800086 <__TEXT_REGION_LENGTH__+0x7f8086>
	/* Configurar la fuente de reloj del temporizador */
	TCCR1B |= (timer_param->clock) & 0x07;
    31d0:	9c 91       	ld	r25, X
    31d2:	86 81       	ldd	r24, Z+6	; 0x06
    31d4:	87 70       	andi	r24, 0x07	; 7
    31d6:	89 2b       	or	r24, r25
    31d8:	8c 93       	st	X, r24
	/* Configurar el modo de operacin del temporizador */
	TCCR1B |= ((timer_param->mode) << 1) & ((1 << WGM12) | (1 << WGM13));
    31da:	4c 91       	ld	r20, X
    31dc:	97 81       	ldd	r25, Z+7	; 0x07
    31de:	89 2f       	mov	r24, r25
    31e0:	90 e0       	ldi	r25, 0x00	; 0
    31e2:	88 0f       	add	r24, r24
    31e4:	99 1f       	adc	r25, r25
    31e6:	88 71       	andi	r24, 0x18	; 24
    31e8:	84 2b       	or	r24, r20
    31ea:	8c 93       	st	X, r24
	TCCR1A |= (timer_param->mode) & 0x03;
    31ec:	eb 01       	movw	r28, r22
    31ee:	98 81       	ld	r25, Y
    31f0:	87 81       	ldd	r24, Z+7	; 0x07
    31f2:	83 70       	andi	r24, 0x03	; 3
    31f4:	89 2b       	or	r24, r25
    31f6:	88 83       	st	Y, r24
	/* Configurar las salida por comparacin OC0A */
	TCCR1A |= (timer_param->OCA) << COM1A0;
    31f8:	48 81       	ld	r20, Y
    31fa:	90 85       	ldd	r25, Z+8	; 0x08
    31fc:	d0 e4       	ldi	r29, 0x40	; 64
    31fe:	9d 9f       	mul	r25, r29
    3200:	c0 01       	movw	r24, r0
    3202:	11 24       	eor	r1, r1
    3204:	84 2b       	or	r24, r20
    3206:	eb 01       	movw	r28, r22
    3208:	88 83       	st	Y, r24
	/* Configurar la salida por comparacin OC0B */
	TCCR1A |= (timer_param->OCB) << COM1B0;
    320a:	48 81       	ld	r20, Y
    320c:	91 85       	ldd	r25, Z+9	; 0x09
    320e:	d0 e1       	ldi	r29, 0x10	; 16
    3210:	9d 9f       	mul	r25, r29
    3212:	c0 01       	movw	r24, r0
    3214:	11 24       	eor	r1, r1
    3216:	84 2b       	or	r24, r20
    3218:	eb 01       	movw	r28, r22
    321a:	88 83       	st	Y, r24
	/* Habilitar el cancelador de ruido de la entrada de captura */
	TCCR1B |= (timer_param->ic_noise_canceler) << ICNC1;
    321c:	4c 91       	ld	r20, X
    321e:	92 85       	ldd	r25, Z+10	; 0x0a
    3220:	d0 e8       	ldi	r29, 0x80	; 128
    3222:	9d 9f       	mul	r25, r29
    3224:	c0 01       	movw	r24, r0
    3226:	11 24       	eor	r1, r1
    3228:	84 2b       	or	r24, r20
    322a:	8c 93       	st	X, r24
	/* Configurar selector de flancos de la entrada de captura */
	TCCR1B |= (timer_param->ic_edge_selector) << ICES1;
    322c:	4c 91       	ld	r20, X
    322e:	93 85       	ldd	r25, Z+11	; 0x0b
    3230:	50 e4       	ldi	r21, 0x40	; 64
    3232:	95 9f       	mul	r25, r21
    3234:	c0 01       	movw	r24, r0
    3236:	11 24       	eor	r1, r1
    3238:	84 2b       	or	r24, r20
    323a:	8c 93       	st	X, r24
	/* Habilitar las interrupciones que sean necesarias */
	TIMSK1 |= timer_param->interrupt_mask;
    323c:	d9 01       	movw	r26, r18
    323e:	9c 91       	ld	r25, X
    3240:	84 85       	ldd	r24, Z+12	; 0x0c
    3242:	89 2b       	or	r24, r25
    3244:	8c 93       	st	X, r24
}
    3246:	df 91       	pop	r29
    3248:	cf 91       	pop	r28
    324a:	08 95       	ret

0000324c <TWI0_Configurar>:

	TWI1_Master_Stop_Condition();

	return salida;

}
    324c:	cf 93       	push	r28
    324e:	df 93       	push	r29
    3250:	fc 01       	movw	r30, r24
    3252:	28 eb       	ldi	r18, 0xB8	; 184
    3254:	30 e0       	ldi	r19, 0x00	; 0
    3256:	d9 01       	movw	r26, r18
    3258:	1c 92       	st	X, r1
    325a:	89 eb       	ldi	r24, 0xB9	; 185
    325c:	90 e0       	ldi	r25, 0x00	; 0
    325e:	dc 01       	movw	r26, r24
    3260:	1c 92       	st	X, r1
    3262:	ca eb       	ldi	r28, 0xBA	; 186
    3264:	d0 e0       	ldi	r29, 0x00	; 0
    3266:	18 82       	st	Y, r1
    3268:	6d eb       	ldi	r22, 0xBD	; 189
    326a:	70 e0       	ldi	r23, 0x00	; 0
    326c:	db 01       	movw	r26, r22
    326e:	1c 92       	st	X, r1
    3270:	40 81       	ld	r20, Z
    3272:	d9 01       	movw	r26, r18
    3274:	4c 93       	st	X, r20
    3276:	dc 01       	movw	r26, r24
    3278:	3c 91       	ld	r19, X
    327a:	23 81       	ldd	r18, Z+3	; 0x03
    327c:	23 70       	andi	r18, 0x03	; 3
    327e:	23 2b       	or	r18, r19
    3280:	2c 93       	st	X, r18
    3282:	88 81       	ld	r24, Y
    3284:	92 81       	ldd	r25, Z+2	; 0x02
    3286:	29 2f       	mov	r18, r25
    3288:	30 e0       	ldi	r19, 0x00	; 0
    328a:	22 0f       	add	r18, r18
    328c:	33 1f       	adc	r19, r19
    328e:	28 2b       	or	r18, r24
    3290:	28 83       	st	Y, r18
    3292:	db 01       	movw	r26, r22
    3294:	2c 91       	ld	r18, X
    3296:	91 81       	ldd	r25, Z+1	; 0x01
    3298:	89 2f       	mov	r24, r25
    329a:	90 e0       	ldi	r25, 0x00	; 0
    329c:	88 0f       	add	r24, r24
    329e:	99 1f       	adc	r25, r25
    32a0:	82 2b       	or	r24, r18
    32a2:	8c 93       	st	X, r24
    32a4:	e4 e6       	ldi	r30, 0x64	; 100
    32a6:	f0 e0       	ldi	r31, 0x00	; 0
    32a8:	80 81       	ld	r24, Z
    32aa:	8f 77       	andi	r24, 0x7F	; 127
    32ac:	80 83       	st	Z, r24
    32ae:	df 91       	pop	r29
    32b0:	cf 91       	pop	r28
    32b2:	08 95       	ret

000032b4 <TWI0_Master_Start_Condition>:
    32b4:	84 ea       	ldi	r24, 0xA4	; 164
    32b6:	80 93 bc 00 	sts	0x00BC, r24	; 0x8000bc <__TEXT_REGION_LENGTH__+0x7f80bc>
    32ba:	80 91 bc 00 	lds	r24, 0x00BC	; 0x8000bc <__TEXT_REGION_LENGTH__+0x7f80bc>
    32be:	88 23       	and	r24, r24
    32c0:	e4 f7       	brge	.-8      	; 0x32ba <TWI0_Master_Start_Condition+0x6>
    32c2:	80 91 b9 00 	lds	r24, 0x00B9	; 0x8000b9 <__TEXT_REGION_LENGTH__+0x7f80b9>
    32c6:	88 7f       	andi	r24, 0xF8	; 248
    32c8:	88 30       	cpi	r24, 0x08	; 8
    32ca:	39 f0       	breq	.+14     	; 0x32da <TWI0_Master_Start_Condition+0x26>
    32cc:	80 91 b9 00 	lds	r24, 0x00B9	; 0x8000b9 <__TEXT_REGION_LENGTH__+0x7f80b9>
    32d0:	88 7f       	andi	r24, 0xF8	; 248
    32d2:	80 93 58 03 	sts	0x0358, r24	; 0x800358 <i2c_status>
    32d6:	81 e0       	ldi	r24, 0x01	; 1
    32d8:	08 95       	ret
    32da:	80 e0       	ldi	r24, 0x00	; 0
    32dc:	08 95       	ret

000032de <TWI0_Master_Tx_Address>:
    32de:	61 30       	cpi	r22, 0x01	; 1
    32e0:	39 f4       	brne	.+14     	; 0x32f0 <TWI0_Master_Tx_Address+0x12>
    32e2:	90 e0       	ldi	r25, 0x00	; 0
    32e4:	88 0f       	add	r24, r24
    32e6:	99 1f       	adc	r25, r25
    32e8:	81 60       	ori	r24, 0x01	; 1
    32ea:	80 93 bb 00 	sts	0x00BB, r24	; 0x8000bb <__TEXT_REGION_LENGTH__+0x7f80bb>
    32ee:	05 c0       	rjmp	.+10     	; 0x32fa <TWI0_Master_Tx_Address+0x1c>
    32f0:	90 e0       	ldi	r25, 0x00	; 0
    32f2:	88 0f       	add	r24, r24
    32f4:	99 1f       	adc	r25, r25
    32f6:	80 93 bb 00 	sts	0x00BB, r24	; 0x8000bb <__TEXT_REGION_LENGTH__+0x7f80bb>
    32fa:	84 e8       	ldi	r24, 0x84	; 132
    32fc:	80 93 bc 00 	sts	0x00BC, r24	; 0x8000bc <__TEXT_REGION_LENGTH__+0x7f80bc>
    3300:	80 91 bc 00 	lds	r24, 0x00BC	; 0x8000bc <__TEXT_REGION_LENGTH__+0x7f80bc>
    3304:	88 23       	and	r24, r24
    3306:	e4 f7       	brge	.-8      	; 0x3300 <TWI0_Master_Tx_Address+0x22>
    3308:	61 30       	cpi	r22, 0x01	; 1
    330a:	61 f4       	brne	.+24     	; 0x3324 <TWI0_Master_Tx_Address+0x46>
    330c:	80 91 b9 00 	lds	r24, 0x00B9	; 0x8000b9 <__TEXT_REGION_LENGTH__+0x7f80b9>
    3310:	88 7f       	andi	r24, 0xF8	; 248
    3312:	80 34       	cpi	r24, 0x40	; 64
    3314:	71 f0       	breq	.+28     	; 0x3332 <TWI0_Master_Tx_Address+0x54>
    3316:	80 91 b9 00 	lds	r24, 0x00B9	; 0x8000b9 <__TEXT_REGION_LENGTH__+0x7f80b9>
    331a:	88 7f       	andi	r24, 0xF8	; 248
    331c:	80 93 58 03 	sts	0x0358, r24	; 0x800358 <i2c_status>
    3320:	81 e0       	ldi	r24, 0x01	; 1
    3322:	08 95       	ret
    3324:	80 91 b9 00 	lds	r24, 0x00B9	; 0x8000b9 <__TEXT_REGION_LENGTH__+0x7f80b9>
    3328:	88 7f       	andi	r24, 0xF8	; 248
    332a:	88 31       	cpi	r24, 0x18	; 24
    332c:	21 f4       	brne	.+8      	; 0x3336 <TWI0_Master_Tx_Address+0x58>
    332e:	80 e0       	ldi	r24, 0x00	; 0
    3330:	08 95       	ret
    3332:	80 e0       	ldi	r24, 0x00	; 0
    3334:	08 95       	ret
    3336:	81 e0       	ldi	r24, 0x01	; 1
    3338:	08 95       	ret

0000333a <TWI0_Master_Tx_Byte>:
    333a:	80 93 bb 00 	sts	0x00BB, r24	; 0x8000bb <__TEXT_REGION_LENGTH__+0x7f80bb>
    333e:	84 e8       	ldi	r24, 0x84	; 132
    3340:	80 93 bc 00 	sts	0x00BC, r24	; 0x8000bc <__TEXT_REGION_LENGTH__+0x7f80bc>
    3344:	80 91 bc 00 	lds	r24, 0x00BC	; 0x8000bc <__TEXT_REGION_LENGTH__+0x7f80bc>
    3348:	88 23       	and	r24, r24
    334a:	e4 f7       	brge	.-8      	; 0x3344 <TWI0_Master_Tx_Byte+0xa>
    334c:	80 91 b9 00 	lds	r24, 0x00B9	; 0x8000b9 <__TEXT_REGION_LENGTH__+0x7f80b9>
    3350:	88 7f       	andi	r24, 0xF8	; 248
    3352:	88 32       	cpi	r24, 0x28	; 40
    3354:	39 f0       	breq	.+14     	; 0x3364 <TWI0_Master_Tx_Byte+0x2a>
    3356:	80 91 b9 00 	lds	r24, 0x00B9	; 0x8000b9 <__TEXT_REGION_LENGTH__+0x7f80b9>
    335a:	88 7f       	andi	r24, 0xF8	; 248
    335c:	80 93 58 03 	sts	0x0358, r24	; 0x800358 <i2c_status>
    3360:	81 e0       	ldi	r24, 0x01	; 1
    3362:	08 95       	ret
    3364:	80 e0       	ldi	r24, 0x00	; 0
    3366:	08 95       	ret

00003368 <TWI0_Master_Rx_Byte_ACK>:
    3368:	fc 01       	movw	r30, r24
    336a:	84 ec       	ldi	r24, 0xC4	; 196
    336c:	80 93 bc 00 	sts	0x00BC, r24	; 0x8000bc <__TEXT_REGION_LENGTH__+0x7f80bc>
    3370:	90 91 bc 00 	lds	r25, 0x00BC	; 0x8000bc <__TEXT_REGION_LENGTH__+0x7f80bc>
    3374:	99 23       	and	r25, r25
    3376:	e4 f7       	brge	.-8      	; 0x3370 <TWI0_Master_Rx_Byte_ACK+0x8>
    3378:	90 91 b9 00 	lds	r25, 0x00B9	; 0x8000b9 <__TEXT_REGION_LENGTH__+0x7f80b9>
    337c:	98 7f       	andi	r25, 0xF8	; 248
    337e:	90 35       	cpi	r25, 0x50	; 80
    3380:	39 f0       	breq	.+14     	; 0x3390 <TWI0_Master_Rx_Byte_ACK+0x28>
    3382:	90 91 b9 00 	lds	r25, 0x00B9	; 0x8000b9 <__TEXT_REGION_LENGTH__+0x7f80b9>
    3386:	98 7f       	andi	r25, 0xF8	; 248
    3388:	90 93 58 03 	sts	0x0358, r25	; 0x800358 <i2c_status>
    338c:	81 e0       	ldi	r24, 0x01	; 1
    338e:	01 c0       	rjmp	.+2      	; 0x3392 <TWI0_Master_Rx_Byte_ACK+0x2a>
    3390:	80 e0       	ldi	r24, 0x00	; 0
    3392:	90 91 bb 00 	lds	r25, 0x00BB	; 0x8000bb <__TEXT_REGION_LENGTH__+0x7f80bb>
    3396:	90 83       	st	Z, r25
    3398:	08 95       	ret

0000339a <TWI0_Master_Rx_Byte_NACK>:
    339a:	fc 01       	movw	r30, r24
    339c:	84 e8       	ldi	r24, 0x84	; 132
    339e:	80 93 bc 00 	sts	0x00BC, r24	; 0x8000bc <__TEXT_REGION_LENGTH__+0x7f80bc>
    33a2:	90 91 bc 00 	lds	r25, 0x00BC	; 0x8000bc <__TEXT_REGION_LENGTH__+0x7f80bc>
    33a6:	99 23       	and	r25, r25
    33a8:	e4 f7       	brge	.-8      	; 0x33a2 <TWI0_Master_Rx_Byte_NACK+0x8>
    33aa:	90 91 b9 00 	lds	r25, 0x00B9	; 0x8000b9 <__TEXT_REGION_LENGTH__+0x7f80b9>
    33ae:	98 7f       	andi	r25, 0xF8	; 248
    33b0:	98 35       	cpi	r25, 0x58	; 88
    33b2:	39 f0       	breq	.+14     	; 0x33c2 <TWI0_Master_Rx_Byte_NACK+0x28>
    33b4:	90 91 b9 00 	lds	r25, 0x00B9	; 0x8000b9 <__TEXT_REGION_LENGTH__+0x7f80b9>
    33b8:	98 7f       	andi	r25, 0xF8	; 248
    33ba:	90 93 58 03 	sts	0x0358, r25	; 0x800358 <i2c_status>
    33be:	81 e0       	ldi	r24, 0x01	; 1
    33c0:	01 c0       	rjmp	.+2      	; 0x33c4 <TWI0_Master_Rx_Byte_NACK+0x2a>
    33c2:	80 e0       	ldi	r24, 0x00	; 0
    33c4:	90 91 bb 00 	lds	r25, 0x00BB	; 0x8000bb <__TEXT_REGION_LENGTH__+0x7f80bb>
    33c8:	90 83       	st	Z, r25
    33ca:	08 95       	ret

000033cc <TWI0_Master_Stop_Condition>:
    33cc:	84 e9       	ldi	r24, 0x94	; 148
    33ce:	80 93 bc 00 	sts	0x00BC, r24	; 0x8000bc <__TEXT_REGION_LENGTH__+0x7f80bc>
    33d2:	08 95       	ret

000033d4 <TWI0_Master_Write_Data>:
    33d4:	ef 92       	push	r14
    33d6:	ff 92       	push	r15
    33d8:	1f 93       	push	r17
    33da:	cf 93       	push	r28
    33dc:	df 93       	push	r29
    33de:	c8 2f       	mov	r28, r24
    33e0:	16 2f       	mov	r17, r22
    33e2:	7a 01       	movw	r14, r20
    33e4:	0e 94 5a 19 	call	0x32b4	; 0x32b4 <TWI0_Master_Start_Condition>
    33e8:	81 30       	cpi	r24, 0x01	; 1
    33ea:	e9 f0       	breq	.+58     	; 0x3426 <TWI0_Master_Write_Data+0x52>
    33ec:	60 e0       	ldi	r22, 0x00	; 0
    33ee:	8c 2f       	mov	r24, r28
    33f0:	0e 94 6f 19 	call	0x32de	; 0x32de <TWI0_Master_Tx_Address>
    33f4:	d8 2f       	mov	r29, r24
    33f6:	81 30       	cpi	r24, 0x01	; 1
    33f8:	a1 f0       	breq	.+40     	; 0x3422 <TWI0_Master_Write_Data+0x4e>
    33fa:	c0 e0       	ldi	r28, 0x00	; 0
    33fc:	0a c0       	rjmp	.+20     	; 0x3412 <TWI0_Master_Write_Data+0x3e>
    33fe:	f7 01       	movw	r30, r14
    3400:	ec 0f       	add	r30, r28
    3402:	f1 1d       	adc	r31, r1
    3404:	80 81       	ld	r24, Z
    3406:	0e 94 9d 19 	call	0x333a	; 0x333a <TWI0_Master_Tx_Byte>
    340a:	d8 2f       	mov	r29, r24
    340c:	81 30       	cpi	r24, 0x01	; 1
    340e:	19 f0       	breq	.+6      	; 0x3416 <TWI0_Master_Write_Data+0x42>
    3410:	cf 5f       	subi	r28, 0xFF	; 255
    3412:	c1 17       	cp	r28, r17
    3414:	a0 f3       	brcs	.-24     	; 0x33fe <TWI0_Master_Write_Data+0x2a>
    3416:	d1 30       	cpi	r29, 0x01	; 1
    3418:	29 f0       	breq	.+10     	; 0x3424 <TWI0_Master_Write_Data+0x50>
    341a:	0e 94 e6 19 	call	0x33cc	; 0x33cc <TWI0_Master_Stop_Condition>
    341e:	8d 2f       	mov	r24, r29
    3420:	02 c0       	rjmp	.+4      	; 0x3426 <TWI0_Master_Write_Data+0x52>
    3422:	01 c0       	rjmp	.+2      	; 0x3426 <TWI0_Master_Write_Data+0x52>
    3424:	8d 2f       	mov	r24, r29
    3426:	df 91       	pop	r29
    3428:	cf 91       	pop	r28
    342a:	1f 91       	pop	r17
    342c:	ff 90       	pop	r15
    342e:	ef 90       	pop	r14
    3430:	08 95       	ret

00003432 <TWI0_Master_Read_Data>:
* 				en forma de tramas de datos.
* Notas : Los 'n' bytes que sern recibidos se almacenarn en el arreglo
*  		  input_buffer. Puede aprovechar el arreglo i2c_tx_buffer y pasarlo
*  		  como parmetro input_buffer.
*****************************************************************************/
uint8_t TWI0_Master_Read_Data(uint8_t slave_addr, uint8_t n_bytes, uint8_t *input_buffer){
    3432:	ff 92       	push	r15
    3434:	0f 93       	push	r16
    3436:	1f 93       	push	r17
    3438:	cf 93       	push	r28
    343a:	df 93       	push	r29
    343c:	c8 2f       	mov	r28, r24
    343e:	f6 2e       	mov	r15, r22
    3440:	8a 01       	movw	r16, r20

	uint8_t salida = I2C_OK;
	uint8_t index;

	/* Generar la condicin de start */
	salida = TWI0_Master_Start_Condition();
    3442:	0e 94 5a 19 	call	0x32b4	; 0x32b4 <TWI0_Master_Start_Condition>
	if(salida == I2C_ERROR){
    3446:	81 30       	cpi	r24, 0x01	; 1
    3448:	59 f1       	breq	.+86     	; 0x34a0 <TWI0_Master_Read_Data+0x6e>
		return salida;
	}
	
	/* Transmitir direccin del esclavo y modo (lectura) */
	salida = TWI0_Master_Tx_Address(slave_addr, TWI_Addr_Read_Mode);
    344a:	61 e0       	ldi	r22, 0x01	; 1
    344c:	8c 2f       	mov	r24, r28
    344e:	0e 94 6f 19 	call	0x32de	; 0x32de <TWI0_Master_Tx_Address>
    3452:	d8 2f       	mov	r29, r24
	if(salida == I2C_ERROR){
    3454:	81 30       	cpi	r24, 0x01	; 1
    3456:	11 f1       	breq	.+68     	; 0x349c <TWI0_Master_Read_Data+0x6a>
    3458:	c0 e0       	ldi	r28, 0x00	; 0
    345a:	18 c0       	rjmp	.+48     	; 0x348c <TWI0_Master_Read_Data+0x5a>
	}

	/* Transmitir los datos */
	for(index = 0; index < n_bytes; index++){

		if(index < (n_bytes - 1)){
    345c:	2c 2f       	mov	r18, r28
    345e:	30 e0       	ldi	r19, 0x00	; 0
    3460:	8f 2d       	mov	r24, r15
    3462:	90 e0       	ldi	r25, 0x00	; 0
    3464:	01 97       	sbiw	r24, 0x01	; 1
    3466:	28 17       	cp	r18, r24
    3468:	39 07       	cpc	r19, r25
    346a:	3c f4       	brge	.+14     	; 0x347a <TWI0_Master_Read_Data+0x48>
			salida = TWI0_Master_Rx_Byte_ACK(input_buffer + index);
    346c:	c8 01       	movw	r24, r16
    346e:	8c 0f       	add	r24, r28
    3470:	91 1d       	adc	r25, r1
    3472:	0e 94 b4 19 	call	0x3368	; 0x3368 <TWI0_Master_Rx_Byte_ACK>
    3476:	d8 2f       	mov	r29, r24
    3478:	06 c0       	rjmp	.+12     	; 0x3486 <TWI0_Master_Read_Data+0x54>
		}else{
			salida = TWI0_Master_Rx_Byte_NACK(input_buffer + index);
    347a:	c8 01       	movw	r24, r16
    347c:	8c 0f       	add	r24, r28
    347e:	91 1d       	adc	r25, r1
    3480:	0e 94 cd 19 	call	0x339a	; 0x339a <TWI0_Master_Rx_Byte_NACK>
    3484:	d8 2f       	mov	r29, r24
		}

		if(salida == I2C_ERROR){
    3486:	d1 30       	cpi	r29, 0x01	; 1
    3488:	19 f0       	breq	.+6      	; 0x3490 <TWI0_Master_Read_Data+0x5e>
	if(salida == I2C_ERROR){
		return salida;
	}

	/* Transmitir los datos */
	for(index = 0; index < n_bytes; index++){
    348a:	cf 5f       	subi	r28, 0xFF	; 255
    348c:	cf 15       	cp	r28, r15
    348e:	30 f3       	brcs	.-52     	; 0x345c <TWI0_Master_Read_Data+0x2a>
		if(salida == I2C_ERROR){
			break;
		}
	}
	
	if(salida == I2C_ERROR){
    3490:	d1 30       	cpi	r29, 0x01	; 1
    3492:	29 f0       	breq	.+10     	; 0x349e <TWI0_Master_Read_Data+0x6c>
		return salida;
	}

	TWI0_Master_Stop_Condition();
    3494:	0e 94 e6 19 	call	0x33cc	; 0x33cc <TWI0_Master_Stop_Condition>

	return salida;
    3498:	8d 2f       	mov	r24, r29
    349a:	02 c0       	rjmp	.+4      	; 0x34a0 <TWI0_Master_Read_Data+0x6e>
    349c:	01 c0       	rjmp	.+2      	; 0x34a0 <TWI0_Master_Read_Data+0x6e>
			break;
		}
	}
	
	if(salida == I2C_ERROR){
		return salida;
    349e:	8d 2f       	mov	r24, r29

	TWI0_Master_Stop_Condition();

	return salida;

}
    34a0:	df 91       	pop	r29
    34a2:	cf 91       	pop	r28
    34a4:	1f 91       	pop	r17
    34a6:	0f 91       	pop	r16
    34a8:	ff 90       	pop	r15
    34aa:	08 95       	ret

000034ac <UART0_Configurar>:
* Notas : La funcionalidad de la velocidad doble (modo 2X) no se habilita
* 		  en esta funcin, sino que debe definirse en el archivo cabecera
* 		  (#define MODOn_2X). Esta funcin solo sirve para configurar el
* 		  USARTn para trabajar en modo asncrono (como UART).
*****************************************************************************/
void UART0_Configurar(UART_t *uart_param){
    34ac:	cf 93       	push	r28
    34ae:	df 93       	push	r29
    34b0:	ec 01       	movw	r28, r24

	uint32_t my_ubrr;

	/* Inicializar los registros de configuracin */
	UCSR0A = 0;
    34b2:	10 92 c0 00 	sts	0x00C0, r1	; 0x8000c0 <__TEXT_REGION_LENGTH__+0x7f80c0>
	UCSR0B = 0;
    34b6:	10 92 c1 00 	sts	0x00C1, r1	; 0x8000c1 <__TEXT_REGION_LENGTH__+0x7f80c1>
	UCSR0C = 0;
    34ba:	e2 ec       	ldi	r30, 0xC2	; 194
    34bc:	f0 e0       	ldi	r31, 0x00	; 0
    34be:	10 82       	st	Z, r1

	/* Operacin del USART en Modo Asncrono (UART) */
	UCSR0C &= ~((1 << UMSEL01) | (1 << UMSEL00));
    34c0:	80 81       	ld	r24, Z
    34c2:	8f 73       	andi	r24, 0x3F	; 63
    34c4:	80 83       	st	Z, r24

	if(uart_param->u2x){
    34c6:	88 81       	ld	r24, Y
    34c8:	88 23       	and	r24, r24
    34ca:	b1 f0       	breq	.+44     	; 0x34f8 <UART0_Configurar+0x4c>
		/* Calcular el valor de UBRR */
		my_ubrr = ((F_OSC / 8) / uart_param->baud_rate) - 1;
    34cc:	29 81       	ldd	r18, Y+1	; 0x01
    34ce:	3a 81       	ldd	r19, Y+2	; 0x02
    34d0:	4b 81       	ldd	r20, Y+3	; 0x03
    34d2:	5c 81       	ldd	r21, Y+4	; 0x04
    34d4:	60 e2       	ldi	r22, 0x20	; 32
    34d6:	71 ea       	ldi	r23, 0xA1	; 161
    34d8:	87 e0       	ldi	r24, 0x07	; 7
    34da:	90 e0       	ldi	r25, 0x00	; 0
    34dc:	0e 94 c2 21 	call	0x4384	; 0x4384 <__udivmodsi4>
    34e0:	ba 01       	movw	r22, r20
    34e2:	a9 01       	movw	r20, r18
    34e4:	41 50       	subi	r20, 0x01	; 1
    34e6:	51 09       	sbc	r21, r1
    34e8:	61 09       	sbc	r22, r1
    34ea:	71 09       	sbc	r23, r1
		/* Habilitar el modo rpido 2X */
		UCSR0A |= (1 << U2X0);
    34ec:	e0 ec       	ldi	r30, 0xC0	; 192
    34ee:	f0 e0       	ldi	r31, 0x00	; 0
    34f0:	80 81       	ld	r24, Z
    34f2:	82 60       	ori	r24, 0x02	; 2
    34f4:	80 83       	st	Z, r24
    34f6:	15 c0       	rjmp	.+42     	; 0x3522 <UART0_Configurar+0x76>
	}else{
		/* Calcular el valor de UBRR */
		my_ubrr = ((F_OSC / 16) / uart_param->baud_rate) - 1;
    34f8:	29 81       	ldd	r18, Y+1	; 0x01
    34fa:	3a 81       	ldd	r19, Y+2	; 0x02
    34fc:	4b 81       	ldd	r20, Y+3	; 0x03
    34fe:	5c 81       	ldd	r21, Y+4	; 0x04
    3500:	60 e9       	ldi	r22, 0x90	; 144
    3502:	70 ed       	ldi	r23, 0xD0	; 208
    3504:	83 e0       	ldi	r24, 0x03	; 3
    3506:	90 e0       	ldi	r25, 0x00	; 0
    3508:	0e 94 c2 21 	call	0x4384	; 0x4384 <__udivmodsi4>
    350c:	ba 01       	movw	r22, r20
    350e:	a9 01       	movw	r20, r18
    3510:	41 50       	subi	r20, 0x01	; 1
    3512:	51 09       	sbc	r21, r1
    3514:	61 09       	sbc	r22, r1
    3516:	71 09       	sbc	r23, r1
		/* Deshabilitar el modo rpido 2X */
		UCSR0A &= ~(1 << U2X0);
    3518:	e0 ec       	ldi	r30, 0xC0	; 192
    351a:	f0 e0       	ldi	r31, 0x00	; 0
    351c:	80 81       	ld	r24, Z
    351e:	8d 7f       	andi	r24, 0xFD	; 253
    3520:	80 83       	st	Z, r24
	}

	/* Configurar la tasa de transferencia de bits */
	UBRR0 = (uint16_t) my_ubrr;
    3522:	50 93 c5 00 	sts	0x00C5, r21	; 0x8000c5 <__TEXT_REGION_LENGTH__+0x7f80c5>
    3526:	40 93 c4 00 	sts	0x00C4, r20	; 0x8000c4 <__TEXT_REGION_LENGTH__+0x7f80c4>

	/* Configurar el tamao del frame (bits de datos) */
	UCSR0C |= ((uart_param->data_bits & 0x03) << UCSZ00);
    352a:	a2 ec       	ldi	r26, 0xC2	; 194
    352c:	b0 e0       	ldi	r27, 0x00	; 0
    352e:	2c 91       	ld	r18, X
    3530:	9f 81       	ldd	r25, Y+7	; 0x07
    3532:	93 70       	andi	r25, 0x03	; 3
    3534:	89 2f       	mov	r24, r25
    3536:	90 e0       	ldi	r25, 0x00	; 0
    3538:	88 0f       	add	r24, r24
    353a:	99 1f       	adc	r25, r25
    353c:	82 2b       	or	r24, r18
    353e:	8c 93       	st	X, r24
	UCSR0B |= (uart_param->data_bits >> 2);
    3540:	e1 ec       	ldi	r30, 0xC1	; 193
    3542:	f0 e0       	ldi	r31, 0x00	; 0
    3544:	90 81       	ld	r25, Z
    3546:	8f 81       	ldd	r24, Y+7	; 0x07
    3548:	86 95       	lsr	r24
    354a:	86 95       	lsr	r24
    354c:	89 2b       	or	r24, r25
    354e:	80 83       	st	Z, r24
	/* Configurar la cantidad de bits de parada */
	UCSR0C |= (uart_param->stop_bits << USBS0);
    3550:	2c 91       	ld	r18, X
    3552:	98 85       	ldd	r25, Y+8	; 0x08
    3554:	89 2f       	mov	r24, r25
    3556:	90 e0       	ldi	r25, 0x00	; 0
    3558:	88 0f       	add	r24, r24
    355a:	99 1f       	adc	r25, r25
    355c:	88 0f       	add	r24, r24
    355e:	99 1f       	adc	r25, r25
    3560:	88 0f       	add	r24, r24
    3562:	99 1f       	adc	r25, r25
    3564:	82 2b       	or	r24, r18
    3566:	8c 93       	st	X, r24
	/* Configurar los bits de paridad */
	UCSR0C |= (uart_param->parity_mode << UPM00);
    3568:	2c 91       	ld	r18, X
    356a:	99 85       	ldd	r25, Y+9	; 0x09
    356c:	30 e1       	ldi	r19, 0x10	; 16
    356e:	93 9f       	mul	r25, r19
    3570:	c0 01       	movw	r24, r0
    3572:	11 24       	eor	r1, r1
    3574:	82 2b       	or	r24, r18
    3576:	8c 93       	st	X, r24
	/* Habilitar/deshabilitar el transmisor del USART */
	UCSR0B |= (uart_param->tx_status << TXEN0);
    3578:	20 81       	ld	r18, Z
    357a:	9d 81       	ldd	r25, Y+5	; 0x05
    357c:	89 2f       	mov	r24, r25
    357e:	90 e0       	ldi	r25, 0x00	; 0
    3580:	88 0f       	add	r24, r24
    3582:	99 1f       	adc	r25, r25
    3584:	88 0f       	add	r24, r24
    3586:	99 1f       	adc	r25, r25
    3588:	88 0f       	add	r24, r24
    358a:	99 1f       	adc	r25, r25
    358c:	82 2b       	or	r24, r18
    358e:	80 83       	st	Z, r24
	/* Habilitar/deshabilitar el receptor del USART */
	UCSR0B |= (uart_param->rx_status << RXEN0);
    3590:	20 81       	ld	r18, Z
    3592:	9e 81       	ldd	r25, Y+6	; 0x06
    3594:	30 e1       	ldi	r19, 0x10	; 16
    3596:	93 9f       	mul	r25, r19
    3598:	c0 01       	movw	r24, r0
    359a:	11 24       	eor	r1, r1
    359c:	82 2b       	or	r24, r18
    359e:	80 83       	st	Z, r24
	/* Habilitar las interrupciones */
	UCSR0B |= uart_param->interrupt_mask;
    35a0:	90 81       	ld	r25, Z
    35a2:	8a 85       	ldd	r24, Y+10	; 0x0a
    35a4:	89 2b       	or	r24, r25
    35a6:	80 83       	st	Z, r24
}
    35a8:	df 91       	pop	r29
    35aa:	cf 91       	pop	r28
    35ac:	08 95       	ret

000035ae <UART1_Configurar>:


void UART1_Configurar(UART_t *uart_param){
    35ae:	cf 93       	push	r28
    35b0:	df 93       	push	r29
    35b2:	ec 01       	movw	r28, r24

	uint32_t my_ubrr;

	/* Inicializar los registros de configuracin */
	UCSR1A = 0;
    35b4:	10 92 c8 00 	sts	0x00C8, r1	; 0x8000c8 <__TEXT_REGION_LENGTH__+0x7f80c8>
	UCSR1B = 0;
    35b8:	10 92 c9 00 	sts	0x00C9, r1	; 0x8000c9 <__TEXT_REGION_LENGTH__+0x7f80c9>
	UCSR1C = 0;
    35bc:	ea ec       	ldi	r30, 0xCA	; 202
    35be:	f0 e0       	ldi	r31, 0x00	; 0
    35c0:	10 82       	st	Z, r1

	/* Operacin del USART en Modo Asncrono (UART) */
	UCSR1C &= ~((1 << UMSEL11) | (1 << UMSEL10));
    35c2:	80 81       	ld	r24, Z
    35c4:	8f 73       	andi	r24, 0x3F	; 63
    35c6:	80 83       	st	Z, r24

	if(uart_param->u2x){
    35c8:	88 81       	ld	r24, Y
    35ca:	88 23       	and	r24, r24
    35cc:	b1 f0       	breq	.+44     	; 0x35fa <UART1_Configurar+0x4c>
		/* Calcular el valor de UBRR */
		my_ubrr = ((F_OSC / 8) / uart_param->baud_rate) - 1;
    35ce:	29 81       	ldd	r18, Y+1	; 0x01
    35d0:	3a 81       	ldd	r19, Y+2	; 0x02
    35d2:	4b 81       	ldd	r20, Y+3	; 0x03
    35d4:	5c 81       	ldd	r21, Y+4	; 0x04
    35d6:	60 e2       	ldi	r22, 0x20	; 32
    35d8:	71 ea       	ldi	r23, 0xA1	; 161
    35da:	87 e0       	ldi	r24, 0x07	; 7
    35dc:	90 e0       	ldi	r25, 0x00	; 0
    35de:	0e 94 c2 21 	call	0x4384	; 0x4384 <__udivmodsi4>
    35e2:	ba 01       	movw	r22, r20
    35e4:	a9 01       	movw	r20, r18
    35e6:	41 50       	subi	r20, 0x01	; 1
    35e8:	51 09       	sbc	r21, r1
    35ea:	61 09       	sbc	r22, r1
    35ec:	71 09       	sbc	r23, r1
		/* Habilitar el modo rpido 2X */
		UCSR1A |= (1 << U2X1);
    35ee:	e8 ec       	ldi	r30, 0xC8	; 200
    35f0:	f0 e0       	ldi	r31, 0x00	; 0
    35f2:	80 81       	ld	r24, Z
    35f4:	82 60       	ori	r24, 0x02	; 2
    35f6:	80 83       	st	Z, r24
    35f8:	15 c0       	rjmp	.+42     	; 0x3624 <UART1_Configurar+0x76>
		}else{
		/* Calcular el valor de UBRR */
		my_ubrr = ((F_OSC / 16) / uart_param->baud_rate) - 1;
    35fa:	29 81       	ldd	r18, Y+1	; 0x01
    35fc:	3a 81       	ldd	r19, Y+2	; 0x02
    35fe:	4b 81       	ldd	r20, Y+3	; 0x03
    3600:	5c 81       	ldd	r21, Y+4	; 0x04
    3602:	60 e9       	ldi	r22, 0x90	; 144
    3604:	70 ed       	ldi	r23, 0xD0	; 208
    3606:	83 e0       	ldi	r24, 0x03	; 3
    3608:	90 e0       	ldi	r25, 0x00	; 0
    360a:	0e 94 c2 21 	call	0x4384	; 0x4384 <__udivmodsi4>
    360e:	ba 01       	movw	r22, r20
    3610:	a9 01       	movw	r20, r18
    3612:	41 50       	subi	r20, 0x01	; 1
    3614:	51 09       	sbc	r21, r1
    3616:	61 09       	sbc	r22, r1
    3618:	71 09       	sbc	r23, r1
		/* Deshabilitar el modo rpido 2X */
		UCSR1A &= ~(1 << U2X1);
    361a:	e8 ec       	ldi	r30, 0xC8	; 200
    361c:	f0 e0       	ldi	r31, 0x00	; 0
    361e:	80 81       	ld	r24, Z
    3620:	8d 7f       	andi	r24, 0xFD	; 253
    3622:	80 83       	st	Z, r24
	}

	/* Configurar la tasa de transferencia de bits */
	UBRR1 = (uint16_t) my_ubrr;
    3624:	50 93 cd 00 	sts	0x00CD, r21	; 0x8000cd <__TEXT_REGION_LENGTH__+0x7f80cd>
    3628:	40 93 cc 00 	sts	0x00CC, r20	; 0x8000cc <__TEXT_REGION_LENGTH__+0x7f80cc>

	/* Configurar el tamao del frame (bits de datos) */
	UCSR1C |= ((uart_param->data_bits & 0x03) << UCSZ10);
    362c:	aa ec       	ldi	r26, 0xCA	; 202
    362e:	b0 e0       	ldi	r27, 0x00	; 0
    3630:	2c 91       	ld	r18, X
    3632:	9f 81       	ldd	r25, Y+7	; 0x07
    3634:	93 70       	andi	r25, 0x03	; 3
    3636:	89 2f       	mov	r24, r25
    3638:	90 e0       	ldi	r25, 0x00	; 0
    363a:	88 0f       	add	r24, r24
    363c:	99 1f       	adc	r25, r25
    363e:	82 2b       	or	r24, r18
    3640:	8c 93       	st	X, r24
	UCSR1B |= (uart_param->data_bits >> 2);
    3642:	e9 ec       	ldi	r30, 0xC9	; 201
    3644:	f0 e0       	ldi	r31, 0x00	; 0
    3646:	90 81       	ld	r25, Z
    3648:	8f 81       	ldd	r24, Y+7	; 0x07
    364a:	86 95       	lsr	r24
    364c:	86 95       	lsr	r24
    364e:	89 2b       	or	r24, r25
    3650:	80 83       	st	Z, r24
	/* Configurar la cantidad de bits de parada */
	UCSR1C |= (uart_param->stop_bits << USBS1);
    3652:	2c 91       	ld	r18, X
    3654:	98 85       	ldd	r25, Y+8	; 0x08
    3656:	89 2f       	mov	r24, r25
    3658:	90 e0       	ldi	r25, 0x00	; 0
    365a:	88 0f       	add	r24, r24
    365c:	99 1f       	adc	r25, r25
    365e:	88 0f       	add	r24, r24
    3660:	99 1f       	adc	r25, r25
    3662:	88 0f       	add	r24, r24
    3664:	99 1f       	adc	r25, r25
    3666:	82 2b       	or	r24, r18
    3668:	8c 93       	st	X, r24
	/* Configurar los bits de paridad */
	UCSR1C |= (uart_param->parity_mode << UPM10);
    366a:	2c 91       	ld	r18, X
    366c:	99 85       	ldd	r25, Y+9	; 0x09
    366e:	30 e1       	ldi	r19, 0x10	; 16
    3670:	93 9f       	mul	r25, r19
    3672:	c0 01       	movw	r24, r0
    3674:	11 24       	eor	r1, r1
    3676:	82 2b       	or	r24, r18
    3678:	8c 93       	st	X, r24
	/* Habilitar/deshabilitar el transmisor del USART */
	UCSR1B |= (uart_param->tx_status << TXEN1);
    367a:	20 81       	ld	r18, Z
    367c:	9d 81       	ldd	r25, Y+5	; 0x05
    367e:	89 2f       	mov	r24, r25
    3680:	90 e0       	ldi	r25, 0x00	; 0
    3682:	88 0f       	add	r24, r24
    3684:	99 1f       	adc	r25, r25
    3686:	88 0f       	add	r24, r24
    3688:	99 1f       	adc	r25, r25
    368a:	88 0f       	add	r24, r24
    368c:	99 1f       	adc	r25, r25
    368e:	82 2b       	or	r24, r18
    3690:	80 83       	st	Z, r24
	/* Habilitar/deshabilitar el receptor del USART */
	UCSR1B |= (uart_param->rx_status << RXEN1);
    3692:	20 81       	ld	r18, Z
    3694:	9e 81       	ldd	r25, Y+6	; 0x06
    3696:	30 e1       	ldi	r19, 0x10	; 16
    3698:	93 9f       	mul	r25, r19
    369a:	c0 01       	movw	r24, r0
    369c:	11 24       	eor	r1, r1
    369e:	82 2b       	or	r24, r18
    36a0:	80 83       	st	Z, r24
	/* Habilitar las interrupciones */
	UCSR1B |= uart_param->interrupt_mask;
    36a2:	90 81       	ld	r25, Z
    36a4:	8a 85       	ldd	r24, Y+10	; 0x0a
    36a6:	89 2b       	or	r24, r25
    36a8:	80 83       	st	Z, r24
}
    36aa:	df 91       	pop	r29
    36ac:	cf 91       	pop	r28
    36ae:	08 95       	ret

000036b0 <UARTn_Tx_Byte>:
* Notas : La funcin no lleva a cabo una nueva transmisin antes de que se
* 		  haya completado la transmisin anterior.
*****************************************************************************/
void UARTn_Tx_Byte(UART_Module_t uart_n, char byte){

	switch(uart_n){
    36b0:	88 23       	and	r24, r24
    36b2:	19 f0       	breq	.+6      	; 0x36ba <UARTn_Tx_Byte+0xa>
    36b4:	81 30       	cpi	r24, 0x01	; 1
    36b6:	41 f0       	breq	.+16     	; 0x36c8 <UARTn_Tx_Byte+0x18>
    36b8:	08 95       	ret
		
		case UART0:
			/* No empezar la transmisin hasta que se haya completado la anterior */
			while(!(UCSR0A & (1 << UDRE0))){
    36ba:	80 91 c0 00 	lds	r24, 0x00C0	; 0x8000c0 <__TEXT_REGION_LENGTH__+0x7f80c0>
    36be:	85 ff       	sbrs	r24, 5
    36c0:	fc cf       	rjmp	.-8      	; 0x36ba <UARTn_Tx_Byte+0xa>
				/* no avanzar hata que el registro de datos se encuentre vaco */
			}
			/* Iniciar la transmisin del byte */
			UDR0 = byte;
    36c2:	60 93 c6 00 	sts	0x00C6, r22	; 0x8000c6 <__TEXT_REGION_LENGTH__+0x7f80c6>
			break;
    36c6:	08 95       	ret
		
		case UART1:
			/* No empezar la transmisin hasta que se haya completado la anterior */
			while(!(UCSR1A & (1 << UDRE1))){
    36c8:	80 91 c8 00 	lds	r24, 0x00C8	; 0x8000c8 <__TEXT_REGION_LENGTH__+0x7f80c8>
    36cc:	85 ff       	sbrs	r24, 5
    36ce:	fc cf       	rjmp	.-8      	; 0x36c8 <UARTn_Tx_Byte+0x18>
				/* no avanzar hata que el registro de datos se encuentre vaco */
			}
			/* Iniciar la transmisin del byte */
			UDR1 = byte;
    36d0:	60 93 ce 00 	sts	0x00CE, r22	; 0x8000ce <__TEXT_REGION_LENGTH__+0x7f80ce>
    36d4:	08 95       	ret

000036d6 <UARTn_Tx_String>:
* 				por el USARTn de forma asncrona.
* Notas : La funcin primero transmite el caracter indicado por el puntero
* 		  str, y contina transmitiendo los siguientes caracteres hasta
* 		  encontrar el '\0' (fin de string).
*****************************************************************************/
void UARTn_Tx_String(UART_Module_t uart_n, char *str){
    36d6:	1f 93       	push	r17
    36d8:	cf 93       	push	r28
    36da:	df 93       	push	r29
    36dc:	18 2f       	mov	r17, r24
    36de:	eb 01       	movw	r28, r22

	/* Mientras no se alcance el final de la cadena */
	while(*str != '\0'){
    36e0:	04 c0       	rjmp	.+8      	; 0x36ea <UARTn_Tx_String+0x14>
		/* Transmitir el caracter correspondiente */
		UARTn_Tx_Byte(uart_n, *str);
    36e2:	81 2f       	mov	r24, r17
    36e4:	0e 94 58 1b 	call	0x36b0	; 0x36b0 <UARTn_Tx_Byte>
		/* Incrementar el valor del puntero (apuntar al siguiente caracter
		en el arreglo) */
		str++;
    36e8:	21 96       	adiw	r28, 0x01	; 1
* 		  encontrar el '\0' (fin de string).
*****************************************************************************/
void UARTn_Tx_String(UART_Module_t uart_n, char *str){

	/* Mientras no se alcance el final de la cadena */
	while(*str != '\0'){
    36ea:	68 81       	ld	r22, Y
    36ec:	61 11       	cpse	r22, r1
    36ee:	f9 cf       	rjmp	.-14     	; 0x36e2 <UARTn_Tx_String+0xc>
		UARTn_Tx_Byte(uart_n, *str);
		/* Incrementar el valor del puntero (apuntar al siguiente caracter
		en el arreglo) */
		str++;
	}
}
    36f0:	df 91       	pop	r29
    36f2:	cf 91       	pop	r28
    36f4:	1f 91       	pop	r17
    36f6:	08 95       	ret

000036f8 <Serial_Rx_Buffer_Flush>:

/* Function definition */ 

void Serial_Rx_Buffer_Flush(void){
	
	for(serial_rx_buff_index = 0; serial_rx_buff_index < SERIAL_RX_BUFFER_SIZE; serial_rx_buff_index++){
    36f8:	10 92 59 03 	sts	0x0359, r1	; 0x800359 <serial_rx_buff_index>
    36fc:	08 c0       	rjmp	.+16     	; 0x370e <Serial_Rx_Buffer_Flush+0x16>
		serial_rx_buffer[serial_rx_buff_index] = '\0';
    36fe:	e8 2f       	mov	r30, r24
    3700:	f0 e0       	ldi	r31, 0x00	; 0
    3702:	e3 58       	subi	r30, 0x83	; 131
    3704:	fa 4f       	sbci	r31, 0xFA	; 250
    3706:	10 82       	st	Z, r1

/* Function definition */ 

void Serial_Rx_Buffer_Flush(void){
	
	for(serial_rx_buff_index = 0; serial_rx_buff_index < SERIAL_RX_BUFFER_SIZE; serial_rx_buff_index++){
    3708:	8f 5f       	subi	r24, 0xFF	; 255
    370a:	80 93 59 03 	sts	0x0359, r24	; 0x800359 <serial_rx_buff_index>
    370e:	80 91 59 03 	lds	r24, 0x0359	; 0x800359 <serial_rx_buff_index>
    3712:	88 32       	cpi	r24, 0x28	; 40
    3714:	a0 f3       	brcs	.-24     	; 0x36fe <Serial_Rx_Buffer_Flush+0x6>
		serial_rx_buffer[serial_rx_buff_index] = '\0';
	}
	
	serial_rx_buff_index = 0;
    3716:	10 92 59 03 	sts	0x0359, r1	; 0x800359 <serial_rx_buff_index>
    371a:	08 95       	ret

0000371c <Serial_Command_Buffer_Flush>:

void Serial_Command_Buffer_Flush(void){

	uint8_t index;

	for(index = 0; index < SERIAL_COMMAND_BUFFER_SIZE; index++){
    371c:	80 e0       	ldi	r24, 0x00	; 0
    371e:	06 c0       	rjmp	.+12     	; 0x372c <Serial_Command_Buffer_Flush+0x10>
		serial_command_buffer[index] = '\0';
    3720:	e8 2f       	mov	r30, r24
    3722:	f0 e0       	ldi	r31, 0x00	; 0
    3724:	eb 55       	subi	r30, 0x5B	; 91
    3726:	fa 4f       	sbci	r31, 0xFA	; 250
    3728:	10 82       	st	Z, r1

void Serial_Command_Buffer_Flush(void){

	uint8_t index;

	for(index = 0; index < SERIAL_COMMAND_BUFFER_SIZE; index++){
    372a:	8f 5f       	subi	r24, 0xFF	; 255
    372c:	88 32       	cpi	r24, 0x28	; 40
    372e:	c0 f3       	brcs	.-16     	; 0x3720 <Serial_Command_Buffer_Flush+0x4>
		serial_command_buffer[index] = '\0';
	}
	
}
    3730:	08 95       	ret

00003732 <Serial_Rx_Buffer_Store_Byte>:


void Serial_Rx_Buffer_Store_Byte(uint8_t byte){
	
	serial_rx_buffer[serial_rx_buff_index] = byte;
    3732:	90 91 59 03 	lds	r25, 0x0359	; 0x800359 <serial_rx_buff_index>
    3736:	e9 2f       	mov	r30, r25
    3738:	f0 e0       	ldi	r31, 0x00	; 0
    373a:	e3 58       	subi	r30, 0x83	; 131
    373c:	fa 4f       	sbci	r31, 0xFA	; 250
    373e:	80 83       	st	Z, r24
	serial_rx_buff_index++;
    3740:	9f 5f       	subi	r25, 0xFF	; 255
    3742:	90 93 59 03 	sts	0x0359, r25	; 0x800359 <serial_rx_buff_index>
	
	if(serial_rx_buff_index >= SERIAL_RX_BUFFER_SIZE){
    3746:	98 32       	cpi	r25, 0x28	; 40
    3748:	10 f0       	brcs	.+4      	; 0x374e <Serial_Rx_Buffer_Store_Byte+0x1c>
		serial_rx_buff_index = 0;
    374a:	10 92 59 03 	sts	0x0359, r1	; 0x800359 <serial_rx_buff_index>
    374e:	08 95       	ret

00003750 <Serial_Rx_Buffer_Load_Command>:

void Serial_Rx_Buffer_Load_Command(void){
	
	//uint8_t byte = '\0';
	
	uint8_t serial_rx_buff_index = 0;
    3750:	20 e0       	ldi	r18, 0x00	; 0

	//while(byte = serial_rx_buffer[serial_rx_buff_index]){
	while(serial_rx_buffer[serial_rx_buff_index]){
    3752:	05 c0       	rjmp	.+10     	; 0x375e <Serial_Rx_Buffer_Load_Command+0xe>
		serial_command_buffer[serial_rx_buff_index] = serial_rx_buffer[serial_rx_buff_index];
    3754:	fc 01       	movw	r30, r24
    3756:	eb 55       	subi	r30, 0x5B	; 91
    3758:	fa 4f       	sbci	r31, 0xFA	; 250
    375a:	30 83       	st	Z, r19
		serial_rx_buff_index++;
    375c:	2f 5f       	subi	r18, 0xFF	; 255
	//uint8_t byte = '\0';
	
	uint8_t serial_rx_buff_index = 0;

	//while(byte = serial_rx_buffer[serial_rx_buff_index]){
	while(serial_rx_buffer[serial_rx_buff_index]){
    375e:	82 2f       	mov	r24, r18
    3760:	90 e0       	ldi	r25, 0x00	; 0
    3762:	fc 01       	movw	r30, r24
    3764:	e3 58       	subi	r30, 0x83	; 131
    3766:	fa 4f       	sbci	r31, 0xFA	; 250
    3768:	30 81       	ld	r19, Z
    376a:	31 11       	cpse	r19, r1
    376c:	f3 cf       	rjmp	.-26     	; 0x3754 <Serial_Rx_Buffer_Load_Command+0x4>
		serial_command_buffer[serial_rx_buff_index] = serial_rx_buffer[serial_rx_buff_index];
		serial_rx_buff_index++;
	};

	
}
    376e:	08 95       	ret

00003770 <Serial_Check_If_Command_Received>:


uint8_t Serial_Check_If_Command_Received(uint16_t flag_mask, uint32_t time_limit_ms){
    3770:	fc 01       	movw	r30, r24
	uint16_t time_up = 0;
	
	uint8_t command_on_time = 0; 	
	
	/* Start time count */
	timeout_limit_ms = time_limit_ms;
    3772:	40 93 18 03 	sts	0x0318, r20	; 0x800318 <timeout_limit_ms>
    3776:	50 93 19 03 	sts	0x0319, r21	; 0x800319 <timeout_limit_ms+0x1>
    377a:	60 93 1a 03 	sts	0x031A, r22	; 0x80031a <timeout_limit_ms+0x2>
    377e:	70 93 1b 03 	sts	0x031B, r23	; 0x80031b <timeout_limit_ms+0x3>
	timeout_counter_ms = 0;
    3782:	10 92 14 03 	sts	0x0314, r1	; 0x800314 <timeout_counter_ms>
    3786:	10 92 15 03 	sts	0x0315, r1	; 0x800315 <timeout_counter_ms+0x1>
    378a:	10 92 16 03 	sts	0x0316, r1	; 0x800316 <timeout_counter_ms+0x2>
    378e:	10 92 17 03 	sts	0x0317, r1	; 0x800317 <timeout_counter_ms+0x3>
	
	/* Clear flags */
	cli();
    3792:	f8 94       	cli
	system_flags &= ~flag_mask;
    3794:	9c 01       	movw	r18, r24
    3796:	20 95       	com	r18
    3798:	30 95       	com	r19
    379a:	80 91 12 03 	lds	r24, 0x0312	; 0x800312 <system_flags>
    379e:	90 91 13 03 	lds	r25, 0x0313	; 0x800313 <system_flags+0x1>
    37a2:	82 23       	and	r24, r18
    37a4:	93 23       	and	r25, r19
    37a6:	90 93 13 03 	sts	0x0313, r25	; 0x800313 <system_flags+0x1>
    37aa:	80 93 12 03 	sts	0x0312, r24	; 0x800312 <system_flags>
	system_flags &= ~(1 << TIME_OUT_FLAG);
    37ae:	80 91 12 03 	lds	r24, 0x0312	; 0x800312 <system_flags>
    37b2:	90 91 13 03 	lds	r25, 0x0313	; 0x800313 <system_flags+0x1>
    37b6:	9e 7f       	andi	r25, 0xFE	; 254
    37b8:	90 93 13 03 	sts	0x0313, r25	; 0x800313 <system_flags+0x1>
    37bc:	80 93 12 03 	sts	0x0312, r24	; 0x800312 <system_flags>
	sei();	
    37c0:	78 94       	sei


uint8_t Serial_Check_If_Command_Received(uint16_t flag_mask, uint32_t time_limit_ms){
	
	uint16_t command_received = 0;
	uint16_t time_up = 0;
    37c2:	40 e0       	ldi	r20, 0x00	; 0
    37c4:	50 e0       	ldi	r21, 0x00	; 0
}


uint8_t Serial_Check_If_Command_Received(uint16_t flag_mask, uint32_t time_limit_ms){
	
	uint16_t command_received = 0;
    37c6:	20 e0       	ldi	r18, 0x00	; 0
    37c8:	30 e0       	ldi	r19, 0x00	; 0
	system_flags &= ~flag_mask;
	system_flags &= ~(1 << TIME_OUT_FLAG);
	sei();	
	
	//Wait until either a response is received or the time is up
	while((!command_received) && (!time_up)){
    37ca:	0c c0       	rjmp	.+24     	; 0x37e4 <Serial_Check_If_Command_Received+0x74>
		command_received = system_flags & flag_mask;
    37cc:	20 91 12 03 	lds	r18, 0x0312	; 0x800312 <system_flags>
    37d0:	30 91 13 03 	lds	r19, 0x0313	; 0x800313 <system_flags+0x1>
    37d4:	2e 23       	and	r18, r30
    37d6:	3f 23       	and	r19, r31
		time_up = system_flags & (1 << TIME_OUT_FLAG);
    37d8:	40 91 12 03 	lds	r20, 0x0312	; 0x800312 <system_flags>
    37dc:	50 91 13 03 	lds	r21, 0x0313	; 0x800313 <system_flags+0x1>
    37e0:	44 27       	eor	r20, r20
    37e2:	51 70       	andi	r21, 0x01	; 1
	system_flags &= ~flag_mask;
	system_flags &= ~(1 << TIME_OUT_FLAG);
	sei();	
	
	//Wait until either a response is received or the time is up
	while((!command_received) && (!time_up)){
    37e4:	21 15       	cp	r18, r1
    37e6:	31 05       	cpc	r19, r1
    37e8:	11 f4       	brne	.+4      	; 0x37ee <Serial_Check_If_Command_Received+0x7e>
    37ea:	45 2b       	or	r20, r21
    37ec:	79 f3       	breq	.-34     	; 0x37cc <Serial_Check_If_Command_Received+0x5c>
		command_received = system_flags & flag_mask;
		time_up = system_flags & (1 << TIME_OUT_FLAG);
	}	


	if(command_received){
    37ee:	23 2b       	or	r18, r19
    37f0:	11 f0       	breq	.+4      	; 0x37f6 <Serial_Check_If_Command_Received+0x86>
		command_on_time = 1;
    37f2:	81 e0       	ldi	r24, 0x01	; 1
    37f4:	01 c0       	rjmp	.+2      	; 0x37f8 <Serial_Check_If_Command_Received+0x88>
	}else{
		command_on_time = 0;
    37f6:	80 e0       	ldi	r24, 0x00	; 0
	}


	cli();
    37f8:	f8 94       	cli
	system_flags |= flag_mask;
    37fa:	20 91 12 03 	lds	r18, 0x0312	; 0x800312 <system_flags>
    37fe:	30 91 13 03 	lds	r19, 0x0313	; 0x800313 <system_flags+0x1>
    3802:	e2 2b       	or	r30, r18
    3804:	f3 2b       	or	r31, r19
    3806:	f0 93 13 03 	sts	0x0313, r31	; 0x800313 <system_flags+0x1>
    380a:	e0 93 12 03 	sts	0x0312, r30	; 0x800312 <system_flags>
	system_flags |= (1 << TIME_OUT_FLAG);
    380e:	20 91 12 03 	lds	r18, 0x0312	; 0x800312 <system_flags>
    3812:	30 91 13 03 	lds	r19, 0x0313	; 0x800313 <system_flags+0x1>
    3816:	31 60       	ori	r19, 0x01	; 1
    3818:	30 93 13 03 	sts	0x0313, r19	; 0x800313 <system_flags+0x1>
    381c:	20 93 12 03 	sts	0x0312, r18	; 0x800312 <system_flags>
	sei();
    3820:	78 94       	sei

	return command_on_time;
	
}
    3822:	08 95       	ret

00003824 <Serial_Verify_Command_Received>:
uint8_t Serial_Verify_Command_Received(char *command_expected){
	
	uint8_t command_correct = 0;
	
	/* Compare received string to the expected command */
	if(strcmp((const char *)serial_command_buffer, (const char *)command_expected) == 0){
    3824:	bc 01       	movw	r22, r24
    3826:	85 ea       	ldi	r24, 0xA5	; 165
    3828:	95 e0       	ldi	r25, 0x05	; 5
    382a:	0e 94 eb 21 	call	0x43d6	; 0x43d6 <strcmp>
    382e:	89 2b       	or	r24, r25
    3830:	11 f0       	breq	.+4      	; 0x3836 <Serial_Verify_Command_Received+0x12>
}


uint8_t Serial_Verify_Command_Received(char *command_expected){
	
	uint8_t command_correct = 0;
    3832:	80 e0       	ldi	r24, 0x00	; 0
    3834:	08 95       	ret
	
	/* Compare received string to the expected command */
	if(strcmp((const char *)serial_command_buffer, (const char *)command_expected) == 0){
		command_correct = 1;
    3836:	81 e0       	ldi	r24, 0x01	; 1
	}
	
	return command_correct;
}
    3838:	08 95       	ret

0000383a <Serial_Verify_Command_Header>:



uint8_t Serial_Verify_Command_Header(char *header_expected){
    383a:	bc 01       	movw	r22, r24
	
	uint8_t command_correct = 1;
	uint8_t index = 0;
    383c:	90 e0       	ldi	r25, 0x00	; 0



uint8_t Serial_Verify_Command_Header(char *header_expected){
	
	uint8_t command_correct = 1;
    383e:	81 e0       	ldi	r24, 0x01	; 1
	uint8_t index = 0;
	
	while((command_correct == 1) && (*(header_expected + index) != '\0')){
    3840:	07 c0       	rjmp	.+14     	; 0x3850 <Serial_Verify_Command_Header+0x16>
		if(*(header_expected + index) != *(serial_command_buffer + index)){
    3842:	f9 01       	movw	r30, r18
    3844:	eb 55       	subi	r30, 0x5B	; 91
    3846:	fa 4f       	sbci	r31, 0xFA	; 250
    3848:	20 81       	ld	r18, Z
    384a:	42 13       	cpse	r20, r18
			command_correct = 0;
    384c:	80 e0       	ldi	r24, 0x00	; 0
		}
		
		index++;
    384e:	9f 5f       	subi	r25, 0xFF	; 255
uint8_t Serial_Verify_Command_Header(char *header_expected){
	
	uint8_t command_correct = 1;
	uint8_t index = 0;
	
	while((command_correct == 1) && (*(header_expected + index) != '\0')){
    3850:	81 30       	cpi	r24, 0x01	; 1
    3852:	41 f4       	brne	.+16     	; 0x3864 <Serial_Verify_Command_Header+0x2a>
    3854:	29 2f       	mov	r18, r25
    3856:	30 e0       	ldi	r19, 0x00	; 0
    3858:	fb 01       	movw	r30, r22
    385a:	e2 0f       	add	r30, r18
    385c:	f3 1f       	adc	r31, r19
    385e:	40 81       	ld	r20, Z
    3860:	41 11       	cpse	r20, r1
    3862:	ef cf       	rjmp	.-34     	; 0x3842 <Serial_Verify_Command_Header+0x8>
		
		index++;
	}
	
	return command_correct;
}
    3864:	08 95       	ret

00003866 <Serial_Get_Measure_Period>:


uint8_t Serial_Get_Measure_Period(uint8_t *data){
    3866:	dc 01       	movw	r26, r24
	
	uint8_t value_correct = 1;
	uint8_t d = 0, u = 0;
	uint8_t temp;
	
	d = *(serial_command_buffer + BT_MEASURE_PERIOD_SET_HEADER_SIZE - 1) - 48;
    3868:	e5 ea       	ldi	r30, 0xA5	; 165
    386a:	f5 e0       	ldi	r31, 0x05	; 5
    386c:	93 85       	ldd	r25, Z+11	; 0x0b
    386e:	90 53       	subi	r25, 0x30	; 48
	u = *(serial_command_buffer + BT_MEASURE_PERIOD_SET_HEADER_SIZE) - 48;
    3870:	24 85       	ldd	r18, Z+12	; 0x0c
    3872:	20 53       	subi	r18, 0x30	; 48
	
	temp = (10 * d) + u;
    3874:	99 0f       	add	r25, r25
    3876:	39 2f       	mov	r19, r25
    3878:	33 0f       	add	r19, r19
    387a:	33 0f       	add	r19, r19
    387c:	93 0f       	add	r25, r19
    387e:	92 0f       	add	r25, r18
	
	if((temp >= MEASURE_PERIOD_MIN_VALUE) && (temp <= MEASURE_PERIOD_MAX_VALUE)){
    3880:	2f ef       	ldi	r18, 0xFF	; 255
    3882:	29 0f       	add	r18, r25
    3884:	2a 30       	cpi	r18, 0x0A	; 10
    3886:	18 f4       	brcc	.+6      	; 0x388e <Serial_Get_Measure_Period+0x28>
		value_correct = 1;
		*data = temp;
    3888:	9c 93       	st	X, r25
	u = *(serial_command_buffer + BT_MEASURE_PERIOD_SET_HEADER_SIZE) - 48;
	
	temp = (10 * d) + u;
	
	if((temp >= MEASURE_PERIOD_MIN_VALUE) && (temp <= MEASURE_PERIOD_MAX_VALUE)){
		value_correct = 1;
    388a:	81 e0       	ldi	r24, 0x01	; 1
    388c:	08 95       	ret
		*data = temp;
	}else{
		value_correct = 0;
    388e:	80 e0       	ldi	r24, 0x00	; 0
	}
	
	return value_correct;
}
    3890:	08 95       	ret

00003892 <Serial_Get_Emitter_ID>:


void Serial_Get_Emitter_ID(uint8_t *data){
    3892:	cf 93       	push	r28
    3894:	df 93       	push	r29
    3896:	dc 01       	movw	r26, r24
	
	uint8_t index;
	
	for(index = 0; index < (EMITTER_NODE_ID_SIZE_IN_BYTES - 2); index++){
    3898:	90 e0       	ldi	r25, 0x00	; 0
    389a:	0b c0       	rjmp	.+22     	; 0x38b2 <Serial_Get_Emitter_ID+0x20>
		*(data + index) = *(serial_command_buffer + index + BT_EMITTER_ID_SET_HEADER_SIZE - 1);
    389c:	29 2f       	mov	r18, r25
    389e:	30 e0       	ldi	r19, 0x00	; 0
    38a0:	fd 01       	movw	r30, r26
    38a2:	e2 0f       	add	r30, r18
    38a4:	f3 1f       	adc	r31, r19
    38a6:	e9 01       	movw	r28, r18
    38a8:	c1 55       	subi	r28, 0x51	; 81
    38aa:	da 4f       	sbci	r29, 0xFA	; 250
    38ac:	28 81       	ld	r18, Y
    38ae:	20 83       	st	Z, r18

void Serial_Get_Emitter_ID(uint8_t *data){
	
	uint8_t index;
	
	for(index = 0; index < (EMITTER_NODE_ID_SIZE_IN_BYTES - 2); index++){
    38b0:	9f 5f       	subi	r25, 0xFF	; 255
    38b2:	98 30       	cpi	r25, 0x08	; 8
    38b4:	98 f3       	brcs	.-26     	; 0x389c <Serial_Get_Emitter_ID+0xa>
		*(data + index) = *(serial_command_buffer + index + BT_EMITTER_ID_SET_HEADER_SIZE - 1);
	}
	
	*(data + EMITTER_NODE_ID_SIZE_IN_BYTES - 3) = '\0';
    38b6:	17 96       	adiw	r26, 0x07	; 7
    38b8:	1c 92       	st	X, r1
}
    38ba:	df 91       	pop	r29
    38bc:	cf 91       	pop	r28
    38be:	08 95       	ret

000038c0 <Serial_Get_Receiver_ID>:


void Serial_Get_Receiver_ID(uint8_t *data){
    38c0:	cf 93       	push	r28
    38c2:	df 93       	push	r29
    38c4:	dc 01       	movw	r26, r24
	
	uint8_t index;
	
	for(index = 0; index < (RECEIVER_CENTRAL_ID_SIZE_IN_BYTES - 2); index++){
    38c6:	90 e0       	ldi	r25, 0x00	; 0
    38c8:	0b c0       	rjmp	.+22     	; 0x38e0 <Serial_Get_Receiver_ID+0x20>
		*(data + index) = *(serial_command_buffer + index + BT_RECEIVER_ID_SET_HEADER_SIZE - 1);
    38ca:	29 2f       	mov	r18, r25
    38cc:	30 e0       	ldi	r19, 0x00	; 0
    38ce:	fd 01       	movw	r30, r26
    38d0:	e2 0f       	add	r30, r18
    38d2:	f3 1f       	adc	r31, r19
    38d4:	e9 01       	movw	r28, r18
    38d6:	c1 55       	subi	r28, 0x51	; 81
    38d8:	da 4f       	sbci	r29, 0xFA	; 250
    38da:	28 81       	ld	r18, Y
    38dc:	20 83       	st	Z, r18

void Serial_Get_Receiver_ID(uint8_t *data){
	
	uint8_t index;
	
	for(index = 0; index < (RECEIVER_CENTRAL_ID_SIZE_IN_BYTES - 2); index++){
    38de:	9f 5f       	subi	r25, 0xFF	; 255
    38e0:	99 30       	cpi	r25, 0x09	; 9
    38e2:	98 f3       	brcs	.-26     	; 0x38ca <Serial_Get_Receiver_ID+0xa>
		*(data + index) = *(serial_command_buffer + index + BT_RECEIVER_ID_SET_HEADER_SIZE - 1);
	}
	
	*(data + RECEIVER_CENTRAL_ID_SIZE_IN_BYTES - 3) = '\0';
    38e4:	18 96       	adiw	r26, 0x08	; 8
    38e6:	1c 92       	st	X, r1
}
    38e8:	df 91       	pop	r29
    38ea:	cf 91       	pop	r28
    38ec:	08 95       	ret

000038ee <Serial_Get_Number_Of_Sensors>:


uint8_t Serial_Get_Number_Of_Sensors(uint8_t *data){
    38ee:	fc 01       	movw	r30, r24

	uint8_t value_correct = 1;
	uint8_t temp;

	temp = *(serial_command_buffer + BT_NUM_SENSORS_SET_HEADER_SIZE - 1);
    38f0:	90 91 b2 05 	lds	r25, 0x05B2	; 0x8005b2 <serial_command_buffer+0xd>

	if((temp <= 50) && (temp >= 49)){
    38f4:	2f ec       	ldi	r18, 0xCF	; 207
    38f6:	29 0f       	add	r18, r25
    38f8:	22 30       	cpi	r18, 0x02	; 2
    38fa:	20 f4       	brcc	.+8      	; 0x3904 <Serial_Get_Number_Of_Sensors+0x16>
		temp -= 48;
    38fc:	90 53       	subi	r25, 0x30	; 48
		*data = temp;
    38fe:	90 83       	st	Z, r25
		value_correct = 1;
    3900:	81 e0       	ldi	r24, 0x01	; 1
    3902:	08 95       	ret
	}else{
		value_correct = 0;
    3904:	80 e0       	ldi	r24, 0x00	; 0
	}

	return value_correct;

}
    3906:	08 95       	ret

00003908 <Serial_Get_Servo_State>:


uint8_t Serial_Get_Servo_State(uint8_t *data){
    3908:	fc 01       	movw	r30, r24
	
	uint8_t value_correct = 1;
	uint8_t temp;
 
	temp = *(serial_command_buffer + BT_SERVO_ENABLE_DISABLE_HEADER_SIZE - 1);
    390a:	90 91 af 05 	lds	r25, 0x05AF	; 0x8005af <serial_command_buffer+0xa>

	if((temp <= 49) && (temp >= 48)){
    390e:	90 53       	subi	r25, 0x30	; 48
    3910:	92 30       	cpi	r25, 0x02	; 2
    3912:	18 f4       	brcc	.+6      	; 0x391a <Serial_Get_Servo_State+0x12>
		temp -= 48;
		*data = temp;
    3914:	90 83       	st	Z, r25
		value_correct = 1;
    3916:	81 e0       	ldi	r24, 0x01	; 1
    3918:	08 95       	ret
	}else{
		value_correct = 0;
    391a:	80 e0       	ldi	r24, 0x00	; 0
	}

	return value_correct;	
}
    391c:	08 95       	ret

0000391e <Serial_Get_Date_And_Time>:


uint8_t Serial_Get_Date_And_Time(uint8_t *data){
    391e:	ff 92       	push	r15
    3920:	0f 93       	push	r16
    3922:	1f 93       	push	r17
    3924:	cf 93       	push	r28
    3926:	df 93       	push	r29
    3928:	fc 01       	movw	r30, r24
	uint8_t hour = 0, minute = 0, meridien = 0;
	uint8_t index = 0;

	/* Convert day ascii value to unsigned integer */
	index = BT_DATE_TIME_SET_HEADER_SIZE - 1;
	day += ((*(serial_command_buffer + index)) - 48);
    392a:	a5 ea       	ldi	r26, 0xA5	; 165
    392c:	b5 e0       	ldi	r27, 0x05	; 5
    392e:	1d 96       	adiw	r26, 0x0d	; 13
    3930:	4c 91       	ld	r20, X
    3932:	1d 97       	sbiw	r26, 0x0d	; 13
    3934:	40 53       	subi	r20, 0x30	; 48
	
	if((*(serial_command_buffer + index + 2)) == '/'){
    3936:	1f 96       	adiw	r26, 0x0f	; 15
    3938:	8c 91       	ld	r24, X
    393a:	8f 32       	cpi	r24, 0x2F	; 47
    393c:	59 f4       	brne	.+22     	; 0x3954 <Serial_Get_Date_And_Time+0x36>
		index++;
		day = (10 * day) + ((*(serial_command_buffer + index)) - 48);
    393e:	44 0f       	add	r20, r20
    3940:	84 2f       	mov	r24, r20
    3942:	88 0f       	add	r24, r24
    3944:	88 0f       	add	r24, r24
    3946:	48 0f       	add	r20, r24
    3948:	80 91 b3 05 	lds	r24, 0x05B3	; 0x8005b3 <serial_command_buffer+0xe>
    394c:	48 0f       	add	r20, r24
    394e:	40 53       	subi	r20, 0x30	; 48
	/* Convert day ascii value to unsigned integer */
	index = BT_DATE_TIME_SET_HEADER_SIZE - 1;
	day += ((*(serial_command_buffer + index)) - 48);
	
	if((*(serial_command_buffer + index + 2)) == '/'){
		index++;
    3950:	2e e0       	ldi	r18, 0x0E	; 14
    3952:	01 c0       	rjmp	.+2      	; 0x3956 <Serial_Get_Date_And_Time+0x38>
	uint8_t day = 0, month = 0, year = 0;
	uint8_t hour = 0, minute = 0, meridien = 0;
	uint8_t index = 0;

	/* Convert day ascii value to unsigned integer */
	index = BT_DATE_TIME_SET_HEADER_SIZE - 1;
    3954:	2d e0       	ldi	r18, 0x0D	; 13
		index++;
		day = (10 * day) + ((*(serial_command_buffer + index)) - 48);
	}
	
	/* Convert month ascii value to unsigned integer */
	index += 2;
    3956:	62 e0       	ldi	r22, 0x02	; 2
    3958:	62 0f       	add	r22, r18
	month += ((*(serial_command_buffer + index)) - 48);
    395a:	86 2f       	mov	r24, r22
    395c:	90 e0       	ldi	r25, 0x00	; 0
    395e:	dc 01       	movw	r26, r24
    3960:	ab 55       	subi	r26, 0x5B	; 91
    3962:	ba 4f       	sbci	r27, 0xFA	; 250
    3964:	5c 91       	ld	r21, X
    3966:	50 53       	subi	r21, 0x30	; 48

	if((*(serial_command_buffer + index + 2)) == '/'){
    3968:	dc 01       	movw	r26, r24
    396a:	a9 55       	subi	r26, 0x59	; 89
    396c:	ba 4f       	sbci	r27, 0xFA	; 250
    396e:	8c 91       	ld	r24, X
    3970:	8f 32       	cpi	r24, 0x2F	; 47
    3972:	71 f4       	brne	.+28     	; 0x3990 <Serial_Get_Date_And_Time+0x72>
		index++;
    3974:	63 e0       	ldi	r22, 0x03	; 3
    3976:	62 0f       	add	r22, r18
		month = (10 * month) + ((*(serial_command_buffer + index)) - 48);
    3978:	a6 2f       	mov	r26, r22
    397a:	b0 e0       	ldi	r27, 0x00	; 0
    397c:	ab 55       	subi	r26, 0x5B	; 91
    397e:	ba 4f       	sbci	r27, 0xFA	; 250
    3980:	55 0f       	add	r21, r21
    3982:	85 2f       	mov	r24, r21
    3984:	88 0f       	add	r24, r24
    3986:	88 0f       	add	r24, r24
    3988:	58 0f       	add	r21, r24
    398a:	8c 91       	ld	r24, X
    398c:	58 0f       	add	r21, r24
    398e:	50 53       	subi	r21, 0x30	; 48
	}
	
	/* Convert year ascii value to unsigned integer */
	index += 4;
    3990:	a4 e0       	ldi	r26, 0x04	; 4
    3992:	a6 0f       	add	r26, r22
	year = 10 * ((*(serial_command_buffer + index)) - 48);
    3994:	b0 e0       	ldi	r27, 0x00	; 0
    3996:	ab 55       	subi	r26, 0x5B	; 91
    3998:	ba 4f       	sbci	r27, 0xFA	; 250
    399a:	2c 91       	ld	r18, X
    399c:	30 e0       	ldi	r19, 0x00	; 0
    399e:	20 53       	subi	r18, 0x30	; 48
    39a0:	31 09       	sbc	r19, r1
    39a2:	22 0f       	add	r18, r18
    39a4:	82 2f       	mov	r24, r18
    39a6:	88 0f       	add	r24, r24
    39a8:	88 0f       	add	r24, r24
    39aa:	28 0f       	add	r18, r24
	index++;
    39ac:	a5 e0       	ldi	r26, 0x05	; 5
    39ae:	a6 0f       	add	r26, r22
	year += ((*(serial_command_buffer + index)) - 48);
    39b0:	b0 e0       	ldi	r27, 0x00	; 0
    39b2:	ab 55       	subi	r26, 0x5B	; 91
    39b4:	ba 4f       	sbci	r27, 0xFA	; 250
    39b6:	8c 91       	ld	r24, X
    39b8:	28 0f       	add	r18, r24
    39ba:	20 53       	subi	r18, 0x30	; 48
	
	if((day < 1) || (day > 31) || (month < 1) || (month > 12) || (year > 99)){
    39bc:	8f ef       	ldi	r24, 0xFF	; 255
    39be:	84 0f       	add	r24, r20
    39c0:	8f 31       	cpi	r24, 0x1F	; 31
    39c2:	40 f4       	brcc	.+16     	; 0x39d4 <Serial_Get_Date_And_Time+0xb6>
    39c4:	55 23       	and	r21, r21
    39c6:	41 f0       	breq	.+16     	; 0x39d8 <Serial_Get_Date_And_Time+0xba>
    39c8:	5d 30       	cpi	r21, 0x0D	; 13
    39ca:	40 f4       	brcc	.+16     	; 0x39dc <Serial_Get_Date_And_Time+0xbe>
    39cc:	24 36       	cpi	r18, 0x64	; 100
    39ce:	40 f4       	brcc	.+16     	; 0x39e0 <Serial_Get_Date_And_Time+0xc2>
}


uint8_t Serial_Get_Date_And_Time(uint8_t *data){

	uint8_t value_correct = 1;
    39d0:	81 e0       	ldi	r24, 0x01	; 1
    39d2:	07 c0       	rjmp	.+14     	; 0x39e2 <Serial_Get_Date_And_Time+0xc4>
	year = 10 * ((*(serial_command_buffer + index)) - 48);
	index++;
	year += ((*(serial_command_buffer + index)) - 48);
	
	if((day < 1) || (day > 31) || (month < 1) || (month > 12) || (year > 99)){
		value_correct = 0;
    39d4:	80 e0       	ldi	r24, 0x00	; 0
    39d6:	05 c0       	rjmp	.+10     	; 0x39e2 <Serial_Get_Date_And_Time+0xc4>
    39d8:	80 e0       	ldi	r24, 0x00	; 0
    39da:	03 c0       	rjmp	.+6      	; 0x39e2 <Serial_Get_Date_And_Time+0xc4>
    39dc:	80 e0       	ldi	r24, 0x00	; 0
    39de:	01 c0       	rjmp	.+2      	; 0x39e2 <Serial_Get_Date_And_Time+0xc4>
    39e0:	80 e0       	ldi	r24, 0x00	; 0
	}

	///* Convert hour ascii value to unsigned integer */
	index += 2;
    39e2:	0f 2e       	mov	r0, r31
    39e4:	f7 e0       	ldi	r31, 0x07	; 7
    39e6:	ff 2e       	mov	r15, r31
    39e8:	f0 2d       	mov	r31, r0
    39ea:	f6 0e       	add	r15, r22
	hour += ((*(serial_command_buffer + index)) - 48);
    39ec:	cf 2d       	mov	r28, r15
    39ee:	d0 e0       	ldi	r29, 0x00	; 0
    39f0:	8e 01       	movw	r16, r28
    39f2:	0b 55       	subi	r16, 0x5B	; 91
    39f4:	1a 4f       	sbci	r17, 0xFA	; 250
    39f6:	d8 01       	movw	r26, r16
    39f8:	9c 91       	ld	r25, X
    39fa:	90 53       	subi	r25, 0x30	; 48
	if((*(serial_command_buffer + index + 2)) == ':'){
    39fc:	c9 55       	subi	r28, 0x59	; 89
    39fe:	da 4f       	sbci	r29, 0xFA	; 250
    3a00:	38 81       	ld	r19, Y
    3a02:	3a 33       	cpi	r19, 0x3A	; 58
    3a04:	81 f4       	brne	.+32     	; 0x3a26 <Serial_Get_Date_And_Time+0x108>
		index++;
    3a06:	68 94       	set
    3a08:	ff 24       	eor	r15, r15
    3a0a:	f3 f8       	bld	r15, 3
    3a0c:	f6 0e       	add	r15, r22
		hour = (10 * hour) + ((*(serial_command_buffer + index)) - 48);	
    3a0e:	cf 2d       	mov	r28, r15
    3a10:	d0 e0       	ldi	r29, 0x00	; 0
    3a12:	cb 55       	subi	r28, 0x5B	; 91
    3a14:	da 4f       	sbci	r29, 0xFA	; 250
    3a16:	99 0f       	add	r25, r25
    3a18:	39 2f       	mov	r19, r25
    3a1a:	33 0f       	add	r19, r19
    3a1c:	33 0f       	add	r19, r19
    3a1e:	93 0f       	add	r25, r19
    3a20:	38 81       	ld	r19, Y
    3a22:	93 0f       	add	r25, r19
    3a24:	90 53       	subi	r25, 0x30	; 48
	}

	/* Convert minute ascii value to unsigned integer */
	index += 2;
    3a26:	62 e0       	ldi	r22, 0x02	; 2
    3a28:	6f 0d       	add	r22, r15
	minute += ((*(serial_command_buffer + index)) - 48);
    3a2a:	70 e0       	ldi	r23, 0x00	; 0
    3a2c:	eb 01       	movw	r28, r22
    3a2e:	cb 55       	subi	r28, 0x5B	; 91
    3a30:	da 4f       	sbci	r29, 0xFA	; 250
    3a32:	38 81       	ld	r19, Y
    3a34:	30 53       	subi	r19, 0x30	; 48
	if((*(serial_command_buffer + index + 2)) == '.'){
    3a36:	eb 01       	movw	r28, r22
    3a38:	c9 55       	subi	r28, 0x59	; 89
    3a3a:	da 4f       	sbci	r29, 0xFA	; 250
    3a3c:	68 81       	ld	r22, Y
    3a3e:	6e 32       	cpi	r22, 0x2E	; 46
    3a40:	69 f4       	brne	.+26     	; 0x3a5c <Serial_Get_Date_And_Time+0x13e>
		index++;
    3a42:	a3 e0       	ldi	r26, 0x03	; 3
    3a44:	af 0d       	add	r26, r15
		minute = (10 * minute) + ((*(serial_command_buffer + index)) - 48);
    3a46:	b0 e0       	ldi	r27, 0x00	; 0
    3a48:	ab 55       	subi	r26, 0x5B	; 91
    3a4a:	ba 4f       	sbci	r27, 0xFA	; 250
    3a4c:	33 0f       	add	r19, r19
    3a4e:	63 2f       	mov	r22, r19
    3a50:	66 0f       	add	r22, r22
    3a52:	66 0f       	add	r22, r22
    3a54:	36 0f       	add	r19, r22
    3a56:	6c 91       	ld	r22, X
    3a58:	36 0f       	add	r19, r22
    3a5a:	30 53       	subi	r19, 0x30	; 48
	}
	
	if((hour > 23) || (minute > 59)){
    3a5c:	98 31       	cpi	r25, 0x18	; 24
    3a5e:	18 f4       	brcc	.+6      	; 0x3a66 <Serial_Get_Date_And_Time+0x148>
    3a60:	3c 33       	cpi	r19, 0x3C	; 60
    3a62:	18 f4       	brcc	.+6      	; 0x3a6a <Serial_Get_Date_And_Time+0x14c>
    3a64:	03 c0       	rjmp	.+6      	; 0x3a6c <Serial_Get_Date_And_Time+0x14e>
		value_correct = 0;
    3a66:	80 e0       	ldi	r24, 0x00	; 0
    3a68:	01 c0       	rjmp	.+2      	; 0x3a6c <Serial_Get_Date_And_Time+0x14e>
    3a6a:	80 e0       	ldi	r24, 0x00	; 0
	}
	
	if(value_correct){
    3a6c:	88 23       	and	r24, r24
    3a6e:	a9 f0       	breq	.+42     	; 0x3a9a <Serial_Get_Date_And_Time+0x17c>
	
		/* Determine the meridien */
		if(hour == 0){
    3a70:	99 23       	and	r25, r25
    3a72:	39 f0       	breq	.+14     	; 0x3a82 <Serial_Get_Date_And_Time+0x164>
			hour = 12;
			meridien = AM;
		}else if(hour >= 12){
    3a74:	9c 30       	cpi	r25, 0x0C	; 12
    3a76:	40 f0       	brcs	.+16     	; 0x3a88 <Serial_Get_Date_And_Time+0x16a>
			meridien = PM;
			if(hour > 12){
    3a78:	9d 30       	cpi	r25, 0x0D	; 13
    3a7a:	40 f0       	brcs	.+16     	; 0x3a8c <Serial_Get_Date_And_Time+0x16e>
				hour -= 12;
    3a7c:	9c 50       	subi	r25, 0x0C	; 12
		/* Determine the meridien */
		if(hour == 0){
			hour = 12;
			meridien = AM;
		}else if(hour >= 12){
			meridien = PM;
    3a7e:	61 e0       	ldi	r22, 0x01	; 1
    3a80:	06 c0       	rjmp	.+12     	; 0x3a8e <Serial_Get_Date_And_Time+0x170>
	if(value_correct){
	
		/* Determine the meridien */
		if(hour == 0){
			hour = 12;
			meridien = AM;
    3a82:	60 e0       	ldi	r22, 0x00	; 0
	
	if(value_correct){
	
		/* Determine the meridien */
		if(hour == 0){
			hour = 12;
    3a84:	9c e0       	ldi	r25, 0x0C	; 12
    3a86:	03 c0       	rjmp	.+6      	; 0x3a8e <Serial_Get_Date_And_Time+0x170>
			meridien = PM;
			if(hour > 12){
				hour -= 12;
			}
		}else{
			meridien = AM;
    3a88:	60 e0       	ldi	r22, 0x00	; 0
    3a8a:	01 c0       	rjmp	.+2      	; 0x3a8e <Serial_Get_Date_And_Time+0x170>
		/* Determine the meridien */
		if(hour == 0){
			hour = 12;
			meridien = AM;
		}else if(hour >= 12){
			meridien = PM;
    3a8c:	61 e0       	ldi	r22, 0x01	; 1
			}
		}else{
			meridien = AM;
		}
	
		*data = day;
    3a8e:	40 83       	st	Z, r20
		*(data + 1) = month;
    3a90:	51 83       	std	Z+1, r21	; 0x01
		*(data + 2) = year;
    3a92:	22 83       	std	Z+2, r18	; 0x02
		
		*(data + 3) = hour;
    3a94:	93 83       	std	Z+3, r25	; 0x03
		*(data + 4) = minute;
    3a96:	34 83       	std	Z+4, r19	; 0x04
		*(data + 5) = meridien;
    3a98:	65 83       	std	Z+5, r22	; 0x05
	}

	return value_correct;
}
    3a9a:	df 91       	pop	r29
    3a9c:	cf 91       	pop	r28
    3a9e:	1f 91       	pop	r17
    3aa0:	0f 91       	pop	r16
    3aa2:	ff 90       	pop	r15
    3aa4:	08 95       	ret

00003aa6 <Timer1_Initialize>:
#include "MT_timer.h"
#include "servo_driver.h"

/* Function definition */

void Timer1_Initialize(void){
    3aa6:	cf 93       	push	r28
    3aa8:	df 93       	push	r29
    3aaa:	cd b7       	in	r28, 0x3d	; 61
    3aac:	de b7       	in	r29, 0x3e	; 62
    3aae:	2d 97       	sbiw	r28, 0x0d	; 13
    3ab0:	0f b6       	in	r0, 0x3f	; 63
    3ab2:	f8 94       	cli
    3ab4:	de bf       	out	0x3e, r29	; 62
    3ab6:	0f be       	out	0x3f, r0	; 63
    3ab8:	cd bf       	out	0x3d, r28	; 61
	
	Timer_16b_t	my_timer;
	
	my_timer.clock = Timer_Clk_Disabled;
    3aba:	1f 82       	std	Y+7, r1	; 0x07
	my_timer.mode = Timer_16b_Fast_PWM_OCRA_Mode;
    3abc:	8f e0       	ldi	r24, 0x0F	; 15
    3abe:	88 87       	std	Y+8, r24	; 0x08
	my_timer.OCRA = 9999;
    3ac0:	8f e0       	ldi	r24, 0x0F	; 15
    3ac2:	97 e2       	ldi	r25, 0x27	; 39
    3ac4:	9a 83       	std	Y+2, r25	; 0x02
    3ac6:	89 83       	std	Y+1, r24	; 0x01
	my_timer.OCRB = 0;
    3ac8:	1c 82       	std	Y+4, r1	; 0x04
    3aca:	1b 82       	std	Y+3, r1	; 0x03
	my_timer.ICR = 0;
    3acc:	1e 82       	std	Y+6, r1	; 0x06
    3ace:	1d 82       	std	Y+5, r1	; 0x05
	my_timer.OCA = OC_Disabled;
    3ad0:	19 86       	std	Y+9, r1	; 0x09
	my_timer.OCB = OC_Disabled;
    3ad2:	1a 86       	std	Y+10, r1	; 0x0a
	my_timer.interrupt_mask = Timer_CompA_IE;
    3ad4:	82 e0       	ldi	r24, 0x02	; 2
    3ad6:	8d 87       	std	Y+13, r24	; 0x0d
	
	Timer1_Configurar(&my_timer);
    3ad8:	ce 01       	movw	r24, r28
    3ada:	01 96       	adiw	r24, 0x01	; 1
    3adc:	0e 94 c8 18 	call	0x3190	; 0x3190 <Timer1_Configurar>
}
    3ae0:	2d 96       	adiw	r28, 0x0d	; 13
    3ae2:	0f b6       	in	r0, 0x3f	; 63
    3ae4:	f8 94       	cli
    3ae6:	de bf       	out	0x3e, r29	; 62
    3ae8:	0f be       	out	0x3f, r0	; 63
    3aea:	cd bf       	out	0x3d, r28	; 61
    3aec:	df 91       	pop	r29
    3aee:	cf 91       	pop	r28
    3af0:	08 95       	ret

00003af2 <Servo_Initialize>:


void Servo_Initialize(void){
	
	/* Initialize the flag */
	system_flags |= (1 << SERVO_POS_COMPLETE_FLAG);
    3af2:	80 91 12 03 	lds	r24, 0x0312	; 0x800312 <system_flags>
    3af6:	90 91 13 03 	lds	r25, 0x0313	; 0x800313 <system_flags+0x1>
    3afa:	84 60       	ori	r24, 0x04	; 4
    3afc:	90 93 13 03 	sts	0x0313, r25	; 0x800313 <system_flags+0x1>
    3b00:	80 93 12 03 	sts	0x0312, r24	; 0x800312 <system_flags>
	
	/* Disable the power supply to "brake" the servomotor  */
	DDR_SERVO_ON |= (1<< SERVO_ON);
    3b04:	8a b1       	in	r24, 0x0a	; 10
    3b06:	80 68       	ori	r24, 0x80	; 128
    3b08:	8a b9       	out	0x0a, r24	; 10
	PORT_SERVO_ON &= ~(1 << SERVO_ON);
    3b0a:	8b b1       	in	r24, 0x0b	; 11
    3b0c:	8f 77       	andi	r24, 0x7F	; 127
    3b0e:	8b b9       	out	0x0b, r24	; 11
	
	/* Force the PWM output to LOW */
	DDR_SERVO_PWM |= (1 << SERVO_PWM);
    3b10:	84 b1       	in	r24, 0x04	; 4
    3b12:	84 60       	ori	r24, 0x04	; 4
    3b14:	84 b9       	out	0x04, r24	; 4
	PORT_SERVO_PWM &= ~(1 <<SERVO_PWM);
    3b16:	85 b1       	in	r24, 0x05	; 5
    3b18:	8b 7f       	andi	r24, 0xFB	; 251
    3b1a:	85 b9       	out	0x05, r24	; 5
	
	/* Configure Timer1 - OC1B as PWM with 20ms period */ 
	Timer1_Initialize();	
    3b1c:	0e 94 53 1d 	call	0x3aa6	; 0x3aa6 <Timer1_Initialize>
    3b20:	08 95       	ret

00003b22 <Servo_Set_Position>:
}


void Servo_Set_Position(Indicator_Position_t pos){
	OCR1B = pos;
    3b22:	90 93 8b 00 	sts	0x008B, r25	; 0x80008b <__TEXT_REGION_LENGTH__+0x7f808b>
    3b26:	80 93 8a 00 	sts	0x008A, r24	; 0x80008a <__TEXT_REGION_LENGTH__+0x7f808a>
    3b2a:	08 95       	ret

00003b2c <Servo_Start>:
}


void Servo_Start(void){
	/* Enable servo PWM and power supply */
	PORT_SERVO_ON |= ( 1<< SERVO_ON);
    3b2c:	8b b1       	in	r24, 0x0b	; 11
    3b2e:	80 68       	ori	r24, 0x80	; 128
    3b30:	8b b9       	out	0x0b, r24	; 11
	TCCR1A &= ~(1 << COM1B0);
    3b32:	e0 e8       	ldi	r30, 0x80	; 128
    3b34:	f0 e0       	ldi	r31, 0x00	; 0
    3b36:	80 81       	ld	r24, Z
    3b38:	8f 7e       	andi	r24, 0xEF	; 239
    3b3a:	80 83       	st	Z, r24
	TCCR1A |= (1 << COM1B1);
    3b3c:	80 81       	ld	r24, Z
    3b3e:	80 62       	ori	r24, 0x20	; 32
    3b40:	80 83       	st	Z, r24
	
	/* Reset and start Timer1 */
	TCNT1 = 0x0000;
    3b42:	10 92 85 00 	sts	0x0085, r1	; 0x800085 <__TEXT_REGION_LENGTH__+0x7f8085>
    3b46:	10 92 84 00 	sts	0x0084, r1	; 0x800084 <__TEXT_REGION_LENGTH__+0x7f8084>
	TCCR1B &= ~((1 << CS12) | (1 << CS11) | (1 << CS10)); 
    3b4a:	e1 e8       	ldi	r30, 0x81	; 129
    3b4c:	f0 e0       	ldi	r31, 0x00	; 0
    3b4e:	80 81       	ld	r24, Z
    3b50:	88 7f       	andi	r24, 0xF8	; 248
    3b52:	80 83       	st	Z, r24
	TCCR1B |= (1 << CS11);
    3b54:	80 81       	ld	r24, Z
    3b56:	82 60       	ori	r24, 0x02	; 2
    3b58:	80 83       	st	Z, r24
	
	/* Initialize the flag */
	cli();
    3b5a:	f8 94       	cli
	system_flags &= ~(1 << SERVO_POS_COMPLETE_FLAG);
    3b5c:	80 91 12 03 	lds	r24, 0x0312	; 0x800312 <system_flags>
    3b60:	90 91 13 03 	lds	r25, 0x0313	; 0x800313 <system_flags+0x1>
    3b64:	8b 7f       	andi	r24, 0xFB	; 251
    3b66:	90 93 13 03 	sts	0x0313, r25	; 0x800313 <system_flags+0x1>
    3b6a:	80 93 12 03 	sts	0x0312, r24	; 0x800312 <system_flags>
	sei();
    3b6e:	78 94       	sei
    3b70:	08 95       	ret

00003b72 <Servo_Stop>:
}


void Servo_Stop(void){
	/* Stop and reset Timer1 */
	TCCR1B &= ~((1 << CS12) | (1 << CS11) | (1 << CS10));
    3b72:	e1 e8       	ldi	r30, 0x81	; 129
    3b74:	f0 e0       	ldi	r31, 0x00	; 0
    3b76:	80 81       	ld	r24, Z
    3b78:	88 7f       	andi	r24, 0xF8	; 248
    3b7a:	80 83       	st	Z, r24
	TCNT1 = 0x0000;
    3b7c:	10 92 85 00 	sts	0x0085, r1	; 0x800085 <__TEXT_REGION_LENGTH__+0x7f8085>
    3b80:	10 92 84 00 	sts	0x0084, r1	; 0x800084 <__TEXT_REGION_LENGTH__+0x7f8084>
	
	/*Disable th servo PWM signal and power supply*/
	PORT_SERVO_PWM &= ~(1 << SERVO_PWM);
    3b84:	85 b1       	in	r24, 0x05	; 5
    3b86:	8b 7f       	andi	r24, 0xFB	; 251
    3b88:	85 b9       	out	0x05, r24	; 5
	TCCR1A &= ~((1 << COM1B1) | (1 << COM1B0));
    3b8a:	e0 e8       	ldi	r30, 0x80	; 128
    3b8c:	f0 e0       	ldi	r31, 0x00	; 0
    3b8e:	80 81       	ld	r24, Z
    3b90:	8f 7c       	andi	r24, 0xCF	; 207
    3b92:	80 83       	st	Z, r24
	PORT_SERVO_ON &= ~(1 << SERVO_ON);
    3b94:	8b b1       	in	r24, 0x0b	; 11
    3b96:	8f 77       	andi	r24, 0x7F	; 127
    3b98:	8b b9       	out	0x0b, r24	; 11
	
	/* Set the flag */
	system_flags |= (1 << SERVO_POS_COMPLETE_FLAG);
    3b9a:	80 91 12 03 	lds	r24, 0x0312	; 0x800312 <system_flags>
    3b9e:	90 91 13 03 	lds	r25, 0x0313	; 0x800313 <system_flags+0x1>
    3ba2:	84 60       	ori	r24, 0x04	; 4
    3ba4:	90 93 13 03 	sts	0x0313, r25	; 0x800313 <system_flags+0x1>
    3ba8:	80 93 12 03 	sts	0x0312, r24	; 0x800312 <system_flags>
    3bac:	08 95       	ret

00003bae <Servo_On>:
}

void Servo_On(void){
	PORT_SERVO_ON |= ( 1<< SERVO_ON);	
    3bae:	8b b1       	in	r24, 0x0b	; 11
    3bb0:	80 68       	ori	r24, 0x80	; 128
    3bb2:	8b b9       	out	0x0b, r24	; 11
    3bb4:	08 95       	ret

00003bb6 <Servo_Off>:
}


void Servo_Off(void){
	PORT_SERVO_ON &= ~(1 << SERVO_ON);	
    3bb6:	8b b1       	in	r24, 0x0b	; 11
    3bb8:	8f 77       	andi	r24, 0x7F	; 127
    3bba:	8b b9       	out	0x0b, r24	; 11
    3bbc:	08 95       	ret

00003bbe <Xbee_Interface_UART_Init>:
		data_frame_transfer_status = DATA_FRAME_TIMEOUT;
	}
	
	return data_frame_transfer_status;
	
}
    3bbe:	cf 93       	push	r28
    3bc0:	df 93       	push	r29
    3bc2:	cd b7       	in	r28, 0x3d	; 61
    3bc4:	de b7       	in	r29, 0x3e	; 62
    3bc6:	2b 97       	sbiw	r28, 0x0b	; 11
    3bc8:	0f b6       	in	r0, 0x3f	; 63
    3bca:	f8 94       	cli
    3bcc:	de bf       	out	0x3e, r29	; 62
    3bce:	0f be       	out	0x3f, r0	; 63
    3bd0:	cd bf       	out	0x3d, r28	; 61
    3bd2:	80 e0       	ldi	r24, 0x00	; 0
    3bd4:	96 e9       	ldi	r25, 0x96	; 150
    3bd6:	a0 e0       	ldi	r26, 0x00	; 0
    3bd8:	b0 e0       	ldi	r27, 0x00	; 0
    3bda:	8a 83       	std	Y+2, r24	; 0x02
    3bdc:	9b 83       	std	Y+3, r25	; 0x03
    3bde:	ac 83       	std	Y+4, r26	; 0x04
    3be0:	bd 83       	std	Y+5, r27	; 0x05
    3be2:	83 e0       	ldi	r24, 0x03	; 3
    3be4:	88 87       	std	Y+8, r24	; 0x08
    3be6:	1a 86       	std	Y+10, r1	; 0x0a
    3be8:	19 86       	std	Y+9, r1	; 0x09
    3bea:	81 e0       	ldi	r24, 0x01	; 1
    3bec:	89 83       	std	Y+1, r24	; 0x01
    3bee:	8e 83       	std	Y+6, r24	; 0x06
    3bf0:	1f 82       	std	Y+7, r1	; 0x07
    3bf2:	1b 86       	std	Y+11, r1	; 0x0b
    3bf4:	ce 01       	movw	r24, r28
    3bf6:	01 96       	adiw	r24, 0x01	; 1
    3bf8:	0e 94 56 1a 	call	0x34ac	; 0x34ac <UART0_Configurar>
    3bfc:	2b 96       	adiw	r28, 0x0b	; 11
    3bfe:	0f b6       	in	r0, 0x3f	; 63
    3c00:	f8 94       	cli
    3c02:	de bf       	out	0x3e, r29	; 62
    3c04:	0f be       	out	0x3f, r0	; 63
    3c06:	cd bf       	out	0x3d, r28	; 61
    3c08:	df 91       	pop	r29
    3c0a:	cf 91       	pop	r28
    3c0c:	08 95       	ret

00003c0e <Xbee_Interface_Initialize>:
    3c0e:	8a b1       	in	r24, 0x0a	; 10
    3c10:	80 62       	ori	r24, 0x20	; 32
    3c12:	8a b9       	out	0x0a, r24	; 10
    3c14:	8b b1       	in	r24, 0x0b	; 11
    3c16:	8f 7d       	andi	r24, 0xDF	; 223
    3c18:	8b b9       	out	0x0b, r24	; 11
    3c1a:	0e 94 df 1d 	call	0x3bbe	; 0x3bbe <Xbee_Interface_UART_Init>
    3c1e:	08 95       	ret

00003c20 <Xbee_Build_Data_Frame>:
    3c20:	ef 92       	push	r14
    3c22:	ff 92       	push	r15
    3c24:	0f 93       	push	r16
    3c26:	1f 93       	push	r17
    3c28:	cf 93       	push	r28
    3c2a:	df 93       	push	r29
    3c2c:	ec 01       	movw	r28, r24
    3c2e:	05 e0       	ldi	r16, 0x05	; 5
    3c30:	16 e0       	ldi	r17, 0x06	; 6
    3c32:	8b e7       	ldi	r24, 0x7B	; 123
    3c34:	f8 01       	movw	r30, r16
    3c36:	80 83       	st	Z, r24
    3c38:	60 e2       	ldi	r22, 0x20	; 32
    3c3a:	73 e0       	ldi	r23, 0x03	; 3
    3c3c:	86 e0       	ldi	r24, 0x06	; 6
    3c3e:	96 e0       	ldi	r25, 0x06	; 6
    3c40:	0e 94 e4 21 	call	0x43c8	; 0x43c8 <strcpy_P>
    3c44:	0f 2e       	mov	r0, r31
    3c46:	fa e3       	ldi	r31, 0x3A	; 58
    3c48:	ff 2e       	mov	r15, r31
    3c4a:	f0 2d       	mov	r31, r0
    3c4c:	f8 01       	movw	r30, r16
    3c4e:	f3 8a       	std	Z+19, r15	; 0x13
    3c50:	68 81       	ld	r22, Y
    3c52:	79 81       	ldd	r23, Y+1	; 0x01
    3c54:	89 e1       	ldi	r24, 0x19	; 25
    3c56:	96 e0       	ldi	r25, 0x06	; 6
    3c58:	0e 94 f4 21 	call	0x43e8	; 0x43e8 <strcpy>
    3c5c:	e8 81       	ld	r30, Y
    3c5e:	f9 81       	ldd	r31, Y+1	; 0x01
    3c60:	df 01       	movw	r26, r30
    3c62:	0d 90       	ld	r0, X+
    3c64:	00 20       	and	r0, r0
    3c66:	e9 f7       	brne	.-6      	; 0x3c62 <Xbee_Build_Data_Frame+0x42>
    3c68:	11 97       	sbiw	r26, 0x01	; 1
    3c6a:	8d 01       	movw	r16, r26
    3c6c:	0e 1b       	sub	r16, r30
    3c6e:	1f 0b       	sbc	r17, r31
    3c70:	f8 01       	movw	r30, r16
    3c72:	e7 5e       	subi	r30, 0xE7	; 231
    3c74:	f9 4f       	sbci	r31, 0xF9	; 249
    3c76:	0f 2e       	mov	r0, r31
    3c78:	fc e2       	ldi	r31, 0x2C	; 44
    3c7a:	ef 2e       	mov	r14, r31
    3c7c:	f0 2d       	mov	r31, r0
    3c7e:	e0 82       	st	Z, r14
    3c80:	60 e1       	ldi	r22, 0x10	; 16
    3c82:	73 e0       	ldi	r23, 0x03	; 3
    3c84:	c8 01       	movw	r24, r16
    3c86:	86 5e       	subi	r24, 0xE6	; 230
    3c88:	99 4f       	sbci	r25, 0xF9	; 249
    3c8a:	0e 94 e4 21 	call	0x43c8	; 0x43c8 <strcpy_P>
    3c8e:	f8 01       	movw	r30, r16
    3c90:	e7 5d       	subi	r30, 0xD7	; 215
    3c92:	f9 4f       	sbci	r31, 0xF9	; 249
    3c94:	f0 82       	st	Z, r15
    3c96:	0b 5d       	subi	r16, 0xDB	; 219
    3c98:	1f 4f       	sbci	r17, 0xFF	; 255
    3c9a:	6a 81       	ldd	r22, Y+2	; 0x02
    3c9c:	7b 81       	ldd	r23, Y+3	; 0x03
    3c9e:	c8 01       	movw	r24, r16
    3ca0:	8b 5f       	subi	r24, 0xFB	; 251
    3ca2:	99 4f       	sbci	r25, 0xF9	; 249
    3ca4:	0e 94 f4 21 	call	0x43e8	; 0x43e8 <strcpy>
    3ca8:	aa 81       	ldd	r26, Y+2	; 0x02
    3caa:	bb 81       	ldd	r27, Y+3	; 0x03
    3cac:	fd 01       	movw	r30, r26
    3cae:	01 90       	ld	r0, Z+
    3cb0:	00 20       	and	r0, r0
    3cb2:	e9 f7       	brne	.-6      	; 0x3cae <Xbee_Build_Data_Frame+0x8e>
    3cb4:	31 97       	sbiw	r30, 0x01	; 1
    3cb6:	ea 1b       	sub	r30, r26
    3cb8:	fb 0b       	sbc	r31, r27
    3cba:	0e 0f       	add	r16, r30
    3cbc:	1f 1f       	adc	r17, r31
    3cbe:	f8 01       	movw	r30, r16
    3cc0:	eb 5f       	subi	r30, 0xFB	; 251
    3cc2:	f9 4f       	sbci	r31, 0xF9	; 249
    3cc4:	e0 82       	st	Z, r14
    3cc6:	60 ef       	ldi	r22, 0xF0	; 240
    3cc8:	72 e0       	ldi	r23, 0x02	; 2
    3cca:	c8 01       	movw	r24, r16
    3ccc:	8a 5f       	subi	r24, 0xFA	; 250
    3cce:	99 4f       	sbci	r25, 0xF9	; 249
    3cd0:	0e 94 e4 21 	call	0x43c8	; 0x43c8 <strcpy_P>
    3cd4:	f8 01       	movw	r30, r16
    3cd6:	eb 5d       	subi	r30, 0xDB	; 219
    3cd8:	f9 4f       	sbci	r31, 0xF9	; 249
    3cda:	f0 82       	st	Z, r15
    3cdc:	0f 5d       	subi	r16, 0xDF	; 223
    3cde:	1f 4f       	sbci	r17, 0xFF	; 255
    3ce0:	6c 81       	ldd	r22, Y+4	; 0x04
    3ce2:	7d 81       	ldd	r23, Y+5	; 0x05
    3ce4:	c8 01       	movw	r24, r16
    3ce6:	8b 5f       	subi	r24, 0xFB	; 251
    3ce8:	99 4f       	sbci	r25, 0xF9	; 249
    3cea:	0e 94 f4 21 	call	0x43e8	; 0x43e8 <strcpy>
    3cee:	ac 81       	ldd	r26, Y+4	; 0x04
    3cf0:	bd 81       	ldd	r27, Y+5	; 0x05
    3cf2:	fd 01       	movw	r30, r26
    3cf4:	01 90       	ld	r0, Z+
    3cf6:	00 20       	and	r0, r0
    3cf8:	e9 f7       	brne	.-6      	; 0x3cf4 <Xbee_Build_Data_Frame+0xd4>
    3cfa:	31 97       	sbiw	r30, 0x01	; 1
    3cfc:	ea 1b       	sub	r30, r26
    3cfe:	fb 0b       	sbc	r31, r27
    3d00:	0e 0f       	add	r16, r30
    3d02:	1f 1f       	adc	r17, r31
    3d04:	f8 01       	movw	r30, r16
    3d06:	eb 5f       	subi	r30, 0xFB	; 251
    3d08:	f9 4f       	sbci	r31, 0xF9	; 249
    3d0a:	e0 82       	st	Z, r14
    3d0c:	6f ed       	ldi	r22, 0xDF	; 223
    3d0e:	72 e0       	ldi	r23, 0x02	; 2
    3d10:	c8 01       	movw	r24, r16
    3d12:	8a 5f       	subi	r24, 0xFA	; 250
    3d14:	99 4f       	sbci	r25, 0xF9	; 249
    3d16:	0e 94 e4 21 	call	0x43c8	; 0x43c8 <strcpy_P>
    3d1a:	f8 01       	movw	r30, r16
    3d1c:	ea 5e       	subi	r30, 0xEA	; 234
    3d1e:	f9 4f       	sbci	r31, 0xF9	; 249
    3d20:	f0 82       	st	Z, r15
    3d22:	0e 5e       	subi	r16, 0xEE	; 238
    3d24:	1f 4f       	sbci	r17, 0xFF	; 255
    3d26:	6e 81       	ldd	r22, Y+6	; 0x06
    3d28:	7f 81       	ldd	r23, Y+7	; 0x07
    3d2a:	c8 01       	movw	r24, r16
    3d2c:	8b 5f       	subi	r24, 0xFB	; 251
    3d2e:	99 4f       	sbci	r25, 0xF9	; 249
    3d30:	0e 94 f4 21 	call	0x43e8	; 0x43e8 <strcpy>
    3d34:	ae 81       	ldd	r26, Y+6	; 0x06
    3d36:	bf 81       	ldd	r27, Y+7	; 0x07
    3d38:	fd 01       	movw	r30, r26
    3d3a:	01 90       	ld	r0, Z+
    3d3c:	00 20       	and	r0, r0
    3d3e:	e9 f7       	brne	.-6      	; 0x3d3a <Xbee_Build_Data_Frame+0x11a>
    3d40:	31 97       	sbiw	r30, 0x01	; 1
    3d42:	ea 1b       	sub	r30, r26
    3d44:	fb 0b       	sbc	r31, r27
    3d46:	0e 0f       	add	r16, r30
    3d48:	1f 1f       	adc	r17, r31
    3d4a:	f8 01       	movw	r30, r16
    3d4c:	eb 5f       	subi	r30, 0xFB	; 251
    3d4e:	f9 4f       	sbci	r31, 0xF9	; 249
    3d50:	e0 82       	st	Z, r14
    3d52:	63 ec       	ldi	r22, 0xC3	; 195
    3d54:	72 e0       	ldi	r23, 0x02	; 2
    3d56:	c8 01       	movw	r24, r16
    3d58:	8a 5f       	subi	r24, 0xFA	; 250
    3d5a:	99 4f       	sbci	r25, 0xF9	; 249
    3d5c:	0e 94 e4 21 	call	0x43c8	; 0x43c8 <strcpy_P>
    3d60:	f8 01       	movw	r30, r16
    3d62:	ef 5d       	subi	r30, 0xDF	; 223
    3d64:	f9 4f       	sbci	r31, 0xF9	; 249
    3d66:	f0 82       	st	Z, r15
    3d68:	03 5e       	subi	r16, 0xE3	; 227
    3d6a:	1f 4f       	sbci	r17, 0xFF	; 255
    3d6c:	68 85       	ldd	r22, Y+8	; 0x08
    3d6e:	79 85       	ldd	r23, Y+9	; 0x09
    3d70:	c8 01       	movw	r24, r16
    3d72:	8b 5f       	subi	r24, 0xFB	; 251
    3d74:	99 4f       	sbci	r25, 0xF9	; 249
    3d76:	0e 94 f4 21 	call	0x43e8	; 0x43e8 <strcpy>
    3d7a:	a8 85       	ldd	r26, Y+8	; 0x08
    3d7c:	b9 85       	ldd	r27, Y+9	; 0x09
    3d7e:	fd 01       	movw	r30, r26
    3d80:	01 90       	ld	r0, Z+
    3d82:	00 20       	and	r0, r0
    3d84:	e9 f7       	brne	.-6      	; 0x3d80 <Xbee_Build_Data_Frame+0x160>
    3d86:	31 97       	sbiw	r30, 0x01	; 1
    3d88:	ea 1b       	sub	r30, r26
    3d8a:	fb 0b       	sbc	r31, r27
    3d8c:	0e 0f       	add	r16, r30
    3d8e:	1f 1f       	adc	r17, r31
    3d90:	f8 01       	movw	r30, r16
    3d92:	eb 5f       	subi	r30, 0xFB	; 251
    3d94:	f9 4f       	sbci	r31, 0xF9	; 249
    3d96:	e0 82       	st	Z, r14
    3d98:	62 ea       	ldi	r22, 0xA2	; 162
    3d9a:	72 e0       	ldi	r23, 0x02	; 2
    3d9c:	c8 01       	movw	r24, r16
    3d9e:	8a 5f       	subi	r24, 0xFA	; 250
    3da0:	99 4f       	sbci	r25, 0xF9	; 249
    3da2:	0e 94 e4 21 	call	0x43c8	; 0x43c8 <strcpy_P>
    3da6:	f8 01       	movw	r30, r16
    3da8:	ea 5d       	subi	r30, 0xDA	; 218
    3daa:	f9 4f       	sbci	r31, 0xF9	; 249
    3dac:	f0 82       	st	Z, r15
    3dae:	0e 5d       	subi	r16, 0xDE	; 222
    3db0:	1f 4f       	sbci	r17, 0xFF	; 255
    3db2:	6a 85       	ldd	r22, Y+10	; 0x0a
    3db4:	7b 85       	ldd	r23, Y+11	; 0x0b
    3db6:	c8 01       	movw	r24, r16
    3db8:	8b 5f       	subi	r24, 0xFB	; 251
    3dba:	99 4f       	sbci	r25, 0xF9	; 249
    3dbc:	0e 94 f4 21 	call	0x43e8	; 0x43e8 <strcpy>
    3dc0:	aa 85       	ldd	r26, Y+10	; 0x0a
    3dc2:	bb 85       	ldd	r27, Y+11	; 0x0b
    3dc4:	fd 01       	movw	r30, r26
    3dc6:	01 90       	ld	r0, Z+
    3dc8:	00 20       	and	r0, r0
    3dca:	e9 f7       	brne	.-6      	; 0x3dc6 <Xbee_Build_Data_Frame+0x1a6>
    3dcc:	31 97       	sbiw	r30, 0x01	; 1
    3dce:	ea 1b       	sub	r30, r26
    3dd0:	fb 0b       	sbc	r31, r27
    3dd2:	0e 0f       	add	r16, r30
    3dd4:	1f 1f       	adc	r17, r31
    3dd6:	f8 01       	movw	r30, r16
    3dd8:	eb 5f       	subi	r30, 0xFB	; 251
    3dda:	f9 4f       	sbci	r31, 0xF9	; 249
    3ddc:	e0 82       	st	Z, r14
    3dde:	6d e8       	ldi	r22, 0x8D	; 141
    3de0:	72 e0       	ldi	r23, 0x02	; 2
    3de2:	c8 01       	movw	r24, r16
    3de4:	8a 5f       	subi	r24, 0xFA	; 250
    3de6:	99 4f       	sbci	r25, 0xF9	; 249
    3de8:	0e 94 e4 21 	call	0x43c8	; 0x43c8 <strcpy_P>
    3dec:	f8 01       	movw	r30, r16
    3dee:	e6 5e       	subi	r30, 0xE6	; 230
    3df0:	f9 4f       	sbci	r31, 0xF9	; 249
    3df2:	f0 82       	st	Z, r15
    3df4:	0a 5e       	subi	r16, 0xEA	; 234
    3df6:	1f 4f       	sbci	r17, 0xFF	; 255
    3df8:	6c 85       	ldd	r22, Y+12	; 0x0c
    3dfa:	7d 85       	ldd	r23, Y+13	; 0x0d
    3dfc:	c8 01       	movw	r24, r16
    3dfe:	8b 5f       	subi	r24, 0xFB	; 251
    3e00:	99 4f       	sbci	r25, 0xF9	; 249
    3e02:	0e 94 f4 21 	call	0x43e8	; 0x43e8 <strcpy>
    3e06:	ac 85       	ldd	r26, Y+12	; 0x0c
    3e08:	bd 85       	ldd	r27, Y+13	; 0x0d
    3e0a:	fd 01       	movw	r30, r26
    3e0c:	01 90       	ld	r0, Z+
    3e0e:	00 20       	and	r0, r0
    3e10:	e9 f7       	brne	.-6      	; 0x3e0c <Xbee_Build_Data_Frame+0x1ec>
    3e12:	31 97       	sbiw	r30, 0x01	; 1
    3e14:	ea 1b       	sub	r30, r26
    3e16:	fb 0b       	sbc	r31, r27
    3e18:	0e 0f       	add	r16, r30
    3e1a:	1f 1f       	adc	r17, r31
    3e1c:	f8 01       	movw	r30, r16
    3e1e:	eb 5f       	subi	r30, 0xFB	; 251
    3e20:	f9 4f       	sbci	r31, 0xF9	; 249
    3e22:	e0 82       	st	Z, r14
    3e24:	6a e7       	ldi	r22, 0x7A	; 122
    3e26:	72 e0       	ldi	r23, 0x02	; 2
    3e28:	c8 01       	movw	r24, r16
    3e2a:	8a 5f       	subi	r24, 0xFA	; 250
    3e2c:	99 4f       	sbci	r25, 0xF9	; 249
    3e2e:	0e 94 e4 21 	call	0x43c8	; 0x43c8 <strcpy_P>
    3e32:	f8 01       	movw	r30, r16
    3e34:	e8 5e       	subi	r30, 0xE8	; 232
    3e36:	f9 4f       	sbci	r31, 0xF9	; 249
    3e38:	f0 82       	st	Z, r15
    3e3a:	0c 5e       	subi	r16, 0xEC	; 236
    3e3c:	1f 4f       	sbci	r17, 0xFF	; 255
    3e3e:	6e 85       	ldd	r22, Y+14	; 0x0e
    3e40:	7f 85       	ldd	r23, Y+15	; 0x0f
    3e42:	c8 01       	movw	r24, r16
    3e44:	8b 5f       	subi	r24, 0xFB	; 251
    3e46:	99 4f       	sbci	r25, 0xF9	; 249
    3e48:	0e 94 f4 21 	call	0x43e8	; 0x43e8 <strcpy>
    3e4c:	ae 85       	ldd	r26, Y+14	; 0x0e
    3e4e:	bf 85       	ldd	r27, Y+15	; 0x0f
    3e50:	fd 01       	movw	r30, r26
    3e52:	01 90       	ld	r0, Z+
    3e54:	00 20       	and	r0, r0
    3e56:	e9 f7       	brne	.-6      	; 0x3e52 <Xbee_Build_Data_Frame+0x232>
    3e58:	31 97       	sbiw	r30, 0x01	; 1
    3e5a:	ea 1b       	sub	r30, r26
    3e5c:	fb 0b       	sbc	r31, r27
    3e5e:	0e 0f       	add	r16, r30
    3e60:	1f 1f       	adc	r17, r31
    3e62:	f8 01       	movw	r30, r16
    3e64:	eb 5f       	subi	r30, 0xFB	; 251
    3e66:	f9 4f       	sbci	r31, 0xF9	; 249
    3e68:	e0 82       	st	Z, r14
    3e6a:	67 e6       	ldi	r22, 0x67	; 103
    3e6c:	72 e0       	ldi	r23, 0x02	; 2
    3e6e:	c8 01       	movw	r24, r16
    3e70:	8a 5f       	subi	r24, 0xFA	; 250
    3e72:	99 4f       	sbci	r25, 0xF9	; 249
    3e74:	0e 94 e4 21 	call	0x43c8	; 0x43c8 <strcpy_P>
    3e78:	f8 01       	movw	r30, r16
    3e7a:	e8 5e       	subi	r30, 0xE8	; 232
    3e7c:	f9 4f       	sbci	r31, 0xF9	; 249
    3e7e:	f0 82       	st	Z, r15
    3e80:	0c 5e       	subi	r16, 0xEC	; 236
    3e82:	1f 4f       	sbci	r17, 0xFF	; 255
    3e84:	68 89       	ldd	r22, Y+16	; 0x10
    3e86:	79 89       	ldd	r23, Y+17	; 0x11
    3e88:	c8 01       	movw	r24, r16
    3e8a:	8b 5f       	subi	r24, 0xFB	; 251
    3e8c:	99 4f       	sbci	r25, 0xF9	; 249
    3e8e:	0e 94 f4 21 	call	0x43e8	; 0x43e8 <strcpy>
    3e92:	e8 89       	ldd	r30, Y+16	; 0x10
    3e94:	f9 89       	ldd	r31, Y+17	; 0x11
    3e96:	df 01       	movw	r26, r30
    3e98:	0d 90       	ld	r0, X+
    3e9a:	00 20       	and	r0, r0
    3e9c:	e9 f7       	brne	.-6      	; 0x3e98 <Xbee_Build_Data_Frame+0x278>
    3e9e:	11 97       	sbiw	r26, 0x01	; 1
    3ea0:	ae 1b       	sub	r26, r30
    3ea2:	bf 0b       	sbc	r27, r31
    3ea4:	0a 0f       	add	r16, r26
    3ea6:	1b 1f       	adc	r17, r27
    3ea8:	f8 01       	movw	r30, r16
    3eaa:	eb 5f       	subi	r30, 0xFB	; 251
    3eac:	f9 4f       	sbci	r31, 0xF9	; 249
    3eae:	e0 82       	st	Z, r14
    3eb0:	64 e5       	ldi	r22, 0x54	; 84
    3eb2:	72 e0       	ldi	r23, 0x02	; 2
    3eb4:	c8 01       	movw	r24, r16
    3eb6:	8a 5f       	subi	r24, 0xFA	; 250
    3eb8:	99 4f       	sbci	r25, 0xF9	; 249
    3eba:	0e 94 e4 21 	call	0x43c8	; 0x43c8 <strcpy_P>
    3ebe:	f8 01       	movw	r30, r16
    3ec0:	e8 5e       	subi	r30, 0xE8	; 232
    3ec2:	f9 4f       	sbci	r31, 0xF9	; 249
    3ec4:	f0 82       	st	Z, r15
    3ec6:	0c 5e       	subi	r16, 0xEC	; 236
    3ec8:	1f 4f       	sbci	r17, 0xFF	; 255
    3eca:	6a 89       	ldd	r22, Y+18	; 0x12
    3ecc:	7b 89       	ldd	r23, Y+19	; 0x13
    3ece:	c8 01       	movw	r24, r16
    3ed0:	8b 5f       	subi	r24, 0xFB	; 251
    3ed2:	99 4f       	sbci	r25, 0xF9	; 249
    3ed4:	0e 94 f4 21 	call	0x43e8	; 0x43e8 <strcpy>
    3ed8:	ea 89       	ldd	r30, Y+18	; 0x12
    3eda:	fb 89       	ldd	r31, Y+19	; 0x13
    3edc:	df 01       	movw	r26, r30
    3ede:	0d 90       	ld	r0, X+
    3ee0:	00 20       	and	r0, r0
    3ee2:	e9 f7       	brne	.-6      	; 0x3ede <Xbee_Build_Data_Frame+0x2be>
    3ee4:	11 97       	sbiw	r26, 0x01	; 1
    3ee6:	ae 1b       	sub	r26, r30
    3ee8:	bf 0b       	sbc	r27, r31
    3eea:	0a 0f       	add	r16, r26
    3eec:	1b 1f       	adc	r17, r27
    3eee:	d8 01       	movw	r26, r16
    3ef0:	ab 5f       	subi	r26, 0xFB	; 251
    3ef2:	b9 4f       	sbci	r27, 0xF9	; 249
    3ef4:	85 e0       	ldi	r24, 0x05	; 5
    3ef6:	ed e4       	ldi	r30, 0x4D	; 77
    3ef8:	f1 e0       	ldi	r31, 0x01	; 1
    3efa:	01 90       	ld	r0, Z+
    3efc:	0d 92       	st	X+, r0
    3efe:	8a 95       	dec	r24
    3f00:	e1 f7       	brne	.-8      	; 0x3efa <Xbee_Build_Data_Frame+0x2da>
    3f02:	df 91       	pop	r29
    3f04:	cf 91       	pop	r28
    3f06:	1f 91       	pop	r17
    3f08:	0f 91       	pop	r16
    3f0a:	ff 90       	pop	r15
    3f0c:	ef 90       	pop	r14
    3f0e:	08 95       	ret

00003f10 <Xbee_Get_Data_Frame_Buffer_Pointer>:

uint8_t *Xbee_Get_Data_Frame_Buffer_Pointer(void){
	
	return xbee_data_frame_buffer;

}
    3f10:	85 e0       	ldi	r24, 0x05	; 5
    3f12:	96 e0       	ldi	r25, 0x06	; 6
    3f14:	08 95       	ret

00003f16 <__subsf3>:
    3f16:	50 58       	subi	r21, 0x80	; 128

00003f18 <__addsf3>:
    3f18:	bb 27       	eor	r27, r27
    3f1a:	aa 27       	eor	r26, r26
    3f1c:	0e 94 a3 1f 	call	0x3f46	; 0x3f46 <__addsf3x>
    3f20:	0c 94 16 21 	jmp	0x422c	; 0x422c <__fp_round>
    3f24:	0e 94 08 21 	call	0x4210	; 0x4210 <__fp_pscA>
    3f28:	38 f0       	brcs	.+14     	; 0x3f38 <__addsf3+0x20>
    3f2a:	0e 94 0f 21 	call	0x421e	; 0x421e <__fp_pscB>
    3f2e:	20 f0       	brcs	.+8      	; 0x3f38 <__addsf3+0x20>
    3f30:	39 f4       	brne	.+14     	; 0x3f40 <__addsf3+0x28>
    3f32:	9f 3f       	cpi	r25, 0xFF	; 255
    3f34:	19 f4       	brne	.+6      	; 0x3f3c <__addsf3+0x24>
    3f36:	26 f4       	brtc	.+8      	; 0x3f40 <__addsf3+0x28>
    3f38:	0c 94 05 21 	jmp	0x420a	; 0x420a <__fp_nan>
    3f3c:	0e f4       	brtc	.+2      	; 0x3f40 <__addsf3+0x28>
    3f3e:	e0 95       	com	r30
    3f40:	e7 fb       	bst	r30, 7
    3f42:	0c 94 ff 20 	jmp	0x41fe	; 0x41fe <__fp_inf>

00003f46 <__addsf3x>:
    3f46:	e9 2f       	mov	r30, r25
    3f48:	0e 94 27 21 	call	0x424e	; 0x424e <__fp_split3>
    3f4c:	58 f3       	brcs	.-42     	; 0x3f24 <__addsf3+0xc>
    3f4e:	ba 17       	cp	r27, r26
    3f50:	62 07       	cpc	r22, r18
    3f52:	73 07       	cpc	r23, r19
    3f54:	84 07       	cpc	r24, r20
    3f56:	95 07       	cpc	r25, r21
    3f58:	20 f0       	brcs	.+8      	; 0x3f62 <__addsf3x+0x1c>
    3f5a:	79 f4       	brne	.+30     	; 0x3f7a <__addsf3x+0x34>
    3f5c:	a6 f5       	brtc	.+104    	; 0x3fc6 <__addsf3x+0x80>
    3f5e:	0c 94 49 21 	jmp	0x4292	; 0x4292 <__fp_zero>
    3f62:	0e f4       	brtc	.+2      	; 0x3f66 <__addsf3x+0x20>
    3f64:	e0 95       	com	r30
    3f66:	0b 2e       	mov	r0, r27
    3f68:	ba 2f       	mov	r27, r26
    3f6a:	a0 2d       	mov	r26, r0
    3f6c:	0b 01       	movw	r0, r22
    3f6e:	b9 01       	movw	r22, r18
    3f70:	90 01       	movw	r18, r0
    3f72:	0c 01       	movw	r0, r24
    3f74:	ca 01       	movw	r24, r20
    3f76:	a0 01       	movw	r20, r0
    3f78:	11 24       	eor	r1, r1
    3f7a:	ff 27       	eor	r31, r31
    3f7c:	59 1b       	sub	r21, r25
    3f7e:	99 f0       	breq	.+38     	; 0x3fa6 <__addsf3x+0x60>
    3f80:	59 3f       	cpi	r21, 0xF9	; 249
    3f82:	50 f4       	brcc	.+20     	; 0x3f98 <__addsf3x+0x52>
    3f84:	50 3e       	cpi	r21, 0xE0	; 224
    3f86:	68 f1       	brcs	.+90     	; 0x3fe2 <__addsf3x+0x9c>
    3f88:	1a 16       	cp	r1, r26
    3f8a:	f0 40       	sbci	r31, 0x00	; 0
    3f8c:	a2 2f       	mov	r26, r18
    3f8e:	23 2f       	mov	r18, r19
    3f90:	34 2f       	mov	r19, r20
    3f92:	44 27       	eor	r20, r20
    3f94:	58 5f       	subi	r21, 0xF8	; 248
    3f96:	f3 cf       	rjmp	.-26     	; 0x3f7e <__addsf3x+0x38>
    3f98:	46 95       	lsr	r20
    3f9a:	37 95       	ror	r19
    3f9c:	27 95       	ror	r18
    3f9e:	a7 95       	ror	r26
    3fa0:	f0 40       	sbci	r31, 0x00	; 0
    3fa2:	53 95       	inc	r21
    3fa4:	c9 f7       	brne	.-14     	; 0x3f98 <__addsf3x+0x52>
    3fa6:	7e f4       	brtc	.+30     	; 0x3fc6 <__addsf3x+0x80>
    3fa8:	1f 16       	cp	r1, r31
    3faa:	ba 0b       	sbc	r27, r26
    3fac:	62 0b       	sbc	r22, r18
    3fae:	73 0b       	sbc	r23, r19
    3fb0:	84 0b       	sbc	r24, r20
    3fb2:	ba f0       	brmi	.+46     	; 0x3fe2 <__addsf3x+0x9c>
    3fb4:	91 50       	subi	r25, 0x01	; 1
    3fb6:	a1 f0       	breq	.+40     	; 0x3fe0 <__addsf3x+0x9a>
    3fb8:	ff 0f       	add	r31, r31
    3fba:	bb 1f       	adc	r27, r27
    3fbc:	66 1f       	adc	r22, r22
    3fbe:	77 1f       	adc	r23, r23
    3fc0:	88 1f       	adc	r24, r24
    3fc2:	c2 f7       	brpl	.-16     	; 0x3fb4 <__addsf3x+0x6e>
    3fc4:	0e c0       	rjmp	.+28     	; 0x3fe2 <__addsf3x+0x9c>
    3fc6:	ba 0f       	add	r27, r26
    3fc8:	62 1f       	adc	r22, r18
    3fca:	73 1f       	adc	r23, r19
    3fcc:	84 1f       	adc	r24, r20
    3fce:	48 f4       	brcc	.+18     	; 0x3fe2 <__addsf3x+0x9c>
    3fd0:	87 95       	ror	r24
    3fd2:	77 95       	ror	r23
    3fd4:	67 95       	ror	r22
    3fd6:	b7 95       	ror	r27
    3fd8:	f7 95       	ror	r31
    3fda:	9e 3f       	cpi	r25, 0xFE	; 254
    3fdc:	08 f0       	brcs	.+2      	; 0x3fe0 <__addsf3x+0x9a>
    3fde:	b0 cf       	rjmp	.-160    	; 0x3f40 <__addsf3+0x28>
    3fe0:	93 95       	inc	r25
    3fe2:	88 0f       	add	r24, r24
    3fe4:	08 f0       	brcs	.+2      	; 0x3fe8 <__addsf3x+0xa2>
    3fe6:	99 27       	eor	r25, r25
    3fe8:	ee 0f       	add	r30, r30
    3fea:	97 95       	ror	r25
    3fec:	87 95       	ror	r24
    3fee:	08 95       	ret

00003ff0 <__cmpsf2>:
    3ff0:	0e 94 db 20 	call	0x41b6	; 0x41b6 <__fp_cmp>
    3ff4:	08 f4       	brcc	.+2      	; 0x3ff8 <__cmpsf2+0x8>
    3ff6:	81 e0       	ldi	r24, 0x01	; 1
    3ff8:	08 95       	ret

00003ffa <__divsf3>:
    3ffa:	0e 94 11 20 	call	0x4022	; 0x4022 <__divsf3x>
    3ffe:	0c 94 16 21 	jmp	0x422c	; 0x422c <__fp_round>
    4002:	0e 94 0f 21 	call	0x421e	; 0x421e <__fp_pscB>
    4006:	58 f0       	brcs	.+22     	; 0x401e <__divsf3+0x24>
    4008:	0e 94 08 21 	call	0x4210	; 0x4210 <__fp_pscA>
    400c:	40 f0       	brcs	.+16     	; 0x401e <__divsf3+0x24>
    400e:	29 f4       	brne	.+10     	; 0x401a <__divsf3+0x20>
    4010:	5f 3f       	cpi	r21, 0xFF	; 255
    4012:	29 f0       	breq	.+10     	; 0x401e <__divsf3+0x24>
    4014:	0c 94 ff 20 	jmp	0x41fe	; 0x41fe <__fp_inf>
    4018:	51 11       	cpse	r21, r1
    401a:	0c 94 4a 21 	jmp	0x4294	; 0x4294 <__fp_szero>
    401e:	0c 94 05 21 	jmp	0x420a	; 0x420a <__fp_nan>

00004022 <__divsf3x>:
    4022:	0e 94 27 21 	call	0x424e	; 0x424e <__fp_split3>
    4026:	68 f3       	brcs	.-38     	; 0x4002 <__divsf3+0x8>

00004028 <__divsf3_pse>:
    4028:	99 23       	and	r25, r25
    402a:	b1 f3       	breq	.-20     	; 0x4018 <__divsf3+0x1e>
    402c:	55 23       	and	r21, r21
    402e:	91 f3       	breq	.-28     	; 0x4014 <__divsf3+0x1a>
    4030:	95 1b       	sub	r25, r21
    4032:	55 0b       	sbc	r21, r21
    4034:	bb 27       	eor	r27, r27
    4036:	aa 27       	eor	r26, r26
    4038:	62 17       	cp	r22, r18
    403a:	73 07       	cpc	r23, r19
    403c:	84 07       	cpc	r24, r20
    403e:	38 f0       	brcs	.+14     	; 0x404e <__divsf3_pse+0x26>
    4040:	9f 5f       	subi	r25, 0xFF	; 255
    4042:	5f 4f       	sbci	r21, 0xFF	; 255
    4044:	22 0f       	add	r18, r18
    4046:	33 1f       	adc	r19, r19
    4048:	44 1f       	adc	r20, r20
    404a:	aa 1f       	adc	r26, r26
    404c:	a9 f3       	breq	.-22     	; 0x4038 <__divsf3_pse+0x10>
    404e:	35 d0       	rcall	.+106    	; 0x40ba <__divsf3_pse+0x92>
    4050:	0e 2e       	mov	r0, r30
    4052:	3a f0       	brmi	.+14     	; 0x4062 <__divsf3_pse+0x3a>
    4054:	e0 e8       	ldi	r30, 0x80	; 128
    4056:	32 d0       	rcall	.+100    	; 0x40bc <__divsf3_pse+0x94>
    4058:	91 50       	subi	r25, 0x01	; 1
    405a:	50 40       	sbci	r21, 0x00	; 0
    405c:	e6 95       	lsr	r30
    405e:	00 1c       	adc	r0, r0
    4060:	ca f7       	brpl	.-14     	; 0x4054 <__divsf3_pse+0x2c>
    4062:	2b d0       	rcall	.+86     	; 0x40ba <__divsf3_pse+0x92>
    4064:	fe 2f       	mov	r31, r30
    4066:	29 d0       	rcall	.+82     	; 0x40ba <__divsf3_pse+0x92>
    4068:	66 0f       	add	r22, r22
    406a:	77 1f       	adc	r23, r23
    406c:	88 1f       	adc	r24, r24
    406e:	bb 1f       	adc	r27, r27
    4070:	26 17       	cp	r18, r22
    4072:	37 07       	cpc	r19, r23
    4074:	48 07       	cpc	r20, r24
    4076:	ab 07       	cpc	r26, r27
    4078:	b0 e8       	ldi	r27, 0x80	; 128
    407a:	09 f0       	breq	.+2      	; 0x407e <__divsf3_pse+0x56>
    407c:	bb 0b       	sbc	r27, r27
    407e:	80 2d       	mov	r24, r0
    4080:	bf 01       	movw	r22, r30
    4082:	ff 27       	eor	r31, r31
    4084:	93 58       	subi	r25, 0x83	; 131
    4086:	5f 4f       	sbci	r21, 0xFF	; 255
    4088:	3a f0       	brmi	.+14     	; 0x4098 <__divsf3_pse+0x70>
    408a:	9e 3f       	cpi	r25, 0xFE	; 254
    408c:	51 05       	cpc	r21, r1
    408e:	78 f0       	brcs	.+30     	; 0x40ae <__divsf3_pse+0x86>
    4090:	0c 94 ff 20 	jmp	0x41fe	; 0x41fe <__fp_inf>
    4094:	0c 94 4a 21 	jmp	0x4294	; 0x4294 <__fp_szero>
    4098:	5f 3f       	cpi	r21, 0xFF	; 255
    409a:	e4 f3       	brlt	.-8      	; 0x4094 <__divsf3_pse+0x6c>
    409c:	98 3e       	cpi	r25, 0xE8	; 232
    409e:	d4 f3       	brlt	.-12     	; 0x4094 <__divsf3_pse+0x6c>
    40a0:	86 95       	lsr	r24
    40a2:	77 95       	ror	r23
    40a4:	67 95       	ror	r22
    40a6:	b7 95       	ror	r27
    40a8:	f7 95       	ror	r31
    40aa:	9f 5f       	subi	r25, 0xFF	; 255
    40ac:	c9 f7       	brne	.-14     	; 0x40a0 <__divsf3_pse+0x78>
    40ae:	88 0f       	add	r24, r24
    40b0:	91 1d       	adc	r25, r1
    40b2:	96 95       	lsr	r25
    40b4:	87 95       	ror	r24
    40b6:	97 f9       	bld	r25, 7
    40b8:	08 95       	ret
    40ba:	e1 e0       	ldi	r30, 0x01	; 1
    40bc:	66 0f       	add	r22, r22
    40be:	77 1f       	adc	r23, r23
    40c0:	88 1f       	adc	r24, r24
    40c2:	bb 1f       	adc	r27, r27
    40c4:	62 17       	cp	r22, r18
    40c6:	73 07       	cpc	r23, r19
    40c8:	84 07       	cpc	r24, r20
    40ca:	ba 07       	cpc	r27, r26
    40cc:	20 f0       	brcs	.+8      	; 0x40d6 <__divsf3_pse+0xae>
    40ce:	62 1b       	sub	r22, r18
    40d0:	73 0b       	sbc	r23, r19
    40d2:	84 0b       	sbc	r24, r20
    40d4:	ba 0b       	sbc	r27, r26
    40d6:	ee 1f       	adc	r30, r30
    40d8:	88 f7       	brcc	.-30     	; 0x40bc <__divsf3_pse+0x94>
    40da:	e0 95       	com	r30
    40dc:	08 95       	ret

000040de <__fixunssfsi>:
    40de:	0e 94 2f 21 	call	0x425e	; 0x425e <__fp_splitA>
    40e2:	88 f0       	brcs	.+34     	; 0x4106 <__fixunssfsi+0x28>
    40e4:	9f 57       	subi	r25, 0x7F	; 127
    40e6:	98 f0       	brcs	.+38     	; 0x410e <__fixunssfsi+0x30>
    40e8:	b9 2f       	mov	r27, r25
    40ea:	99 27       	eor	r25, r25
    40ec:	b7 51       	subi	r27, 0x17	; 23
    40ee:	b0 f0       	brcs	.+44     	; 0x411c <__fixunssfsi+0x3e>
    40f0:	e1 f0       	breq	.+56     	; 0x412a <__fixunssfsi+0x4c>
    40f2:	66 0f       	add	r22, r22
    40f4:	77 1f       	adc	r23, r23
    40f6:	88 1f       	adc	r24, r24
    40f8:	99 1f       	adc	r25, r25
    40fa:	1a f0       	brmi	.+6      	; 0x4102 <__fixunssfsi+0x24>
    40fc:	ba 95       	dec	r27
    40fe:	c9 f7       	brne	.-14     	; 0x40f2 <__fixunssfsi+0x14>
    4100:	14 c0       	rjmp	.+40     	; 0x412a <__fixunssfsi+0x4c>
    4102:	b1 30       	cpi	r27, 0x01	; 1
    4104:	91 f0       	breq	.+36     	; 0x412a <__fixunssfsi+0x4c>
    4106:	0e 94 49 21 	call	0x4292	; 0x4292 <__fp_zero>
    410a:	b1 e0       	ldi	r27, 0x01	; 1
    410c:	08 95       	ret
    410e:	0c 94 49 21 	jmp	0x4292	; 0x4292 <__fp_zero>
    4112:	67 2f       	mov	r22, r23
    4114:	78 2f       	mov	r23, r24
    4116:	88 27       	eor	r24, r24
    4118:	b8 5f       	subi	r27, 0xF8	; 248
    411a:	39 f0       	breq	.+14     	; 0x412a <__fixunssfsi+0x4c>
    411c:	b9 3f       	cpi	r27, 0xF9	; 249
    411e:	cc f3       	brlt	.-14     	; 0x4112 <__fixunssfsi+0x34>
    4120:	86 95       	lsr	r24
    4122:	77 95       	ror	r23
    4124:	67 95       	ror	r22
    4126:	b3 95       	inc	r27
    4128:	d9 f7       	brne	.-10     	; 0x4120 <__fixunssfsi+0x42>
    412a:	3e f4       	brtc	.+14     	; 0x413a <__fixunssfsi+0x5c>
    412c:	90 95       	com	r25
    412e:	80 95       	com	r24
    4130:	70 95       	com	r23
    4132:	61 95       	neg	r22
    4134:	7f 4f       	sbci	r23, 0xFF	; 255
    4136:	8f 4f       	sbci	r24, 0xFF	; 255
    4138:	9f 4f       	sbci	r25, 0xFF	; 255
    413a:	08 95       	ret

0000413c <__floatunsisf>:
    413c:	e8 94       	clt
    413e:	09 c0       	rjmp	.+18     	; 0x4152 <__floatsisf+0x12>

00004140 <__floatsisf>:
    4140:	97 fb       	bst	r25, 7
    4142:	3e f4       	brtc	.+14     	; 0x4152 <__floatsisf+0x12>
    4144:	90 95       	com	r25
    4146:	80 95       	com	r24
    4148:	70 95       	com	r23
    414a:	61 95       	neg	r22
    414c:	7f 4f       	sbci	r23, 0xFF	; 255
    414e:	8f 4f       	sbci	r24, 0xFF	; 255
    4150:	9f 4f       	sbci	r25, 0xFF	; 255
    4152:	99 23       	and	r25, r25
    4154:	a9 f0       	breq	.+42     	; 0x4180 <__floatsisf+0x40>
    4156:	f9 2f       	mov	r31, r25
    4158:	96 e9       	ldi	r25, 0x96	; 150
    415a:	bb 27       	eor	r27, r27
    415c:	93 95       	inc	r25
    415e:	f6 95       	lsr	r31
    4160:	87 95       	ror	r24
    4162:	77 95       	ror	r23
    4164:	67 95       	ror	r22
    4166:	b7 95       	ror	r27
    4168:	f1 11       	cpse	r31, r1
    416a:	f8 cf       	rjmp	.-16     	; 0x415c <__floatsisf+0x1c>
    416c:	fa f4       	brpl	.+62     	; 0x41ac <__floatsisf+0x6c>
    416e:	bb 0f       	add	r27, r27
    4170:	11 f4       	brne	.+4      	; 0x4176 <__floatsisf+0x36>
    4172:	60 ff       	sbrs	r22, 0
    4174:	1b c0       	rjmp	.+54     	; 0x41ac <__floatsisf+0x6c>
    4176:	6f 5f       	subi	r22, 0xFF	; 255
    4178:	7f 4f       	sbci	r23, 0xFF	; 255
    417a:	8f 4f       	sbci	r24, 0xFF	; 255
    417c:	9f 4f       	sbci	r25, 0xFF	; 255
    417e:	16 c0       	rjmp	.+44     	; 0x41ac <__floatsisf+0x6c>
    4180:	88 23       	and	r24, r24
    4182:	11 f0       	breq	.+4      	; 0x4188 <__floatsisf+0x48>
    4184:	96 e9       	ldi	r25, 0x96	; 150
    4186:	11 c0       	rjmp	.+34     	; 0x41aa <__floatsisf+0x6a>
    4188:	77 23       	and	r23, r23
    418a:	21 f0       	breq	.+8      	; 0x4194 <__floatsisf+0x54>
    418c:	9e e8       	ldi	r25, 0x8E	; 142
    418e:	87 2f       	mov	r24, r23
    4190:	76 2f       	mov	r23, r22
    4192:	05 c0       	rjmp	.+10     	; 0x419e <__floatsisf+0x5e>
    4194:	66 23       	and	r22, r22
    4196:	71 f0       	breq	.+28     	; 0x41b4 <__floatsisf+0x74>
    4198:	96 e8       	ldi	r25, 0x86	; 134
    419a:	86 2f       	mov	r24, r22
    419c:	70 e0       	ldi	r23, 0x00	; 0
    419e:	60 e0       	ldi	r22, 0x00	; 0
    41a0:	2a f0       	brmi	.+10     	; 0x41ac <__floatsisf+0x6c>
    41a2:	9a 95       	dec	r25
    41a4:	66 0f       	add	r22, r22
    41a6:	77 1f       	adc	r23, r23
    41a8:	88 1f       	adc	r24, r24
    41aa:	da f7       	brpl	.-10     	; 0x41a2 <__floatsisf+0x62>
    41ac:	88 0f       	add	r24, r24
    41ae:	96 95       	lsr	r25
    41b0:	87 95       	ror	r24
    41b2:	97 f9       	bld	r25, 7
    41b4:	08 95       	ret

000041b6 <__fp_cmp>:
    41b6:	99 0f       	add	r25, r25
    41b8:	00 08       	sbc	r0, r0
    41ba:	55 0f       	add	r21, r21
    41bc:	aa 0b       	sbc	r26, r26
    41be:	e0 e8       	ldi	r30, 0x80	; 128
    41c0:	fe ef       	ldi	r31, 0xFE	; 254
    41c2:	16 16       	cp	r1, r22
    41c4:	17 06       	cpc	r1, r23
    41c6:	e8 07       	cpc	r30, r24
    41c8:	f9 07       	cpc	r31, r25
    41ca:	c0 f0       	brcs	.+48     	; 0x41fc <__fp_cmp+0x46>
    41cc:	12 16       	cp	r1, r18
    41ce:	13 06       	cpc	r1, r19
    41d0:	e4 07       	cpc	r30, r20
    41d2:	f5 07       	cpc	r31, r21
    41d4:	98 f0       	brcs	.+38     	; 0x41fc <__fp_cmp+0x46>
    41d6:	62 1b       	sub	r22, r18
    41d8:	73 0b       	sbc	r23, r19
    41da:	84 0b       	sbc	r24, r20
    41dc:	95 0b       	sbc	r25, r21
    41de:	39 f4       	brne	.+14     	; 0x41ee <__fp_cmp+0x38>
    41e0:	0a 26       	eor	r0, r26
    41e2:	61 f0       	breq	.+24     	; 0x41fc <__fp_cmp+0x46>
    41e4:	23 2b       	or	r18, r19
    41e6:	24 2b       	or	r18, r20
    41e8:	25 2b       	or	r18, r21
    41ea:	21 f4       	brne	.+8      	; 0x41f4 <__fp_cmp+0x3e>
    41ec:	08 95       	ret
    41ee:	0a 26       	eor	r0, r26
    41f0:	09 f4       	brne	.+2      	; 0x41f4 <__fp_cmp+0x3e>
    41f2:	a1 40       	sbci	r26, 0x01	; 1
    41f4:	a6 95       	lsr	r26
    41f6:	8f ef       	ldi	r24, 0xFF	; 255
    41f8:	81 1d       	adc	r24, r1
    41fa:	81 1d       	adc	r24, r1
    41fc:	08 95       	ret

000041fe <__fp_inf>:
    41fe:	97 f9       	bld	r25, 7
    4200:	9f 67       	ori	r25, 0x7F	; 127
    4202:	80 e8       	ldi	r24, 0x80	; 128
    4204:	70 e0       	ldi	r23, 0x00	; 0
    4206:	60 e0       	ldi	r22, 0x00	; 0
    4208:	08 95       	ret

0000420a <__fp_nan>:
    420a:	9f ef       	ldi	r25, 0xFF	; 255
    420c:	80 ec       	ldi	r24, 0xC0	; 192
    420e:	08 95       	ret

00004210 <__fp_pscA>:
    4210:	00 24       	eor	r0, r0
    4212:	0a 94       	dec	r0
    4214:	16 16       	cp	r1, r22
    4216:	17 06       	cpc	r1, r23
    4218:	18 06       	cpc	r1, r24
    421a:	09 06       	cpc	r0, r25
    421c:	08 95       	ret

0000421e <__fp_pscB>:
    421e:	00 24       	eor	r0, r0
    4220:	0a 94       	dec	r0
    4222:	12 16       	cp	r1, r18
    4224:	13 06       	cpc	r1, r19
    4226:	14 06       	cpc	r1, r20
    4228:	05 06       	cpc	r0, r21
    422a:	08 95       	ret

0000422c <__fp_round>:
    422c:	09 2e       	mov	r0, r25
    422e:	03 94       	inc	r0
    4230:	00 0c       	add	r0, r0
    4232:	11 f4       	brne	.+4      	; 0x4238 <__fp_round+0xc>
    4234:	88 23       	and	r24, r24
    4236:	52 f0       	brmi	.+20     	; 0x424c <__fp_round+0x20>
    4238:	bb 0f       	add	r27, r27
    423a:	40 f4       	brcc	.+16     	; 0x424c <__fp_round+0x20>
    423c:	bf 2b       	or	r27, r31
    423e:	11 f4       	brne	.+4      	; 0x4244 <__fp_round+0x18>
    4240:	60 ff       	sbrs	r22, 0
    4242:	04 c0       	rjmp	.+8      	; 0x424c <__fp_round+0x20>
    4244:	6f 5f       	subi	r22, 0xFF	; 255
    4246:	7f 4f       	sbci	r23, 0xFF	; 255
    4248:	8f 4f       	sbci	r24, 0xFF	; 255
    424a:	9f 4f       	sbci	r25, 0xFF	; 255
    424c:	08 95       	ret

0000424e <__fp_split3>:
    424e:	57 fd       	sbrc	r21, 7
    4250:	90 58       	subi	r25, 0x80	; 128
    4252:	44 0f       	add	r20, r20
    4254:	55 1f       	adc	r21, r21
    4256:	59 f0       	breq	.+22     	; 0x426e <__fp_splitA+0x10>
    4258:	5f 3f       	cpi	r21, 0xFF	; 255
    425a:	71 f0       	breq	.+28     	; 0x4278 <__fp_splitA+0x1a>
    425c:	47 95       	ror	r20

0000425e <__fp_splitA>:
    425e:	88 0f       	add	r24, r24
    4260:	97 fb       	bst	r25, 7
    4262:	99 1f       	adc	r25, r25
    4264:	61 f0       	breq	.+24     	; 0x427e <__fp_splitA+0x20>
    4266:	9f 3f       	cpi	r25, 0xFF	; 255
    4268:	79 f0       	breq	.+30     	; 0x4288 <__fp_splitA+0x2a>
    426a:	87 95       	ror	r24
    426c:	08 95       	ret
    426e:	12 16       	cp	r1, r18
    4270:	13 06       	cpc	r1, r19
    4272:	14 06       	cpc	r1, r20
    4274:	55 1f       	adc	r21, r21
    4276:	f2 cf       	rjmp	.-28     	; 0x425c <__fp_split3+0xe>
    4278:	46 95       	lsr	r20
    427a:	f1 df       	rcall	.-30     	; 0x425e <__fp_splitA>
    427c:	08 c0       	rjmp	.+16     	; 0x428e <__fp_splitA+0x30>
    427e:	16 16       	cp	r1, r22
    4280:	17 06       	cpc	r1, r23
    4282:	18 06       	cpc	r1, r24
    4284:	99 1f       	adc	r25, r25
    4286:	f1 cf       	rjmp	.-30     	; 0x426a <__fp_splitA+0xc>
    4288:	86 95       	lsr	r24
    428a:	71 05       	cpc	r23, r1
    428c:	61 05       	cpc	r22, r1
    428e:	08 94       	sec
    4290:	08 95       	ret

00004292 <__fp_zero>:
    4292:	e8 94       	clt

00004294 <__fp_szero>:
    4294:	bb 27       	eor	r27, r27
    4296:	66 27       	eor	r22, r22
    4298:	77 27       	eor	r23, r23
    429a:	cb 01       	movw	r24, r22
    429c:	97 f9       	bld	r25, 7
    429e:	08 95       	ret

000042a0 <__gesf2>:
    42a0:	0e 94 db 20 	call	0x41b6	; 0x41b6 <__fp_cmp>
    42a4:	08 f4       	brcc	.+2      	; 0x42a8 <__gesf2+0x8>
    42a6:	8f ef       	ldi	r24, 0xFF	; 255
    42a8:	08 95       	ret

000042aa <__mulsf3>:
    42aa:	0e 94 68 21 	call	0x42d0	; 0x42d0 <__mulsf3x>
    42ae:	0c 94 16 21 	jmp	0x422c	; 0x422c <__fp_round>
    42b2:	0e 94 08 21 	call	0x4210	; 0x4210 <__fp_pscA>
    42b6:	38 f0       	brcs	.+14     	; 0x42c6 <__mulsf3+0x1c>
    42b8:	0e 94 0f 21 	call	0x421e	; 0x421e <__fp_pscB>
    42bc:	20 f0       	brcs	.+8      	; 0x42c6 <__mulsf3+0x1c>
    42be:	95 23       	and	r25, r21
    42c0:	11 f0       	breq	.+4      	; 0x42c6 <__mulsf3+0x1c>
    42c2:	0c 94 ff 20 	jmp	0x41fe	; 0x41fe <__fp_inf>
    42c6:	0c 94 05 21 	jmp	0x420a	; 0x420a <__fp_nan>
    42ca:	11 24       	eor	r1, r1
    42cc:	0c 94 4a 21 	jmp	0x4294	; 0x4294 <__fp_szero>

000042d0 <__mulsf3x>:
    42d0:	0e 94 27 21 	call	0x424e	; 0x424e <__fp_split3>
    42d4:	70 f3       	brcs	.-36     	; 0x42b2 <__mulsf3+0x8>

000042d6 <__mulsf3_pse>:
    42d6:	95 9f       	mul	r25, r21
    42d8:	c1 f3       	breq	.-16     	; 0x42ca <__mulsf3+0x20>
    42da:	95 0f       	add	r25, r21
    42dc:	50 e0       	ldi	r21, 0x00	; 0
    42de:	55 1f       	adc	r21, r21
    42e0:	62 9f       	mul	r22, r18
    42e2:	f0 01       	movw	r30, r0
    42e4:	72 9f       	mul	r23, r18
    42e6:	bb 27       	eor	r27, r27
    42e8:	f0 0d       	add	r31, r0
    42ea:	b1 1d       	adc	r27, r1
    42ec:	63 9f       	mul	r22, r19
    42ee:	aa 27       	eor	r26, r26
    42f0:	f0 0d       	add	r31, r0
    42f2:	b1 1d       	adc	r27, r1
    42f4:	aa 1f       	adc	r26, r26
    42f6:	64 9f       	mul	r22, r20
    42f8:	66 27       	eor	r22, r22
    42fa:	b0 0d       	add	r27, r0
    42fc:	a1 1d       	adc	r26, r1
    42fe:	66 1f       	adc	r22, r22
    4300:	82 9f       	mul	r24, r18
    4302:	22 27       	eor	r18, r18
    4304:	b0 0d       	add	r27, r0
    4306:	a1 1d       	adc	r26, r1
    4308:	62 1f       	adc	r22, r18
    430a:	73 9f       	mul	r23, r19
    430c:	b0 0d       	add	r27, r0
    430e:	a1 1d       	adc	r26, r1
    4310:	62 1f       	adc	r22, r18
    4312:	83 9f       	mul	r24, r19
    4314:	a0 0d       	add	r26, r0
    4316:	61 1d       	adc	r22, r1
    4318:	22 1f       	adc	r18, r18
    431a:	74 9f       	mul	r23, r20
    431c:	33 27       	eor	r19, r19
    431e:	a0 0d       	add	r26, r0
    4320:	61 1d       	adc	r22, r1
    4322:	23 1f       	adc	r18, r19
    4324:	84 9f       	mul	r24, r20
    4326:	60 0d       	add	r22, r0
    4328:	21 1d       	adc	r18, r1
    432a:	82 2f       	mov	r24, r18
    432c:	76 2f       	mov	r23, r22
    432e:	6a 2f       	mov	r22, r26
    4330:	11 24       	eor	r1, r1
    4332:	9f 57       	subi	r25, 0x7F	; 127
    4334:	50 40       	sbci	r21, 0x00	; 0
    4336:	9a f0       	brmi	.+38     	; 0x435e <__mulsf3_pse+0x88>
    4338:	f1 f0       	breq	.+60     	; 0x4376 <__mulsf3_pse+0xa0>
    433a:	88 23       	and	r24, r24
    433c:	4a f0       	brmi	.+18     	; 0x4350 <__mulsf3_pse+0x7a>
    433e:	ee 0f       	add	r30, r30
    4340:	ff 1f       	adc	r31, r31
    4342:	bb 1f       	adc	r27, r27
    4344:	66 1f       	adc	r22, r22
    4346:	77 1f       	adc	r23, r23
    4348:	88 1f       	adc	r24, r24
    434a:	91 50       	subi	r25, 0x01	; 1
    434c:	50 40       	sbci	r21, 0x00	; 0
    434e:	a9 f7       	brne	.-22     	; 0x433a <__mulsf3_pse+0x64>
    4350:	9e 3f       	cpi	r25, 0xFE	; 254
    4352:	51 05       	cpc	r21, r1
    4354:	80 f0       	brcs	.+32     	; 0x4376 <__mulsf3_pse+0xa0>
    4356:	0c 94 ff 20 	jmp	0x41fe	; 0x41fe <__fp_inf>
    435a:	0c 94 4a 21 	jmp	0x4294	; 0x4294 <__fp_szero>
    435e:	5f 3f       	cpi	r21, 0xFF	; 255
    4360:	e4 f3       	brlt	.-8      	; 0x435a <__mulsf3_pse+0x84>
    4362:	98 3e       	cpi	r25, 0xE8	; 232
    4364:	d4 f3       	brlt	.-12     	; 0x435a <__mulsf3_pse+0x84>
    4366:	86 95       	lsr	r24
    4368:	77 95       	ror	r23
    436a:	67 95       	ror	r22
    436c:	b7 95       	ror	r27
    436e:	f7 95       	ror	r31
    4370:	e7 95       	ror	r30
    4372:	9f 5f       	subi	r25, 0xFF	; 255
    4374:	c1 f7       	brne	.-16     	; 0x4366 <__mulsf3_pse+0x90>
    4376:	fe 2b       	or	r31, r30
    4378:	88 0f       	add	r24, r24
    437a:	91 1d       	adc	r25, r1
    437c:	96 95       	lsr	r25
    437e:	87 95       	ror	r24
    4380:	97 f9       	bld	r25, 7
    4382:	08 95       	ret

00004384 <__udivmodsi4>:
    4384:	a1 e2       	ldi	r26, 0x21	; 33
    4386:	1a 2e       	mov	r1, r26
    4388:	aa 1b       	sub	r26, r26
    438a:	bb 1b       	sub	r27, r27
    438c:	fd 01       	movw	r30, r26
    438e:	0d c0       	rjmp	.+26     	; 0x43aa <__udivmodsi4_ep>

00004390 <__udivmodsi4_loop>:
    4390:	aa 1f       	adc	r26, r26
    4392:	bb 1f       	adc	r27, r27
    4394:	ee 1f       	adc	r30, r30
    4396:	ff 1f       	adc	r31, r31
    4398:	a2 17       	cp	r26, r18
    439a:	b3 07       	cpc	r27, r19
    439c:	e4 07       	cpc	r30, r20
    439e:	f5 07       	cpc	r31, r21
    43a0:	20 f0       	brcs	.+8      	; 0x43aa <__udivmodsi4_ep>
    43a2:	a2 1b       	sub	r26, r18
    43a4:	b3 0b       	sbc	r27, r19
    43a6:	e4 0b       	sbc	r30, r20
    43a8:	f5 0b       	sbc	r31, r21

000043aa <__udivmodsi4_ep>:
    43aa:	66 1f       	adc	r22, r22
    43ac:	77 1f       	adc	r23, r23
    43ae:	88 1f       	adc	r24, r24
    43b0:	99 1f       	adc	r25, r25
    43b2:	1a 94       	dec	r1
    43b4:	69 f7       	brne	.-38     	; 0x4390 <__udivmodsi4_loop>
    43b6:	60 95       	com	r22
    43b8:	70 95       	com	r23
    43ba:	80 95       	com	r24
    43bc:	90 95       	com	r25
    43be:	9b 01       	movw	r18, r22
    43c0:	ac 01       	movw	r20, r24
    43c2:	bd 01       	movw	r22, r26
    43c4:	cf 01       	movw	r24, r30
    43c6:	08 95       	ret

000043c8 <strcpy_P>:
    43c8:	fb 01       	movw	r30, r22
    43ca:	dc 01       	movw	r26, r24
    43cc:	05 90       	lpm	r0, Z+
    43ce:	0d 92       	st	X+, r0
    43d0:	00 20       	and	r0, r0
    43d2:	e1 f7       	brne	.-8      	; 0x43cc <strcpy_P+0x4>
    43d4:	08 95       	ret

000043d6 <strcmp>:
    43d6:	fb 01       	movw	r30, r22
    43d8:	dc 01       	movw	r26, r24
    43da:	8d 91       	ld	r24, X+
    43dc:	01 90       	ld	r0, Z+
    43de:	80 19       	sub	r24, r0
    43e0:	01 10       	cpse	r0, r1
    43e2:	d9 f3       	breq	.-10     	; 0x43da <strcmp+0x4>
    43e4:	99 0b       	sbc	r25, r25
    43e6:	08 95       	ret

000043e8 <strcpy>:
    43e8:	fb 01       	movw	r30, r22
    43ea:	dc 01       	movw	r26, r24
    43ec:	01 90       	ld	r0, Z+
    43ee:	0d 92       	st	X+, r0
    43f0:	00 20       	and	r0, r0
    43f2:	e1 f7       	brne	.-8      	; 0x43ec <strcpy+0x4>
    43f4:	08 95       	ret

000043f6 <sprintf>:
    43f6:	ae e0       	ldi	r26, 0x0E	; 14
    43f8:	b0 e0       	ldi	r27, 0x00	; 0
    43fa:	e1 e0       	ldi	r30, 0x01	; 1
    43fc:	f2 e2       	ldi	r31, 0x22	; 34
    43fe:	0c 94 bc 24 	jmp	0x4978	; 0x4978 <__prologue_saves__+0x1c>
    4402:	0d 89       	ldd	r16, Y+21	; 0x15
    4404:	1e 89       	ldd	r17, Y+22	; 0x16
    4406:	86 e0       	ldi	r24, 0x06	; 6
    4408:	8c 83       	std	Y+4, r24	; 0x04
    440a:	1a 83       	std	Y+2, r17	; 0x02
    440c:	09 83       	std	Y+1, r16	; 0x01
    440e:	8f ef       	ldi	r24, 0xFF	; 255
    4410:	9f e7       	ldi	r25, 0x7F	; 127
    4412:	9e 83       	std	Y+6, r25	; 0x06
    4414:	8d 83       	std	Y+5, r24	; 0x05
    4416:	ae 01       	movw	r20, r28
    4418:	47 5e       	subi	r20, 0xE7	; 231
    441a:	5f 4f       	sbci	r21, 0xFF	; 255
    441c:	6f 89       	ldd	r22, Y+23	; 0x17
    441e:	78 8d       	ldd	r23, Y+24	; 0x18
    4420:	ce 01       	movw	r24, r28
    4422:	01 96       	adiw	r24, 0x01	; 1
    4424:	0e 94 1d 22 	call	0x443a	; 0x443a <vfprintf>
    4428:	ef 81       	ldd	r30, Y+7	; 0x07
    442a:	f8 85       	ldd	r31, Y+8	; 0x08
    442c:	e0 0f       	add	r30, r16
    442e:	f1 1f       	adc	r31, r17
    4430:	10 82       	st	Z, r1
    4432:	2e 96       	adiw	r28, 0x0e	; 14
    4434:	e4 e0       	ldi	r30, 0x04	; 4
    4436:	0c 94 d8 24 	jmp	0x49b0	; 0x49b0 <__epilogue_restores__+0x1c>

0000443a <vfprintf>:
    443a:	ab e0       	ldi	r26, 0x0B	; 11
    443c:	b0 e0       	ldi	r27, 0x00	; 0
    443e:	e3 e2       	ldi	r30, 0x23	; 35
    4440:	f2 e2       	ldi	r31, 0x22	; 34
    4442:	0c 94 ae 24 	jmp	0x495c	; 0x495c <__prologue_saves__>
    4446:	6c 01       	movw	r12, r24
    4448:	7b 01       	movw	r14, r22
    444a:	8a 01       	movw	r16, r20
    444c:	fc 01       	movw	r30, r24
    444e:	17 82       	std	Z+7, r1	; 0x07
    4450:	16 82       	std	Z+6, r1	; 0x06
    4452:	83 81       	ldd	r24, Z+3	; 0x03
    4454:	81 ff       	sbrs	r24, 1
    4456:	cc c1       	rjmp	.+920    	; 0x47f0 <vfprintf+0x3b6>
    4458:	ce 01       	movw	r24, r28
    445a:	01 96       	adiw	r24, 0x01	; 1
    445c:	3c 01       	movw	r6, r24
    445e:	f6 01       	movw	r30, r12
    4460:	93 81       	ldd	r25, Z+3	; 0x03
    4462:	f7 01       	movw	r30, r14
    4464:	93 fd       	sbrc	r25, 3
    4466:	85 91       	lpm	r24, Z+
    4468:	93 ff       	sbrs	r25, 3
    446a:	81 91       	ld	r24, Z+
    446c:	7f 01       	movw	r14, r30
    446e:	88 23       	and	r24, r24
    4470:	09 f4       	brne	.+2      	; 0x4474 <vfprintf+0x3a>
    4472:	ba c1       	rjmp	.+884    	; 0x47e8 <vfprintf+0x3ae>
    4474:	85 32       	cpi	r24, 0x25	; 37
    4476:	39 f4       	brne	.+14     	; 0x4486 <vfprintf+0x4c>
    4478:	93 fd       	sbrc	r25, 3
    447a:	85 91       	lpm	r24, Z+
    447c:	93 ff       	sbrs	r25, 3
    447e:	81 91       	ld	r24, Z+
    4480:	7f 01       	movw	r14, r30
    4482:	85 32       	cpi	r24, 0x25	; 37
    4484:	29 f4       	brne	.+10     	; 0x4490 <vfprintf+0x56>
    4486:	b6 01       	movw	r22, r12
    4488:	90 e0       	ldi	r25, 0x00	; 0
    448a:	0e 94 14 24 	call	0x4828	; 0x4828 <fputc>
    448e:	e7 cf       	rjmp	.-50     	; 0x445e <vfprintf+0x24>
    4490:	91 2c       	mov	r9, r1
    4492:	21 2c       	mov	r2, r1
    4494:	31 2c       	mov	r3, r1
    4496:	ff e1       	ldi	r31, 0x1F	; 31
    4498:	f3 15       	cp	r31, r3
    449a:	d8 f0       	brcs	.+54     	; 0x44d2 <vfprintf+0x98>
    449c:	8b 32       	cpi	r24, 0x2B	; 43
    449e:	79 f0       	breq	.+30     	; 0x44be <vfprintf+0x84>
    44a0:	38 f4       	brcc	.+14     	; 0x44b0 <vfprintf+0x76>
    44a2:	80 32       	cpi	r24, 0x20	; 32
    44a4:	79 f0       	breq	.+30     	; 0x44c4 <vfprintf+0x8a>
    44a6:	83 32       	cpi	r24, 0x23	; 35
    44a8:	a1 f4       	brne	.+40     	; 0x44d2 <vfprintf+0x98>
    44aa:	23 2d       	mov	r18, r3
    44ac:	20 61       	ori	r18, 0x10	; 16
    44ae:	1d c0       	rjmp	.+58     	; 0x44ea <vfprintf+0xb0>
    44b0:	8d 32       	cpi	r24, 0x2D	; 45
    44b2:	61 f0       	breq	.+24     	; 0x44cc <vfprintf+0x92>
    44b4:	80 33       	cpi	r24, 0x30	; 48
    44b6:	69 f4       	brne	.+26     	; 0x44d2 <vfprintf+0x98>
    44b8:	23 2d       	mov	r18, r3
    44ba:	21 60       	ori	r18, 0x01	; 1
    44bc:	16 c0       	rjmp	.+44     	; 0x44ea <vfprintf+0xb0>
    44be:	83 2d       	mov	r24, r3
    44c0:	82 60       	ori	r24, 0x02	; 2
    44c2:	38 2e       	mov	r3, r24
    44c4:	e3 2d       	mov	r30, r3
    44c6:	e4 60       	ori	r30, 0x04	; 4
    44c8:	3e 2e       	mov	r3, r30
    44ca:	2a c0       	rjmp	.+84     	; 0x4520 <vfprintf+0xe6>
    44cc:	f3 2d       	mov	r31, r3
    44ce:	f8 60       	ori	r31, 0x08	; 8
    44d0:	1d c0       	rjmp	.+58     	; 0x450c <vfprintf+0xd2>
    44d2:	37 fc       	sbrc	r3, 7
    44d4:	2d c0       	rjmp	.+90     	; 0x4530 <vfprintf+0xf6>
    44d6:	20 ed       	ldi	r18, 0xD0	; 208
    44d8:	28 0f       	add	r18, r24
    44da:	2a 30       	cpi	r18, 0x0A	; 10
    44dc:	40 f0       	brcs	.+16     	; 0x44ee <vfprintf+0xb4>
    44de:	8e 32       	cpi	r24, 0x2E	; 46
    44e0:	b9 f4       	brne	.+46     	; 0x4510 <vfprintf+0xd6>
    44e2:	36 fc       	sbrc	r3, 6
    44e4:	81 c1       	rjmp	.+770    	; 0x47e8 <vfprintf+0x3ae>
    44e6:	23 2d       	mov	r18, r3
    44e8:	20 64       	ori	r18, 0x40	; 64
    44ea:	32 2e       	mov	r3, r18
    44ec:	19 c0       	rjmp	.+50     	; 0x4520 <vfprintf+0xe6>
    44ee:	36 fe       	sbrs	r3, 6
    44f0:	06 c0       	rjmp	.+12     	; 0x44fe <vfprintf+0xc4>
    44f2:	8a e0       	ldi	r24, 0x0A	; 10
    44f4:	98 9e       	mul	r9, r24
    44f6:	20 0d       	add	r18, r0
    44f8:	11 24       	eor	r1, r1
    44fa:	92 2e       	mov	r9, r18
    44fc:	11 c0       	rjmp	.+34     	; 0x4520 <vfprintf+0xe6>
    44fe:	ea e0       	ldi	r30, 0x0A	; 10
    4500:	2e 9e       	mul	r2, r30
    4502:	20 0d       	add	r18, r0
    4504:	11 24       	eor	r1, r1
    4506:	22 2e       	mov	r2, r18
    4508:	f3 2d       	mov	r31, r3
    450a:	f0 62       	ori	r31, 0x20	; 32
    450c:	3f 2e       	mov	r3, r31
    450e:	08 c0       	rjmp	.+16     	; 0x4520 <vfprintf+0xe6>
    4510:	8c 36       	cpi	r24, 0x6C	; 108
    4512:	21 f4       	brne	.+8      	; 0x451c <vfprintf+0xe2>
    4514:	83 2d       	mov	r24, r3
    4516:	80 68       	ori	r24, 0x80	; 128
    4518:	38 2e       	mov	r3, r24
    451a:	02 c0       	rjmp	.+4      	; 0x4520 <vfprintf+0xe6>
    451c:	88 36       	cpi	r24, 0x68	; 104
    451e:	41 f4       	brne	.+16     	; 0x4530 <vfprintf+0xf6>
    4520:	f7 01       	movw	r30, r14
    4522:	93 fd       	sbrc	r25, 3
    4524:	85 91       	lpm	r24, Z+
    4526:	93 ff       	sbrs	r25, 3
    4528:	81 91       	ld	r24, Z+
    452a:	7f 01       	movw	r14, r30
    452c:	81 11       	cpse	r24, r1
    452e:	b3 cf       	rjmp	.-154    	; 0x4496 <vfprintf+0x5c>
    4530:	98 2f       	mov	r25, r24
    4532:	9f 7d       	andi	r25, 0xDF	; 223
    4534:	95 54       	subi	r25, 0x45	; 69
    4536:	93 30       	cpi	r25, 0x03	; 3
    4538:	28 f4       	brcc	.+10     	; 0x4544 <vfprintf+0x10a>
    453a:	0c 5f       	subi	r16, 0xFC	; 252
    453c:	1f 4f       	sbci	r17, 0xFF	; 255
    453e:	9f e3       	ldi	r25, 0x3F	; 63
    4540:	99 83       	std	Y+1, r25	; 0x01
    4542:	0d c0       	rjmp	.+26     	; 0x455e <vfprintf+0x124>
    4544:	83 36       	cpi	r24, 0x63	; 99
    4546:	31 f0       	breq	.+12     	; 0x4554 <vfprintf+0x11a>
    4548:	83 37       	cpi	r24, 0x73	; 115
    454a:	71 f0       	breq	.+28     	; 0x4568 <vfprintf+0x12e>
    454c:	83 35       	cpi	r24, 0x53	; 83
    454e:	09 f0       	breq	.+2      	; 0x4552 <vfprintf+0x118>
    4550:	59 c0       	rjmp	.+178    	; 0x4604 <vfprintf+0x1ca>
    4552:	21 c0       	rjmp	.+66     	; 0x4596 <vfprintf+0x15c>
    4554:	f8 01       	movw	r30, r16
    4556:	80 81       	ld	r24, Z
    4558:	89 83       	std	Y+1, r24	; 0x01
    455a:	0e 5f       	subi	r16, 0xFE	; 254
    455c:	1f 4f       	sbci	r17, 0xFF	; 255
    455e:	88 24       	eor	r8, r8
    4560:	83 94       	inc	r8
    4562:	91 2c       	mov	r9, r1
    4564:	53 01       	movw	r10, r6
    4566:	13 c0       	rjmp	.+38     	; 0x458e <vfprintf+0x154>
    4568:	28 01       	movw	r4, r16
    456a:	f2 e0       	ldi	r31, 0x02	; 2
    456c:	4f 0e       	add	r4, r31
    456e:	51 1c       	adc	r5, r1
    4570:	f8 01       	movw	r30, r16
    4572:	a0 80       	ld	r10, Z
    4574:	b1 80       	ldd	r11, Z+1	; 0x01
    4576:	36 fe       	sbrs	r3, 6
    4578:	03 c0       	rjmp	.+6      	; 0x4580 <vfprintf+0x146>
    457a:	69 2d       	mov	r22, r9
    457c:	70 e0       	ldi	r23, 0x00	; 0
    457e:	02 c0       	rjmp	.+4      	; 0x4584 <vfprintf+0x14a>
    4580:	6f ef       	ldi	r22, 0xFF	; 255
    4582:	7f ef       	ldi	r23, 0xFF	; 255
    4584:	c5 01       	movw	r24, r10
    4586:	0e 94 09 24 	call	0x4812	; 0x4812 <strnlen>
    458a:	4c 01       	movw	r8, r24
    458c:	82 01       	movw	r16, r4
    458e:	f3 2d       	mov	r31, r3
    4590:	ff 77       	andi	r31, 0x7F	; 127
    4592:	3f 2e       	mov	r3, r31
    4594:	16 c0       	rjmp	.+44     	; 0x45c2 <vfprintf+0x188>
    4596:	28 01       	movw	r4, r16
    4598:	22 e0       	ldi	r18, 0x02	; 2
    459a:	42 0e       	add	r4, r18
    459c:	51 1c       	adc	r5, r1
    459e:	f8 01       	movw	r30, r16
    45a0:	a0 80       	ld	r10, Z
    45a2:	b1 80       	ldd	r11, Z+1	; 0x01
    45a4:	36 fe       	sbrs	r3, 6
    45a6:	03 c0       	rjmp	.+6      	; 0x45ae <vfprintf+0x174>
    45a8:	69 2d       	mov	r22, r9
    45aa:	70 e0       	ldi	r23, 0x00	; 0
    45ac:	02 c0       	rjmp	.+4      	; 0x45b2 <vfprintf+0x178>
    45ae:	6f ef       	ldi	r22, 0xFF	; 255
    45b0:	7f ef       	ldi	r23, 0xFF	; 255
    45b2:	c5 01       	movw	r24, r10
    45b4:	0e 94 fe 23 	call	0x47fc	; 0x47fc <strnlen_P>
    45b8:	4c 01       	movw	r8, r24
    45ba:	f3 2d       	mov	r31, r3
    45bc:	f0 68       	ori	r31, 0x80	; 128
    45be:	3f 2e       	mov	r3, r31
    45c0:	82 01       	movw	r16, r4
    45c2:	33 fc       	sbrc	r3, 3
    45c4:	1b c0       	rjmp	.+54     	; 0x45fc <vfprintf+0x1c2>
    45c6:	82 2d       	mov	r24, r2
    45c8:	90 e0       	ldi	r25, 0x00	; 0
    45ca:	88 16       	cp	r8, r24
    45cc:	99 06       	cpc	r9, r25
    45ce:	b0 f4       	brcc	.+44     	; 0x45fc <vfprintf+0x1c2>
    45d0:	b6 01       	movw	r22, r12
    45d2:	80 e2       	ldi	r24, 0x20	; 32
    45d4:	90 e0       	ldi	r25, 0x00	; 0
    45d6:	0e 94 14 24 	call	0x4828	; 0x4828 <fputc>
    45da:	2a 94       	dec	r2
    45dc:	f4 cf       	rjmp	.-24     	; 0x45c6 <vfprintf+0x18c>
    45de:	f5 01       	movw	r30, r10
    45e0:	37 fc       	sbrc	r3, 7
    45e2:	85 91       	lpm	r24, Z+
    45e4:	37 fe       	sbrs	r3, 7
    45e6:	81 91       	ld	r24, Z+
    45e8:	5f 01       	movw	r10, r30
    45ea:	b6 01       	movw	r22, r12
    45ec:	90 e0       	ldi	r25, 0x00	; 0
    45ee:	0e 94 14 24 	call	0x4828	; 0x4828 <fputc>
    45f2:	21 10       	cpse	r2, r1
    45f4:	2a 94       	dec	r2
    45f6:	21 e0       	ldi	r18, 0x01	; 1
    45f8:	82 1a       	sub	r8, r18
    45fa:	91 08       	sbc	r9, r1
    45fc:	81 14       	cp	r8, r1
    45fe:	91 04       	cpc	r9, r1
    4600:	71 f7       	brne	.-36     	; 0x45de <vfprintf+0x1a4>
    4602:	e8 c0       	rjmp	.+464    	; 0x47d4 <vfprintf+0x39a>
    4604:	84 36       	cpi	r24, 0x64	; 100
    4606:	11 f0       	breq	.+4      	; 0x460c <vfprintf+0x1d2>
    4608:	89 36       	cpi	r24, 0x69	; 105
    460a:	41 f5       	brne	.+80     	; 0x465c <vfprintf+0x222>
    460c:	f8 01       	movw	r30, r16
    460e:	37 fe       	sbrs	r3, 7
    4610:	07 c0       	rjmp	.+14     	; 0x4620 <vfprintf+0x1e6>
    4612:	60 81       	ld	r22, Z
    4614:	71 81       	ldd	r23, Z+1	; 0x01
    4616:	82 81       	ldd	r24, Z+2	; 0x02
    4618:	93 81       	ldd	r25, Z+3	; 0x03
    461a:	0c 5f       	subi	r16, 0xFC	; 252
    461c:	1f 4f       	sbci	r17, 0xFF	; 255
    461e:	08 c0       	rjmp	.+16     	; 0x4630 <vfprintf+0x1f6>
    4620:	60 81       	ld	r22, Z
    4622:	71 81       	ldd	r23, Z+1	; 0x01
    4624:	07 2e       	mov	r0, r23
    4626:	00 0c       	add	r0, r0
    4628:	88 0b       	sbc	r24, r24
    462a:	99 0b       	sbc	r25, r25
    462c:	0e 5f       	subi	r16, 0xFE	; 254
    462e:	1f 4f       	sbci	r17, 0xFF	; 255
    4630:	f3 2d       	mov	r31, r3
    4632:	ff 76       	andi	r31, 0x6F	; 111
    4634:	3f 2e       	mov	r3, r31
    4636:	97 ff       	sbrs	r25, 7
    4638:	09 c0       	rjmp	.+18     	; 0x464c <vfprintf+0x212>
    463a:	90 95       	com	r25
    463c:	80 95       	com	r24
    463e:	70 95       	com	r23
    4640:	61 95       	neg	r22
    4642:	7f 4f       	sbci	r23, 0xFF	; 255
    4644:	8f 4f       	sbci	r24, 0xFF	; 255
    4646:	9f 4f       	sbci	r25, 0xFF	; 255
    4648:	f0 68       	ori	r31, 0x80	; 128
    464a:	3f 2e       	mov	r3, r31
    464c:	2a e0       	ldi	r18, 0x0A	; 10
    464e:	30 e0       	ldi	r19, 0x00	; 0
    4650:	a3 01       	movw	r20, r6
    4652:	0e 94 50 24 	call	0x48a0	; 0x48a0 <__ultoa_invert>
    4656:	88 2e       	mov	r8, r24
    4658:	86 18       	sub	r8, r6
    465a:	45 c0       	rjmp	.+138    	; 0x46e6 <vfprintf+0x2ac>
    465c:	85 37       	cpi	r24, 0x75	; 117
    465e:	31 f4       	brne	.+12     	; 0x466c <vfprintf+0x232>
    4660:	23 2d       	mov	r18, r3
    4662:	2f 7e       	andi	r18, 0xEF	; 239
    4664:	b2 2e       	mov	r11, r18
    4666:	2a e0       	ldi	r18, 0x0A	; 10
    4668:	30 e0       	ldi	r19, 0x00	; 0
    466a:	25 c0       	rjmp	.+74     	; 0x46b6 <vfprintf+0x27c>
    466c:	93 2d       	mov	r25, r3
    466e:	99 7f       	andi	r25, 0xF9	; 249
    4670:	b9 2e       	mov	r11, r25
    4672:	8f 36       	cpi	r24, 0x6F	; 111
    4674:	c1 f0       	breq	.+48     	; 0x46a6 <vfprintf+0x26c>
    4676:	18 f4       	brcc	.+6      	; 0x467e <vfprintf+0x244>
    4678:	88 35       	cpi	r24, 0x58	; 88
    467a:	79 f0       	breq	.+30     	; 0x469a <vfprintf+0x260>
    467c:	b5 c0       	rjmp	.+362    	; 0x47e8 <vfprintf+0x3ae>
    467e:	80 37       	cpi	r24, 0x70	; 112
    4680:	19 f0       	breq	.+6      	; 0x4688 <vfprintf+0x24e>
    4682:	88 37       	cpi	r24, 0x78	; 120
    4684:	21 f0       	breq	.+8      	; 0x468e <vfprintf+0x254>
    4686:	b0 c0       	rjmp	.+352    	; 0x47e8 <vfprintf+0x3ae>
    4688:	e9 2f       	mov	r30, r25
    468a:	e0 61       	ori	r30, 0x10	; 16
    468c:	be 2e       	mov	r11, r30
    468e:	b4 fe       	sbrs	r11, 4
    4690:	0d c0       	rjmp	.+26     	; 0x46ac <vfprintf+0x272>
    4692:	fb 2d       	mov	r31, r11
    4694:	f4 60       	ori	r31, 0x04	; 4
    4696:	bf 2e       	mov	r11, r31
    4698:	09 c0       	rjmp	.+18     	; 0x46ac <vfprintf+0x272>
    469a:	34 fe       	sbrs	r3, 4
    469c:	0a c0       	rjmp	.+20     	; 0x46b2 <vfprintf+0x278>
    469e:	29 2f       	mov	r18, r25
    46a0:	26 60       	ori	r18, 0x06	; 6
    46a2:	b2 2e       	mov	r11, r18
    46a4:	06 c0       	rjmp	.+12     	; 0x46b2 <vfprintf+0x278>
    46a6:	28 e0       	ldi	r18, 0x08	; 8
    46a8:	30 e0       	ldi	r19, 0x00	; 0
    46aa:	05 c0       	rjmp	.+10     	; 0x46b6 <vfprintf+0x27c>
    46ac:	20 e1       	ldi	r18, 0x10	; 16
    46ae:	30 e0       	ldi	r19, 0x00	; 0
    46b0:	02 c0       	rjmp	.+4      	; 0x46b6 <vfprintf+0x27c>
    46b2:	20 e1       	ldi	r18, 0x10	; 16
    46b4:	32 e0       	ldi	r19, 0x02	; 2
    46b6:	f8 01       	movw	r30, r16
    46b8:	b7 fe       	sbrs	r11, 7
    46ba:	07 c0       	rjmp	.+14     	; 0x46ca <vfprintf+0x290>
    46bc:	60 81       	ld	r22, Z
    46be:	71 81       	ldd	r23, Z+1	; 0x01
    46c0:	82 81       	ldd	r24, Z+2	; 0x02
    46c2:	93 81       	ldd	r25, Z+3	; 0x03
    46c4:	0c 5f       	subi	r16, 0xFC	; 252
    46c6:	1f 4f       	sbci	r17, 0xFF	; 255
    46c8:	06 c0       	rjmp	.+12     	; 0x46d6 <vfprintf+0x29c>
    46ca:	60 81       	ld	r22, Z
    46cc:	71 81       	ldd	r23, Z+1	; 0x01
    46ce:	80 e0       	ldi	r24, 0x00	; 0
    46d0:	90 e0       	ldi	r25, 0x00	; 0
    46d2:	0e 5f       	subi	r16, 0xFE	; 254
    46d4:	1f 4f       	sbci	r17, 0xFF	; 255
    46d6:	a3 01       	movw	r20, r6
    46d8:	0e 94 50 24 	call	0x48a0	; 0x48a0 <__ultoa_invert>
    46dc:	88 2e       	mov	r8, r24
    46de:	86 18       	sub	r8, r6
    46e0:	fb 2d       	mov	r31, r11
    46e2:	ff 77       	andi	r31, 0x7F	; 127
    46e4:	3f 2e       	mov	r3, r31
    46e6:	36 fe       	sbrs	r3, 6
    46e8:	0d c0       	rjmp	.+26     	; 0x4704 <vfprintf+0x2ca>
    46ea:	23 2d       	mov	r18, r3
    46ec:	2e 7f       	andi	r18, 0xFE	; 254
    46ee:	a2 2e       	mov	r10, r18
    46f0:	89 14       	cp	r8, r9
    46f2:	58 f4       	brcc	.+22     	; 0x470a <vfprintf+0x2d0>
    46f4:	34 fe       	sbrs	r3, 4
    46f6:	0b c0       	rjmp	.+22     	; 0x470e <vfprintf+0x2d4>
    46f8:	32 fc       	sbrc	r3, 2
    46fa:	09 c0       	rjmp	.+18     	; 0x470e <vfprintf+0x2d4>
    46fc:	83 2d       	mov	r24, r3
    46fe:	8e 7e       	andi	r24, 0xEE	; 238
    4700:	a8 2e       	mov	r10, r24
    4702:	05 c0       	rjmp	.+10     	; 0x470e <vfprintf+0x2d4>
    4704:	b8 2c       	mov	r11, r8
    4706:	a3 2c       	mov	r10, r3
    4708:	03 c0       	rjmp	.+6      	; 0x4710 <vfprintf+0x2d6>
    470a:	b8 2c       	mov	r11, r8
    470c:	01 c0       	rjmp	.+2      	; 0x4710 <vfprintf+0x2d6>
    470e:	b9 2c       	mov	r11, r9
    4710:	a4 fe       	sbrs	r10, 4
    4712:	0f c0       	rjmp	.+30     	; 0x4732 <vfprintf+0x2f8>
    4714:	fe 01       	movw	r30, r28
    4716:	e8 0d       	add	r30, r8
    4718:	f1 1d       	adc	r31, r1
    471a:	80 81       	ld	r24, Z
    471c:	80 33       	cpi	r24, 0x30	; 48
    471e:	21 f4       	brne	.+8      	; 0x4728 <vfprintf+0x2ee>
    4720:	9a 2d       	mov	r25, r10
    4722:	99 7e       	andi	r25, 0xE9	; 233
    4724:	a9 2e       	mov	r10, r25
    4726:	09 c0       	rjmp	.+18     	; 0x473a <vfprintf+0x300>
    4728:	a2 fe       	sbrs	r10, 2
    472a:	06 c0       	rjmp	.+12     	; 0x4738 <vfprintf+0x2fe>
    472c:	b3 94       	inc	r11
    472e:	b3 94       	inc	r11
    4730:	04 c0       	rjmp	.+8      	; 0x473a <vfprintf+0x300>
    4732:	8a 2d       	mov	r24, r10
    4734:	86 78       	andi	r24, 0x86	; 134
    4736:	09 f0       	breq	.+2      	; 0x473a <vfprintf+0x300>
    4738:	b3 94       	inc	r11
    473a:	a3 fc       	sbrc	r10, 3
    473c:	11 c0       	rjmp	.+34     	; 0x4760 <vfprintf+0x326>
    473e:	a0 fe       	sbrs	r10, 0
    4740:	06 c0       	rjmp	.+12     	; 0x474e <vfprintf+0x314>
    4742:	b2 14       	cp	r11, r2
    4744:	88 f4       	brcc	.+34     	; 0x4768 <vfprintf+0x32e>
    4746:	28 0c       	add	r2, r8
    4748:	92 2c       	mov	r9, r2
    474a:	9b 18       	sub	r9, r11
    474c:	0e c0       	rjmp	.+28     	; 0x476a <vfprintf+0x330>
    474e:	b2 14       	cp	r11, r2
    4750:	60 f4       	brcc	.+24     	; 0x476a <vfprintf+0x330>
    4752:	b6 01       	movw	r22, r12
    4754:	80 e2       	ldi	r24, 0x20	; 32
    4756:	90 e0       	ldi	r25, 0x00	; 0
    4758:	0e 94 14 24 	call	0x4828	; 0x4828 <fputc>
    475c:	b3 94       	inc	r11
    475e:	f7 cf       	rjmp	.-18     	; 0x474e <vfprintf+0x314>
    4760:	b2 14       	cp	r11, r2
    4762:	18 f4       	brcc	.+6      	; 0x476a <vfprintf+0x330>
    4764:	2b 18       	sub	r2, r11
    4766:	02 c0       	rjmp	.+4      	; 0x476c <vfprintf+0x332>
    4768:	98 2c       	mov	r9, r8
    476a:	21 2c       	mov	r2, r1
    476c:	a4 fe       	sbrs	r10, 4
    476e:	10 c0       	rjmp	.+32     	; 0x4790 <vfprintf+0x356>
    4770:	b6 01       	movw	r22, r12
    4772:	80 e3       	ldi	r24, 0x30	; 48
    4774:	90 e0       	ldi	r25, 0x00	; 0
    4776:	0e 94 14 24 	call	0x4828	; 0x4828 <fputc>
    477a:	a2 fe       	sbrs	r10, 2
    477c:	17 c0       	rjmp	.+46     	; 0x47ac <vfprintf+0x372>
    477e:	a1 fc       	sbrc	r10, 1
    4780:	03 c0       	rjmp	.+6      	; 0x4788 <vfprintf+0x34e>
    4782:	88 e7       	ldi	r24, 0x78	; 120
    4784:	90 e0       	ldi	r25, 0x00	; 0
    4786:	02 c0       	rjmp	.+4      	; 0x478c <vfprintf+0x352>
    4788:	88 e5       	ldi	r24, 0x58	; 88
    478a:	90 e0       	ldi	r25, 0x00	; 0
    478c:	b6 01       	movw	r22, r12
    478e:	0c c0       	rjmp	.+24     	; 0x47a8 <vfprintf+0x36e>
    4790:	8a 2d       	mov	r24, r10
    4792:	86 78       	andi	r24, 0x86	; 134
    4794:	59 f0       	breq	.+22     	; 0x47ac <vfprintf+0x372>
    4796:	a1 fe       	sbrs	r10, 1
    4798:	02 c0       	rjmp	.+4      	; 0x479e <vfprintf+0x364>
    479a:	8b e2       	ldi	r24, 0x2B	; 43
    479c:	01 c0       	rjmp	.+2      	; 0x47a0 <vfprintf+0x366>
    479e:	80 e2       	ldi	r24, 0x20	; 32
    47a0:	a7 fc       	sbrc	r10, 7
    47a2:	8d e2       	ldi	r24, 0x2D	; 45
    47a4:	b6 01       	movw	r22, r12
    47a6:	90 e0       	ldi	r25, 0x00	; 0
    47a8:	0e 94 14 24 	call	0x4828	; 0x4828 <fputc>
    47ac:	89 14       	cp	r8, r9
    47ae:	38 f4       	brcc	.+14     	; 0x47be <vfprintf+0x384>
    47b0:	b6 01       	movw	r22, r12
    47b2:	80 e3       	ldi	r24, 0x30	; 48
    47b4:	90 e0       	ldi	r25, 0x00	; 0
    47b6:	0e 94 14 24 	call	0x4828	; 0x4828 <fputc>
    47ba:	9a 94       	dec	r9
    47bc:	f7 cf       	rjmp	.-18     	; 0x47ac <vfprintf+0x372>
    47be:	8a 94       	dec	r8
    47c0:	f3 01       	movw	r30, r6
    47c2:	e8 0d       	add	r30, r8
    47c4:	f1 1d       	adc	r31, r1
    47c6:	80 81       	ld	r24, Z
    47c8:	b6 01       	movw	r22, r12
    47ca:	90 e0       	ldi	r25, 0x00	; 0
    47cc:	0e 94 14 24 	call	0x4828	; 0x4828 <fputc>
    47d0:	81 10       	cpse	r8, r1
    47d2:	f5 cf       	rjmp	.-22     	; 0x47be <vfprintf+0x384>
    47d4:	22 20       	and	r2, r2
    47d6:	09 f4       	brne	.+2      	; 0x47da <vfprintf+0x3a0>
    47d8:	42 ce       	rjmp	.-892    	; 0x445e <vfprintf+0x24>
    47da:	b6 01       	movw	r22, r12
    47dc:	80 e2       	ldi	r24, 0x20	; 32
    47de:	90 e0       	ldi	r25, 0x00	; 0
    47e0:	0e 94 14 24 	call	0x4828	; 0x4828 <fputc>
    47e4:	2a 94       	dec	r2
    47e6:	f6 cf       	rjmp	.-20     	; 0x47d4 <vfprintf+0x39a>
    47e8:	f6 01       	movw	r30, r12
    47ea:	86 81       	ldd	r24, Z+6	; 0x06
    47ec:	97 81       	ldd	r25, Z+7	; 0x07
    47ee:	02 c0       	rjmp	.+4      	; 0x47f4 <vfprintf+0x3ba>
    47f0:	8f ef       	ldi	r24, 0xFF	; 255
    47f2:	9f ef       	ldi	r25, 0xFF	; 255
    47f4:	2b 96       	adiw	r28, 0x0b	; 11
    47f6:	e2 e1       	ldi	r30, 0x12	; 18
    47f8:	0c 94 ca 24 	jmp	0x4994	; 0x4994 <__epilogue_restores__>

000047fc <strnlen_P>:
    47fc:	fc 01       	movw	r30, r24
    47fe:	05 90       	lpm	r0, Z+
    4800:	61 50       	subi	r22, 0x01	; 1
    4802:	70 40       	sbci	r23, 0x00	; 0
    4804:	01 10       	cpse	r0, r1
    4806:	d8 f7       	brcc	.-10     	; 0x47fe <strnlen_P+0x2>
    4808:	80 95       	com	r24
    480a:	90 95       	com	r25
    480c:	8e 0f       	add	r24, r30
    480e:	9f 1f       	adc	r25, r31
    4810:	08 95       	ret

00004812 <strnlen>:
    4812:	fc 01       	movw	r30, r24
    4814:	61 50       	subi	r22, 0x01	; 1
    4816:	70 40       	sbci	r23, 0x00	; 0
    4818:	01 90       	ld	r0, Z+
    481a:	01 10       	cpse	r0, r1
    481c:	d8 f7       	brcc	.-10     	; 0x4814 <strnlen+0x2>
    481e:	80 95       	com	r24
    4820:	90 95       	com	r25
    4822:	8e 0f       	add	r24, r30
    4824:	9f 1f       	adc	r25, r31
    4826:	08 95       	ret

00004828 <fputc>:
    4828:	0f 93       	push	r16
    482a:	1f 93       	push	r17
    482c:	cf 93       	push	r28
    482e:	df 93       	push	r29
    4830:	fb 01       	movw	r30, r22
    4832:	23 81       	ldd	r18, Z+3	; 0x03
    4834:	21 fd       	sbrc	r18, 1
    4836:	03 c0       	rjmp	.+6      	; 0x483e <fputc+0x16>
    4838:	8f ef       	ldi	r24, 0xFF	; 255
    483a:	9f ef       	ldi	r25, 0xFF	; 255
    483c:	2c c0       	rjmp	.+88     	; 0x4896 <fputc+0x6e>
    483e:	22 ff       	sbrs	r18, 2
    4840:	16 c0       	rjmp	.+44     	; 0x486e <fputc+0x46>
    4842:	46 81       	ldd	r20, Z+6	; 0x06
    4844:	57 81       	ldd	r21, Z+7	; 0x07
    4846:	24 81       	ldd	r18, Z+4	; 0x04
    4848:	35 81       	ldd	r19, Z+5	; 0x05
    484a:	42 17       	cp	r20, r18
    484c:	53 07       	cpc	r21, r19
    484e:	44 f4       	brge	.+16     	; 0x4860 <fputc+0x38>
    4850:	a0 81       	ld	r26, Z
    4852:	b1 81       	ldd	r27, Z+1	; 0x01
    4854:	9d 01       	movw	r18, r26
    4856:	2f 5f       	subi	r18, 0xFF	; 255
    4858:	3f 4f       	sbci	r19, 0xFF	; 255
    485a:	31 83       	std	Z+1, r19	; 0x01
    485c:	20 83       	st	Z, r18
    485e:	8c 93       	st	X, r24
    4860:	26 81       	ldd	r18, Z+6	; 0x06
    4862:	37 81       	ldd	r19, Z+7	; 0x07
    4864:	2f 5f       	subi	r18, 0xFF	; 255
    4866:	3f 4f       	sbci	r19, 0xFF	; 255
    4868:	37 83       	std	Z+7, r19	; 0x07
    486a:	26 83       	std	Z+6, r18	; 0x06
    486c:	14 c0       	rjmp	.+40     	; 0x4896 <fputc+0x6e>
    486e:	8b 01       	movw	r16, r22
    4870:	ec 01       	movw	r28, r24
    4872:	fb 01       	movw	r30, r22
    4874:	00 84       	ldd	r0, Z+8	; 0x08
    4876:	f1 85       	ldd	r31, Z+9	; 0x09
    4878:	e0 2d       	mov	r30, r0
    487a:	09 95       	icall
    487c:	89 2b       	or	r24, r25
    487e:	e1 f6       	brne	.-72     	; 0x4838 <fputc+0x10>
    4880:	d8 01       	movw	r26, r16
    4882:	16 96       	adiw	r26, 0x06	; 6
    4884:	8d 91       	ld	r24, X+
    4886:	9c 91       	ld	r25, X
    4888:	17 97       	sbiw	r26, 0x07	; 7
    488a:	01 96       	adiw	r24, 0x01	; 1
    488c:	17 96       	adiw	r26, 0x07	; 7
    488e:	9c 93       	st	X, r25
    4890:	8e 93       	st	-X, r24
    4892:	16 97       	sbiw	r26, 0x06	; 6
    4894:	ce 01       	movw	r24, r28
    4896:	df 91       	pop	r29
    4898:	cf 91       	pop	r28
    489a:	1f 91       	pop	r17
    489c:	0f 91       	pop	r16
    489e:	08 95       	ret

000048a0 <__ultoa_invert>:
    48a0:	fa 01       	movw	r30, r20
    48a2:	aa 27       	eor	r26, r26
    48a4:	28 30       	cpi	r18, 0x08	; 8
    48a6:	51 f1       	breq	.+84     	; 0x48fc <__ultoa_invert+0x5c>
    48a8:	20 31       	cpi	r18, 0x10	; 16
    48aa:	81 f1       	breq	.+96     	; 0x490c <__ultoa_invert+0x6c>
    48ac:	e8 94       	clt
    48ae:	6f 93       	push	r22
    48b0:	6e 7f       	andi	r22, 0xFE	; 254
    48b2:	6e 5f       	subi	r22, 0xFE	; 254
    48b4:	7f 4f       	sbci	r23, 0xFF	; 255
    48b6:	8f 4f       	sbci	r24, 0xFF	; 255
    48b8:	9f 4f       	sbci	r25, 0xFF	; 255
    48ba:	af 4f       	sbci	r26, 0xFF	; 255
    48bc:	b1 e0       	ldi	r27, 0x01	; 1
    48be:	3e d0       	rcall	.+124    	; 0x493c <__ultoa_invert+0x9c>
    48c0:	b4 e0       	ldi	r27, 0x04	; 4
    48c2:	3c d0       	rcall	.+120    	; 0x493c <__ultoa_invert+0x9c>
    48c4:	67 0f       	add	r22, r23
    48c6:	78 1f       	adc	r23, r24
    48c8:	89 1f       	adc	r24, r25
    48ca:	9a 1f       	adc	r25, r26
    48cc:	a1 1d       	adc	r26, r1
    48ce:	68 0f       	add	r22, r24
    48d0:	79 1f       	adc	r23, r25
    48d2:	8a 1f       	adc	r24, r26
    48d4:	91 1d       	adc	r25, r1
    48d6:	a1 1d       	adc	r26, r1
    48d8:	6a 0f       	add	r22, r26
    48da:	71 1d       	adc	r23, r1
    48dc:	81 1d       	adc	r24, r1
    48de:	91 1d       	adc	r25, r1
    48e0:	a1 1d       	adc	r26, r1
    48e2:	20 d0       	rcall	.+64     	; 0x4924 <__ultoa_invert+0x84>
    48e4:	09 f4       	brne	.+2      	; 0x48e8 <__ultoa_invert+0x48>
    48e6:	68 94       	set
    48e8:	3f 91       	pop	r19
    48ea:	2a e0       	ldi	r18, 0x0A	; 10
    48ec:	26 9f       	mul	r18, r22
    48ee:	11 24       	eor	r1, r1
    48f0:	30 19       	sub	r19, r0
    48f2:	30 5d       	subi	r19, 0xD0	; 208
    48f4:	31 93       	st	Z+, r19
    48f6:	de f6       	brtc	.-74     	; 0x48ae <__ultoa_invert+0xe>
    48f8:	cf 01       	movw	r24, r30
    48fa:	08 95       	ret
    48fc:	46 2f       	mov	r20, r22
    48fe:	47 70       	andi	r20, 0x07	; 7
    4900:	40 5d       	subi	r20, 0xD0	; 208
    4902:	41 93       	st	Z+, r20
    4904:	b3 e0       	ldi	r27, 0x03	; 3
    4906:	0f d0       	rcall	.+30     	; 0x4926 <__ultoa_invert+0x86>
    4908:	c9 f7       	brne	.-14     	; 0x48fc <__ultoa_invert+0x5c>
    490a:	f6 cf       	rjmp	.-20     	; 0x48f8 <__ultoa_invert+0x58>
    490c:	46 2f       	mov	r20, r22
    490e:	4f 70       	andi	r20, 0x0F	; 15
    4910:	40 5d       	subi	r20, 0xD0	; 208
    4912:	4a 33       	cpi	r20, 0x3A	; 58
    4914:	18 f0       	brcs	.+6      	; 0x491c <__ultoa_invert+0x7c>
    4916:	49 5d       	subi	r20, 0xD9	; 217
    4918:	31 fd       	sbrc	r19, 1
    491a:	40 52       	subi	r20, 0x20	; 32
    491c:	41 93       	st	Z+, r20
    491e:	02 d0       	rcall	.+4      	; 0x4924 <__ultoa_invert+0x84>
    4920:	a9 f7       	brne	.-22     	; 0x490c <__ultoa_invert+0x6c>
    4922:	ea cf       	rjmp	.-44     	; 0x48f8 <__ultoa_invert+0x58>
    4924:	b4 e0       	ldi	r27, 0x04	; 4
    4926:	a6 95       	lsr	r26
    4928:	97 95       	ror	r25
    492a:	87 95       	ror	r24
    492c:	77 95       	ror	r23
    492e:	67 95       	ror	r22
    4930:	ba 95       	dec	r27
    4932:	c9 f7       	brne	.-14     	; 0x4926 <__ultoa_invert+0x86>
    4934:	00 97       	sbiw	r24, 0x00	; 0
    4936:	61 05       	cpc	r22, r1
    4938:	71 05       	cpc	r23, r1
    493a:	08 95       	ret
    493c:	9b 01       	movw	r18, r22
    493e:	ac 01       	movw	r20, r24
    4940:	0a 2e       	mov	r0, r26
    4942:	06 94       	lsr	r0
    4944:	57 95       	ror	r21
    4946:	47 95       	ror	r20
    4948:	37 95       	ror	r19
    494a:	27 95       	ror	r18
    494c:	ba 95       	dec	r27
    494e:	c9 f7       	brne	.-14     	; 0x4942 <__ultoa_invert+0xa2>
    4950:	62 0f       	add	r22, r18
    4952:	73 1f       	adc	r23, r19
    4954:	84 1f       	adc	r24, r20
    4956:	95 1f       	adc	r25, r21
    4958:	a0 1d       	adc	r26, r0
    495a:	08 95       	ret

0000495c <__prologue_saves__>:
    495c:	2f 92       	push	r2
    495e:	3f 92       	push	r3
    4960:	4f 92       	push	r4
    4962:	5f 92       	push	r5
    4964:	6f 92       	push	r6
    4966:	7f 92       	push	r7
    4968:	8f 92       	push	r8
    496a:	9f 92       	push	r9
    496c:	af 92       	push	r10
    496e:	bf 92       	push	r11
    4970:	cf 92       	push	r12
    4972:	df 92       	push	r13
    4974:	ef 92       	push	r14
    4976:	ff 92       	push	r15
    4978:	0f 93       	push	r16
    497a:	1f 93       	push	r17
    497c:	cf 93       	push	r28
    497e:	df 93       	push	r29
    4980:	cd b7       	in	r28, 0x3d	; 61
    4982:	de b7       	in	r29, 0x3e	; 62
    4984:	ca 1b       	sub	r28, r26
    4986:	db 0b       	sbc	r29, r27
    4988:	0f b6       	in	r0, 0x3f	; 63
    498a:	f8 94       	cli
    498c:	de bf       	out	0x3e, r29	; 62
    498e:	0f be       	out	0x3f, r0	; 63
    4990:	cd bf       	out	0x3d, r28	; 61
    4992:	09 94       	ijmp

00004994 <__epilogue_restores__>:
    4994:	2a 88       	ldd	r2, Y+18	; 0x12
    4996:	39 88       	ldd	r3, Y+17	; 0x11
    4998:	48 88       	ldd	r4, Y+16	; 0x10
    499a:	5f 84       	ldd	r5, Y+15	; 0x0f
    499c:	6e 84       	ldd	r6, Y+14	; 0x0e
    499e:	7d 84       	ldd	r7, Y+13	; 0x0d
    49a0:	8c 84       	ldd	r8, Y+12	; 0x0c
    49a2:	9b 84       	ldd	r9, Y+11	; 0x0b
    49a4:	aa 84       	ldd	r10, Y+10	; 0x0a
    49a6:	b9 84       	ldd	r11, Y+9	; 0x09
    49a8:	c8 84       	ldd	r12, Y+8	; 0x08
    49aa:	df 80       	ldd	r13, Y+7	; 0x07
    49ac:	ee 80       	ldd	r14, Y+6	; 0x06
    49ae:	fd 80       	ldd	r15, Y+5	; 0x05
    49b0:	0c 81       	ldd	r16, Y+4	; 0x04
    49b2:	1b 81       	ldd	r17, Y+3	; 0x03
    49b4:	aa 81       	ldd	r26, Y+2	; 0x02
    49b6:	b9 81       	ldd	r27, Y+1	; 0x01
    49b8:	ce 0f       	add	r28, r30
    49ba:	d1 1d       	adc	r29, r1
    49bc:	0f b6       	in	r0, 0x3f	; 63
    49be:	f8 94       	cli
    49c0:	de bf       	out	0x3e, r29	; 62
    49c2:	0f be       	out	0x3f, r0	; 63
    49c4:	cd bf       	out	0x3d, r28	; 61
    49c6:	ed 01       	movw	r28, r26
    49c8:	08 95       	ret

000049ca <_exit>:
    49ca:	f8 94       	cli

000049cc <__stop_program>:
    49cc:	ff cf       	rjmp	.-2      	; 0x49cc <__stop_program>
